# SymbolsHelper-Confirmed: 11.0.0 amd64 arm64 armel armhf hurd-i386 i386 mips64el mipsel powerpc ppc64 ppc64el riscv64 s390x sparc64
libLLVMSPIRVLib.so.12 #PACKAGE# #MINVER#
* Build-Depends-Package: libllvmspirvlib-12-dev
 _Z13mapDebugFlagsN4llvm6DINode7DIFlagsE@Base 0
 _Z15transDebugFlagsPKN4llvm6DINodeE@Base 0
 _Z17addPassesForSPIRVRN4llvm6legacy11PassManagerERKN5SPIRV14TranslatorOptsE@Base 0
 _Z17isValidLLVMModulePN4llvm6ModuleERN5SPIRV13SPIRVErrorLogE@Base 0
 _ZGVZN5SPIRV8SPIRVMapIN10SPIRVDebug11InstructionENSt7__cxx1112basic_stringIcSt11char_traitsIcESaIcEEEvE6getMapEvE3Map@Base 0
 _ZGVZN5SPIRV8SPIRVMapIN10SPIRVDebug11InstructionENSt7__cxx1112basic_stringIcSt11char_traitsIcESaIcEEEvE7getRMapEvE3Map@Base 0
 _ZGVZN5SPIRV8SPIRVMapIN17VectorComputeUtil11VCFloatTypeE14VCFloatControlvE6getMapEvE3Map@Base 0
 _ZGVZN5SPIRV8SPIRVMapIN17VectorComputeUtil11VCFloatTypeEjvE6getMapEvE3Map@Base 0
 _ZGVZN5SPIRV8SPIRVMapIN17VectorComputeUtil11VCFloatTypeEjvE7getRMapEvE3Map@Base 0
 _ZGVZN5SPIRV8SPIRVMapIN3spv10CapabilityENSt7__cxx1112basic_stringIcSt11char_traitsIcESaIcEEEvE6getMapEvE3Map@Base 0
 _ZGVZN5SPIRV8SPIRVMapIN3spv10CapabilityENSt7__cxx1112basic_stringIcSt11char_traitsIcESaIcEEEvE7getRMapEvE3Map@Base 0
 _ZGVZN5SPIRV8SPIRVMapIN3spv10CapabilityESt6vectorIS2_SaIS2_EEvE6getMapEvE3Map@Base 0
 _ZGVZN5SPIRV8SPIRVMapIN3spv10DecorationENSt7__cxx1112basic_stringIcSt11char_traitsIcESaIcEEEvE6getMapEvE3Map@Base 0
 _ZGVZN5SPIRV8SPIRVMapIN3spv10DecorationENSt7__cxx1112basic_stringIcSt11char_traitsIcESaIcEEEvE7getRMapEvE3Map@Base 0
 _ZGVZN5SPIRV8SPIRVMapIN3spv10DecorationESt6vectorINS1_10CapabilityESaIS4_EEvE6getMapEvE3Map@Base 0
 _ZGVZN5SPIRV8SPIRVMapIN3spv11LinkageTypeENSt7__cxx1112basic_stringIcSt11char_traitsIcESaIcEEEvE6getMapEvE3Map@Base 0
 _ZGVZN5SPIRV8SPIRVMapIN3spv11LinkageTypeENSt7__cxx1112basic_stringIcSt11char_traitsIcESaIcEEEvE7getRMapEvE3Map@Base 0
 _ZGVZN5SPIRV8SPIRVMapIN3spv12FPDenormModeENS1_13ExecutionModeEvE6getMapEvE3Map@Base 0
 _ZGVZN5SPIRV8SPIRVMapIN3spv12StorageClassESt6vectorINS1_10CapabilityESaIS4_EEvE6getMapEvE3Map@Base 0
 _ZGVZN5SPIRV8SPIRVMapIN3spv13ExecutionModeESt6vectorINS1_10CapabilityESaIS4_EEvE6getMapEvE3Map@Base 0
 _ZGVZN5SPIRV8SPIRVMapIN3spv14ExecutionModelESt6vectorINS1_10CapabilityESaIS4_EEvE6getMapEvE3Map@Base 0
 _ZGVZN5SPIRV8SPIRVMapIN3spv14FPRoundingModeE14VCFloatControlvE6getMapEvE3Map@Base 0
 _ZGVZN5SPIRV8SPIRVMapIN3spv14FPRoundingModeE14VCFloatControlvE7getRMapEvE3Map@Base 0
 _ZGVZN5SPIRV8SPIRVMapIN3spv14FPRoundingModeENS1_13ExecutionModeEvE6getMapEvE3Map@Base 0
 _ZGVZN5SPIRV8SPIRVMapIN3spv15FPOperationModeE14VCFloatControlvE6getMapEvE3Map@Base 0
 _ZGVZN5SPIRV8SPIRVMapIN3spv15FPOperationModeE14VCFloatControlvE7getRMapEvE3Map@Base 0
 _ZGVZN5SPIRV8SPIRVMapIN3spv15FPOperationModeENS1_13ExecutionModeEvE6getMapEvE3Map@Base 0
 _ZGVZN5SPIRV8SPIRVMapIN3spv2OpENSt7__cxx1112basic_stringIcSt11char_traitsIcESaIcEEEvE6getMapEvE3Map@Base 0
 _ZGVZN5SPIRV8SPIRVMapIN3spv2OpENSt7__cxx1112basic_stringIcSt11char_traitsIcESaIcEEEvE7getRMapEvE3Map@Base 0
 _ZGVZN5SPIRV8SPIRVMapIN3spv2OpES2_NS_14IntBoolOpMapIdEE6getMapEvE3Map@Base 0
 _ZGVZN5SPIRV8SPIRVMapIN3spv2OpES2_NS_14IntBoolOpMapIdEE7getRMapEvE3Map@Base 0
 _ZGVZN5SPIRV8SPIRVMapIN3spv7BuiltInENSt7__cxx1112basic_stringIcSt11char_traitsIcESaIcEEEvE6getMapEvE3Map@Base 0
 _ZGVZN5SPIRV8SPIRVMapIN3spv7BuiltInENSt7__cxx1112basic_stringIcSt11char_traitsIcESaIcEEEvE7getRMapEvE3Map@Base 0
 _ZGVZN5SPIRV8SPIRVMapIN4llvm13AtomicRMWInst5BinOpEN3spv2OpEvE6getMapEvE3Map@Base 0
 _ZGVZN5SPIRV8SPIRVMapIN4llvm5dwarf12LocationAtomEN10SPIRVDebug16ExpressionOpCodeEvE6getMapEvE3Map@Base 0
 _ZGVZN5SPIRV8SPIRVMapIN4llvm5dwarf12LocationAtomEN10SPIRVDebug16ExpressionOpCodeEvE7getRMapEvE3Map@Base 0
 _ZGVZN5SPIRV8SPIRVMapIN4llvm5dwarf3TagEN10SPIRVDebug16CompositeTypeTagEvE6getMapEvE3Map@Base 0
 _ZGVZN5SPIRV8SPIRVMapIN4llvm5dwarf3TagEN10SPIRVDebug16TypeQualifierTagEvE6getMapEvE3Map@Base 0
 _ZGVZN5SPIRV8SPIRVMapIN4llvm5dwarf3TagEN10SPIRVDebug16TypeQualifierTagEvE7getRMapEvE3Map@Base 0
 _ZGVZN5SPIRV8SPIRVMapIN4llvm5dwarf3TagEN10SPIRVDebug17ImportedEntityTagEvE6getMapEvE3Map@Base 0
 _ZGVZN5SPIRV8SPIRVMapIN4llvm5dwarf8TypeKindEN10SPIRVDebug11EncodingTagEvE6getMapEvE3Map@Base 0
 _ZGVZN5SPIRV8SPIRVMapIN4llvm5dwarf8TypeKindEN10SPIRVDebug11EncodingTagEvE7getRMapEvE3Map@Base 0
 _ZGVZN5SPIRV8SPIRVMapIN4llvm7CmpInst9PredicateEN3spv2OpEvE6getMapEvE3Map@Base 0
 _ZGVZN5SPIRV8SPIRVMapIN4llvm7CmpInst9PredicateEN3spv2OpEvE7getRMapEvE3Map@Base 0
 _ZGVZN5SPIRV8SPIRVMapIN4llvm9Attribute8AttrKindEN3spv19FunctionControlMaskEvE6getMapEvE3Map@Base 0
 _ZGVZN5SPIRV8SPIRVMapIN4llvm9Attribute8AttrKindEN3spv26FunctionParameterAttributeEvE7getRMapEvE3Map@Base 0
 _ZGVZN5SPIRV8SPIRVMapIN7OCLUtil12OCLScopeKindEN3spv5ScopeEvE6getMapEvE3Map@Base 0
 _ZGVZN5SPIRV8SPIRVMapIN7OCLUtil12OCLScopeKindEN3spv5ScopeEvE7getRMapEvE3Map@Base 0
 _ZGVZN5SPIRV8SPIRVMapIN7OCLUtil15OCLMemFenceKindEN3spv19MemorySemanticsMaskEvE6getMapEvE3Map@Base 0
 _ZGVZN5SPIRV8SPIRVMapIN7OCLUtil15OCLMemOrderKindEjN3spv19MemorySemanticsMaskEE6getMapEvE3Map@Base 0
 _ZGVZN5SPIRV8SPIRVMapIN7OCLUtil15OCLMemOrderKindEjN3spv19MemorySemanticsMaskEE7getRMapEvE3Map@Base 0
 _ZGVZN5SPIRV8SPIRVMapIN7OCLUtil23OCLMemFenceExtendedKindEN3spv19MemorySemanticsMaskEvE6getMapEvE3Map@Base 0
 _ZGVZN5SPIRV8SPIRVMapIN7OCLUtil23OCLMemFenceExtendedKindEN3spv19MemorySemanticsMaskEvE7getRMapEvE3Map@Base 0
 _ZGVZN5SPIRV8SPIRVMapIN7OCLUtil6OclExt4KindEN3spv10CapabilityEvE6getMapEvE3Map@Base 0
 _ZGVZN5SPIRV8SPIRVMapIN7OCLUtil6OclExt4KindEN3spv10CapabilityEvE7getRMapEvE3Map@Base 0
 _ZGVZN5SPIRV8SPIRVMapIN7OCLUtil6OclExt4KindENSt7__cxx1112basic_stringIcSt11char_traitsIcESaIcEEEvE6getMapEvE3Map@Base 0
 _ZGVZN5SPIRV8SPIRVMapIN7OCLUtil6OclExt4KindENSt7__cxx1112basic_stringIcSt11char_traitsIcESaIcEEEvE7getRMapEvE3Map@Base 0
 _ZGVZN5SPIRV8SPIRVMapIN9OpenCLLIB11EntrypointsENSt7__cxx1112basic_stringIcSt11char_traitsIcESaIcEEEvE6getMapEvE3Map@Base 0
 _ZGVZN5SPIRV8SPIRVMapIN9OpenCLLIB11EntrypointsENSt7__cxx1112basic_stringIcSt11char_traitsIcESaIcEEEvE7getRMapEvE3Map@Base 0
 _ZGVZN5SPIRV8SPIRVMapINS_11ExtensionIDENSt7__cxx1112basic_stringIcSt11char_traitsIcESaIcEEEvE6getMapEvE3Map@Base 0
 _ZGVZN5SPIRV8SPIRVMapINS_11ExtensionIDENSt7__cxx1112basic_stringIcSt11char_traitsIcESaIcEEEvE7getRMapEvE3Map@Base 0
 _ZGVZN5SPIRV8SPIRVMapINS_14SPIRVErrorCodeENSt7__cxx1112basic_stringIcSt11char_traitsIcESaIcEEEvE6getMapEvE3Map@Base 0
 _ZGVZN5SPIRV8SPIRVMapINS_16SPIRAddressSpaceEN3spv12StorageClassEvE6getMapEvE3Map@Base 0
 _ZGVZN5SPIRV8SPIRVMapINS_16SPIRAddressSpaceEN3spv12StorageClassEvE7getRMapEvE3Map@Base 0
 _ZGVZN5SPIRV8SPIRVMapINS_19SPIRVExtInstSetKindENSt7__cxx1112basic_stringIcSt11char_traitsIcESaIcEEENS_20SPIRVExtSetShortNameEE6getMapEvE3Map@Base 0
 _ZGVZN5SPIRV8SPIRVMapINS_19SPIRVExtInstSetKindENSt7__cxx1112basic_stringIcSt11char_traitsIcESaIcEEENS_20SPIRVExtSetShortNameEE7getRMapEvE3Map@Base 0
 _ZGVZN5SPIRV8SPIRVMapINS_19SPIRVExtInstSetKindENSt7__cxx1112basic_stringIcSt11char_traitsIcESaIcEEEvE6getMapEvE3Map@Base 0
 _ZGVZN5SPIRV8SPIRVMapINS_19SPIRVExtInstSetKindENSt7__cxx1112basic_stringIcSt11char_traitsIcESaIcEEEvE7getRMapEvE3Map@Base 0
 _ZGVZN5SPIRV8SPIRVMapINSt7__cxx1112basic_stringIcSt11char_traitsIcESaIcEEEN3spv14FPRoundingModeEvE6getMapEvE3Map@Base 0
 _ZGVZN5SPIRV8SPIRVMapINSt7__cxx1112basic_stringIcSt11char_traitsIcESaIcEEEN3spv14FPRoundingModeEvE7getRMapEvE3Map@Base 0
 _ZGVZN5SPIRV8SPIRVMapINSt7__cxx1112basic_stringIcSt11char_traitsIcESaIcEEEN3spv14GroupOperationEvE6getMapEvE3Map@Base 0
 _ZGVZN5SPIRV8SPIRVMapINSt7__cxx1112basic_stringIcSt11char_traitsIcESaIcEEEN3spv15AccessQualifierEvE6getMapEvE3Map@Base 0
 _ZGVZN5SPIRV8SPIRVMapINSt7__cxx1112basic_stringIcSt11char_traitsIcESaIcEEEN3spv15AccessQualifierEvE7getRMapEvE3Map@Base 0
 _ZGVZN5SPIRV8SPIRVMapINSt7__cxx1112basic_stringIcSt11char_traitsIcESaIcEEEN3spv2OpEN7OCLUtil12OCL12BuiltinEE7getRMapEvE3Map@Base 0
 _ZGVZN5SPIRV8SPIRVMapINSt7__cxx1112basic_stringIcSt11char_traitsIcESaIcEEEN3spv2OpEN7OCLUtil13OCLOpaqueTypeEE6getMapEvE3Map@Base 0
 _ZGVZN5SPIRV8SPIRVMapINSt7__cxx1112basic_stringIcSt11char_traitsIcESaIcEEEN3spv2OpEN7OCLUtil13OCLOpaqueTypeEE7getRMapEvE3Map@Base 0
 _ZGVZN5SPIRV8SPIRVMapINSt7__cxx1112basic_stringIcSt11char_traitsIcESaIcEEEN3spv2OpENS_15SPIRVOpaqueTypeEE6getMapEvE3Map@Base 0
 _ZGVZN5SPIRV8SPIRVMapINSt7__cxx1112basic_stringIcSt11char_traitsIcESaIcEEEN3spv2OpENS_16SPIRVInstructionEE6getMapEvE3Map@Base 0
 _ZGVZN5SPIRV8SPIRVMapINSt7__cxx1112basic_stringIcSt11char_traitsIcESaIcEEEN3spv2OpENS_16SPIRVInstructionEE7getRMapEvE3Map@Base 0
 _ZGVZN5SPIRV8SPIRVMapINSt7__cxx1112basic_stringIcSt11char_traitsIcESaIcEEEN3spv2OpENS_22SPIRVArbFloatIntelInstEE7getRMapEvE3Map@Base 0
 _ZGVZN5SPIRV8SPIRVMapINSt7__cxx1112basic_stringIcSt11char_traitsIcESaIcEEEN3spv2OpENS_22SPIRVTypeSubgroupINTELEE6getMapEvE3Map@Base 0
 _ZGVZN5SPIRV8SPIRVMapINSt7__cxx1112basic_stringIcSt11char_traitsIcESaIcEEEN3spv2OpENS_22SPIRVTypeSubgroupINTELEE7getRMapEvE3Map@Base 0
 _ZGVZN5SPIRV8SPIRVMapINSt7__cxx1112basic_stringIcSt11char_traitsIcESaIcEEEN3spv2OpENS_26SPIRVSubgroupsAVCIntelInstEE6getMapEvE3Map@Base 0
 _ZGVZN5SPIRV8SPIRVMapINSt7__cxx1112basic_stringIcSt11char_traitsIcESaIcEEEN3spv2OpENS_26SPIRVSubgroupsAVCIntelInstEE7getRMapEvE3Map@Base 0
 _ZGVZN5SPIRV8SPIRVMapINSt7__cxx1112basic_stringIcSt11char_traitsIcESaIcEEEN3spv7BuiltInEvE6getMapEvE3Map@Base 0
 _ZGVZN5SPIRV8SPIRVMapINSt7__cxx1112basic_stringIcSt11char_traitsIcESaIcEEEN3spv7BuiltInEvE7getRMapEvE3Map@Base 0
 _ZGVZN5SPIRV8SPIRVMapINSt7__cxx1112basic_stringIcSt11char_traitsIcESaIcEEENS_24SPIRVTypeImageDescriptorEvE6getMapEvE3Map@Base 0
 _ZGVZN5SPIRV8SPIRVMapINSt7__cxx1112basic_stringIcSt11char_traitsIcESaIcEEENS_24SPIRVTypeImageDescriptorEvE7getRMapEvE3Map@Base 0
 _ZGVZN5SPIRV8SPIRVMapIjN3spv2OpEvE6getMapEvE3Map@Base 0
 _ZGVZN5SPIRV8SPIRVMapIjN3spv2OpEvE7getRMapEvE3Map@Base 0
 _ZGVZNKSt8__detail11_AnyMatcherINSt7__cxx1112regex_traitsIcEELb0ELb0ELb0EEclEcE5__nul@Base 0
 _ZGVZNKSt8__detail11_AnyMatcherINSt7__cxx1112regex_traitsIcEELb0ELb0ELb1EEclEcE5__nul@Base 0
 _ZGVZNKSt8__detail11_AnyMatcherINSt7__cxx1112regex_traitsIcEELb0ELb1ELb0EEclEcE5__nul@Base 0
 _ZGVZNKSt8__detail11_AnyMatcherINSt7__cxx1112regex_traitsIcEELb0ELb1ELb1EEclEcE5__nul@Base 0
 _ZN17VectorComputeUtil15getFPDenormModeEjNS_11VCFloatTypeE@Base 0
 _ZN17VectorComputeUtil17getFPRoundingModeEj@Base 0
 _ZN17VectorComputeUtil17getVCFloatControlEN3spv12FPDenormModeENS_11VCFloatTypeE@Base 0
 _ZN17VectorComputeUtil17getVCFloatControlEN3spv14FPRoundingModeE@Base 0
 _ZN17VectorComputeUtil17getVCFloatControlEN3spv15FPOperationModeE@Base 0
 _ZN17VectorComputeUtil18getFPOperationModeEj@Base 0
 _ZN17VectorComputeUtil22getVCBufferSurfaceNameB5cxx11EN3spv15AccessQualifierE@Base 0
 _ZN17VectorComputeUtil22getVCBufferSurfaceNameB5cxx11Ev@Base 0
 _ZN17VectorComputeUtil26getVCGlobalVarAddressSpaceEN3spv12StorageClassE@Base 0
 _ZN17VectorComputeUtil26getVCGlobalVarStorageClassEN5SPIRV16SPIRAddressSpaceE@Base 0
 _ZN4SPIR10AtomicType6EnumTyE@Base 0
 _ZN4SPIR10AtomicTypeC1ENS_8RefCountINS_9ParamTypeEEE@Base 0
 _ZN4SPIR10AtomicTypeC2ENS_8RefCountINS_9ParamTypeEEE@Base 0
 _ZN4SPIR10AtomicTypeD0Ev@Base 0
 _ZN4SPIR10AtomicTypeD1Ev@Base 0
 _ZN4SPIR10AtomicTypeD2Ev@Base 0
 _ZN4SPIR10VectorType6EnumTyE@Base 0
 _ZN4SPIR10VectorTypeC1ENS_8RefCountINS_9ParamTypeEEEi@Base 0
 _ZN4SPIR10VectorTypeC2ENS_8RefCountINS_9ParamTypeEEEi@Base 0
 _ZN4SPIR10VectorTypeD0Ev@Base 0
 _ZN4SPIR10VectorTypeD1Ev@Base 0
 _ZN4SPIR10VectorTypeD2Ev@Base 0
 _ZN4SPIR11NameMangler6mangleERKNS_18FunctionDescriptorERNSt7__cxx1112basic_stringIcSt11char_traitsIcESaIcEEE@Base 0
 _ZN4SPIR11NameManglerC1ENS_11SPIRversionE@Base 0
 _ZN4SPIR11NameManglerC2ENS_11SPIRversionE@Base 0
 _ZN4SPIR11PointerType12setQualifierENS_17TypeAttributeEnumEb@Base 0
 _ZN4SPIR11PointerType15setAddressSpaceENS_17TypeAttributeEnumE@Base 0
 _ZN4SPIR11PointerType6EnumTyE@Base 0
 _ZN4SPIR11PointerTypeC1ENS_8RefCountINS_9ParamTypeEEE@Base 0
 _ZN4SPIR11PointerTypeC2ENS_8RefCountINS_9ParamTypeEEE@Base 0
 _ZN4SPIR11PointerTypeD0Ev@Base 0
 _ZN4SPIR11PointerTypeD1Ev@Base 0
 _ZN4SPIR11PointerTypeD2Ev@Base 0
 _ZN4SPIR12MangledTypesE@Base 0
 _ZN4SPIR13MangleVisitor16mangleSequenceIDEj@Base 0
 _ZN4SPIR13MangleVisitor18mangleSubstitutionEPKNS_9ParamTypeENSt7__cxx1112basic_stringIcSt11char_traitsIcESaIcEEE@Base 0
 _ZN4SPIR13MangleVisitor18recordSubstitutionERKNSt7__cxx1112basic_stringIcSt11char_traitsIcESaIcEEE@Base 0
 _ZN4SPIR13MangleVisitor5visitEPKNS_10AtomicTypeE@Base 0
 _ZN4SPIR13MangleVisitor5visitEPKNS_10VectorTypeE@Base 0
 _ZN4SPIR13MangleVisitor5visitEPKNS_11PointerTypeE@Base 0
 _ZN4SPIR13MangleVisitor5visitEPKNS_13PrimitiveTypeE@Base 0
 _ZN4SPIR13MangleVisitor5visitEPKNS_15UserDefinedTypeE@Base 0
 _ZN4SPIR13MangleVisitor5visitEPKNS_9BlockTypeE@Base 0
 _ZN4SPIR13MangleVisitorD0Ev@Base 0
 _ZN4SPIR13MangleVisitorD1Ev@Base 0
 _ZN4SPIR13MangleVisitorD2Ev@Base 0
 _ZN4SPIR13PrimitiveType6EnumTyE@Base 0
 _ZN4SPIR13PrimitiveTypeC1ENS_17TypePrimitiveEnumE@Base 0
 _ZN4SPIR13PrimitiveTypeC2ENS_17TypePrimitiveEnumE@Base 0
 _ZN4SPIR13PrimitiveTypeD0Ev@Base 0
 _ZN4SPIR13PrimitiveTypeD1Ev@Base 0
 _ZN4SPIR13PrimitiveTypeD2Ev@Base 0
 _ZN4SPIR15UserDefinedType6EnumTyE@Base 0
 _ZN4SPIR15UserDefinedTypeC1ERKNSt7__cxx1112basic_stringIcSt11char_traitsIcESaIcEEE@Base 0
 _ZN4SPIR15UserDefinedTypeC2ERKNSt7__cxx1112basic_stringIcSt11char_traitsIcESaIcEEE@Base 0
 _ZN4SPIR15UserDefinedTypeD0Ev@Base 0
 _ZN4SPIR15UserDefinedTypeD1Ev@Base 0
 _ZN4SPIR15UserDefinedTypeD2Ev@Base 0
 _ZN4SPIR16MangledAttributeE@Base 0
 _ZN4SPIR17ReadableAttributeE@Base 0
 _ZN4SPIR18FunctionDescriptor10nullStringB5cxx11Ev@Base 0
 _ZN4SPIR18FunctionDescriptor4nullEv@Base 0
 _ZN4SPIR19getMangledAttributeENS_17TypeAttributeEnumE@Base 0
 _ZN4SPIR19getSupportedVersionENS_17TypePrimitiveEnumE@Base 0
 _ZN4SPIR20getReadableAttributeENS_17TypeAttributeEnumE@Base 0
 _ZN4SPIR22getSPIRVersionAsStringENS_11SPIRversionE@Base 0
 _ZN4SPIR22mangledPrimitiveStringENS_17TypePrimitiveEnumE@Base 0
 _ZN4SPIR23readablePrimitiveStringENS_17TypePrimitiveEnumE@Base 0
 _ZN4SPIR30mangledPrimitiveStringfromNameENSt7__cxx1112basic_stringIcSt11char_traitsIcESaIcEEE@Base 0
 (optional=templinst)_ZN4SPIR8RefCountINS_9ParamTypeEE7disposeEv@Base 0
 _ZN4SPIR9BlockType6EnumTyE@Base 0
 _ZN4SPIR9BlockType8setParamEjNS_8RefCountINS_9ParamTypeEEE@Base 0
 _ZN4SPIR9BlockTypeC1Ev@Base 0
 _ZN4SPIR9BlockTypeC2Ev@Base 0
 _ZN4SPIR9BlockTypeD0Ev@Base 0
 _ZN4SPIR9BlockTypeD1Ev@Base 0
 _ZN4SPIR9BlockTypeD2Ev@Base 0
 (subst)_ZN4llvm10MaybeAlignC1E{uint64_t}@Base 0
 (subst)_ZN4llvm10MaybeAlignC2E{uint64_t}@Base 0
 _ZN4llvm10SelectInst6CreateEPNS_5ValueES2_S2_RKNS_5TwineEPNS_10BasicBlockE@Base 0
 _ZN4llvm10writeSpirvEPNS_6ModuleERKN5SPIRV14TranslatorOptsERSoRNSt7__cxx1112basic_stringIcSt11char_traitsIcESaIcEEE@Base 0
 _ZN4llvm10writeSpirvEPNS_6ModuleERSoRNSt7__cxx1112basic_stringIcSt11char_traitsIcESaIcEEE@Base 0
 (optional=templinst)_ZN4llvm11InstVisitorIN5SPIRV12OCL20ToSPIRVEvE16delegateCallInstERNS_8CallInstE@Base 0
 (optional=templinst)_ZN4llvm11InstVisitorIN5SPIRV12OCL21ToSPIRVEvE16delegateCallInstERNS_8CallInstE@Base 0
 (optional=templinst)_ZN4llvm11InstVisitorIN5SPIRV14SPIRVLowerBoolEvE5visitERNS_6ModuleE@Base 0
 (optional=templinst)_ZN4llvm11InstVisitorIN5SPIRV26SPIRVLowerSaddWithOverflowEvE16delegateCallInstERNS_8CallInstE@Base 0
 _ZN4llvm11raw_ostreamlsENS_9StringRefE@Base 0
 _ZN4llvm11raw_ostreamlsEPKc@Base 0
 _ZN4llvm11raw_ostreamlsEc@Base 0
 (optional=templinst)_ZN4llvm12DenseMapBaseINS_8DenseMapIPNS_5ValueEPN5SPIRV10SPIRVValueENS_12DenseMapInfoIS3_EENS_6detail12DenseMapPairIS3_S6_EEEES3_S6_S8_SB_E16FindAndConstructERKS3_@Base 0
 (optional=templinst|arch=amd64 arm64 mips64el ppc64el riscv64 sparc64)_ZN4llvm12DenseMapBaseINS_8DenseMapIPNS_5ValueEPN5SPIRV10SPIRVValueENS_12DenseMapInfoIS3_EENS_6detail12DenseMapPairIS3_S6_EEEES3_S6_S8_SB_E4findEPKS2_@Base 0
 (optional=templinst)_ZN4llvm12DenseMapBaseINS_8DenseMapIPNS_6MDNodeEjNS_12DenseMapInfoIS3_EENS_6detail12DenseMapPairIS3_jEEEES3_jS5_S8_E16FindAndConstructERKS3_@Base 0
 (optional=templinst)_ZN4llvm12StringSwitchIN4SPIR17TypePrimitiveEnumES2_E4CaseENS_13StringLiteralES2_@Base 0
 (optional=templinst|arch=armel armhf hurd-i386 i386 mipsel powerpc)_ZN4llvm12StringSwitchIjjE4CaseENS_13StringLiteralEj@Base 0
 (optional=templinst|subst)_ZN4llvm12function_refIFNS_8OptionalINSt7__cxx1112basic_stringIcSt11char_traitsIcESaIcEEEEENS_9StringRefEEE11callback_fnIZN5SPIRV26SPIRVLowerSaddWithOverflow18visitIntrinsicInstERNS_8CallInstEEUlS9_E_EES8_{ssize_t}S9_@Base 0
 (optional=templinst|subst)_ZN4llvm12function_refIFRNS_15AssumptionCacheERNS_8FunctionEEE11callback_fnISt8functionIS5_EEES2_{ssize_t}S4_@Base 0
 _ZN4llvm13IRBuilderBase10CreateCastENS_11Instruction7CastOpsEPNS_5ValueEPNS_4TypeERKNS_5TwineE@Base 0
 _ZN4llvm13IRBuilderBase10CreateFAddEPNS_5ValueES2_RKNS_5TwineEPNS_6MDNodeE@Base 0
 _ZN4llvm13IRBuilderBase10CreateFMulEPNS_5ValueES2_RKNS_5TwineEPNS_6MDNodeE@Base 0
 _ZN4llvm13IRBuilderBase10CreateICmpENS_7CmpInst9PredicateEPNS_5ValueES4_RKNS_5TwineE@Base 0
 _ZN4llvm13IRBuilderBase10CreateSRemEPNS_5ValueES2_RKNS_5TwineE@Base 0
 (arch=!riscv64)_ZN4llvm13IRBuilderBase12CreateSwitchEPNS_5ValueEPNS_10BasicBlockEjPNS_6MDNodeES6_@Base 0
 _ZN4llvm13IRBuilderBase17CreateInsertValueEPNS_5ValueES2_NS_8ArrayRefIjEERKNS_5TwineE@Base 0
 _ZN4llvm13IRBuilderBase18CreateExtractValueEPNS_5ValueENS_8ArrayRefIjEERKNS_5TwineE@Base 0
 _ZN4llvm13IRBuilderBase19CreateInsertElementEPNS_5ValueES2_S2_RKNS_5TwineE@Base 0
 _ZN4llvm13IRBuilderBase19CreateShuffleVectorEPNS_5ValueES2_NS_8ArrayRefIiEERKNS_5TwineE@Base 0
 _ZN4llvm13IRBuilderBase20CreateExtractElementEPNS_5ValueES2_RKNS_5TwineE@Base 0
 _ZN4llvm13IRBuilderBase21CreateGlobalStringPtrENS_9StringRefERKNS_5TwineEjPNS_6ModuleE@Base 0
 _ZN4llvm13IRBuilderBase26CreateConstInBoundsGEP2_32EPNS_4TypeEPNS_5ValueEjjRKNS_5TwineE@Base 0
 _ZN4llvm13IRBuilderBase9CreateAddEPNS_5ValueES2_RKNS_5TwineEbb@Base 0
 _ZN4llvm13IRBuilderBase9CreateAndEPNS_5ValueES2_RKNS_5TwineE@Base 0
 _ZN4llvm13IRBuilderBase9CreateXorEPNS_5ValueES2_RKNS_5TwineE@Base 0
 _ZN4llvm14FPMathOperator7classofEPKNS_5ValueE@Base 0
 (optional=templinst)_ZN4llvm14FunctionCalleeC1INS_8FunctionEMS2_KFPNS_12FunctionTypeEvEEEPT_@Base 0
 (optional=templinst)_ZN4llvm14FunctionCalleeC2INS_8FunctionEMS2_KFPNS_12FunctionTypeEvEEEPT_@Base 0
 _ZN4llvm15SPIRVWriterPass3runERNS_6ModuleE@Base 0
 (optional=templinst)_ZN4llvm15SmallVectorImplIPNS_5ValueEED1Ev@Base 0
 (optional=templinst)_ZN4llvm15SmallVectorImplIPNS_5ValueEED2Ev@Base 0
 (optional=templinst)_ZN4llvm15callDefaultCtorIN5SPIRV11LLVMToSPIRVEEEPNS_4PassEv@Base 0
 (optional=templinst)_ZN4llvm15callDefaultCtorIN5SPIRV12OCL20ToSPIRVEEEPNS_4PassEv@Base 0
 (optional=templinst)_ZN4llvm15callDefaultCtorIN5SPIRV12OCL21ToSPIRVEEEPNS_4PassEv@Base 0
 (optional=templinst)_ZN4llvm15callDefaultCtorIN5SPIRV12SPIRVToOCL12EEEPNS_4PassEv@Base 0
 (optional=templinst)_ZN4llvm15callDefaultCtorIN5SPIRV12SPIRVToOCL20EEEPNS_4PassEv@Base 0
 (optional=templinst)_ZN4llvm15callDefaultCtorIN5SPIRV14OCLTypeToSPIRVEEEPNS_4PassEv@Base 0
 (optional=templinst)_ZN4llvm15callDefaultCtorIN5SPIRV14SPIRVLowerBoolEEEPNS_4PassEv@Base 0
 (optional=templinst)_ZN4llvm15callDefaultCtorIN5SPIRV17SPIRVLowerMemmoveEEEPNS_4PassEv@Base 0
 (optional=templinst)_ZN4llvm15callDefaultCtorIN5SPIRV18PreprocessMetadataEEEPNS_4PassEv@Base 0
 (optional=templinst)_ZN4llvm15callDefaultCtorIN5SPIRV19SPIRVLowerConstExprEEEPNS_4PassEv@Base 0
 (optional=templinst)_ZN4llvm15callDefaultCtorIN5SPIRV19SPIRVRegularizeLLVMEEEPNS_4PassEv@Base 0
 (optional=templinst)_ZN4llvm15callDefaultCtorIN5SPIRV20SPIRVLowerSPIRBlocksEEEPNS_4PassEv@Base 0
 (optional=templinst)_ZN4llvm15callDefaultCtorIN5SPIRV26SPIRVLowerSaddWithOverflowEEEPNS_4PassEv@Base 0
 (optional=templinst)_ZN4llvm16dyn_cast_or_nullINS_25OverflowingBinaryOperatorENS_5ValueEEENS_10cast_rettyIT_PT0_E8ret_typeES6_@Base 0
 (optional=templinst)_ZN4llvm16dyn_cast_or_nullINS_8FunctionENS_5ValueEEENS_10cast_rettyIT_PT0_E8ret_typeES6_@Base 0
 _ZN4llvm16getSpecConstInfoERSiRSt6vectorISt4pairIjjESaIS3_EE@Base 0
 _ZN4llvm17GetElementPtrInst16getGEPReturnTypeEPNS_4TypeEPNS_5ValueENS_8ArrayRefIS4_EE@Base 0
 _ZN4llvm17GetElementPtrInst6CreateEPNS_4TypeEPNS_5ValueENS_8ArrayRefIS4_EERKNS_5TwineEPNS_10BasicBlockE@Base 0
 _ZN4llvm17GetElementPtrInstC1EPNS_4TypeEPNS_5ValueENS_8ArrayRefIS4_EEjRKNS_5TwineEPNS_11InstructionE@Base 0
 _ZN4llvm17GetElementPtrInstC2EPNS_4TypeEPNS_5ValueENS_8ArrayRefIS4_EEjRKNS_5TwineEPNS_11InstructionE@Base 0
 _ZN4llvm17InsertElementInst6CreateEPNS_5ValueES2_S2_RKNS_5TwineEPNS_10BasicBlockE@Base 0
 (optional=templinst)_ZN4llvm17bitfields_details4ImplINS_8Bitfield7ElementIjLj2ELj10ELj1023EEEtE6updateERtj@Base 0
 _ZN4llvm17createLLVMToSPIRVEPN5SPIRV11SPIRVModuleE@Base 0
 _ZN4llvm18ExtractElementInst6CreateEPNS_5ValueES2_RKNS_5TwineEPNS_10BasicBlockE@Base 0
 (optional=templinst)_ZN4llvm18ValueMapCallbackVHIPKNS_5ValueENS_14WeakTrackingVHENS_14ValueMapConfigIS3_NS_3sys10SmartMutexILb0EEEEEE19allUsesReplacedWithEPS1_@Base 0
 (optional=templinst)_ZN4llvm18ValueMapCallbackVHIPKNS_5ValueENS_14WeakTrackingVHENS_14ValueMapConfigIS3_NS_3sys10SmartMutexILb0EEEEEE7deletedEv@Base 0
 _ZN4llvm18convertSpirvToLLVMERNS_11LLVMContextERN5SPIRV11SPIRVModuleERKNS2_14TranslatorOptsERNSt7__cxx1112basic_stringIcSt11char_traitsIcESaIcEEE@Base 0
 _ZN4llvm18convertSpirvToLLVMERNS_11LLVMContextERN5SPIRV11SPIRVModuleERNSt7__cxx1112basic_stringIcSt11char_traitsIcESaIcEEE@Base 0
 _ZN4llvm18createOCL20ToSPIRVEv@Base 0
 _ZN4llvm18createOCL21ToSPIRVEv@Base 0
 _ZN4llvm18createSPIRVToOCL12Ev@Base 0
 _ZN4llvm18createSPIRVToOCL20Ev@Base 0
 _ZN4llvm19mangleOpenClBuiltinERKNSt7__cxx1112basic_stringIcSt11char_traitsIcESaIcEEENS_8ArrayRefIPNS_4TypeEEERS5_@Base 0
 (optional=templinst|subst)_ZN4llvm20BumpPtrAllocatorImplINS_15MallocAllocatorEL{size_t}4096EL{size_t}4096EL{size_t}128EE5ResetEv@Base 0
 _ZN4llvm20createOCLTypeToSPIRVEv@Base 0
 _ZN4llvm20createSPIRVLowerBoolEv@Base 0
 _ZN4llvm21createSPIRVWriterPassERSo@Base 0
 _ZN4llvm21createSPIRVWriterPassERSoRKN5SPIRV14TranslatorOptsE@Base 0
 _ZN4llvm22regularizeLlvmForSpirvEPNS_6ModuleERNSt7__cxx1112basic_stringIcSt11char_traitsIcESaIcEEE@Base 0
 _ZN4llvm22regularizeLlvmForSpirvEPNS_6ModuleERNSt7__cxx1112basic_stringIcSt11char_traitsIcESaIcEEERKN5SPIRV14TranslatorOptsE@Base 0
 (optional=templinst|subst)_ZN4llvm23SmallVectorTemplateBaseINSt7__cxx1112basic_stringIcSt11char_traitsIcESaIcEEELb0EE4growE{size_t}@Base 0
 (optional=templinst)_ZN4llvm23SmallVectorTemplateBaseIPNS_4TypeELb1EE9push_backERKS2_@Base 0
 (optional=templinst)_ZN4llvm23SmallVectorTemplateBaseIPNS_5ValueELb1EE9push_backERKS2_@Base 0
 _ZN4llvm23createSPIRVLowerMemmoveEv@Base 0
 _ZN4llvm24createPreprocessMetadataEv@Base 0
 _ZN4llvm25createSPIRVLowerConstExprEv@Base 0
 _ZN4llvm25createSPIRVLowerOCLBlocksEv@Base 0
 _ZN4llvm25createSPIRVRegularizeLLVMEv@Base 0
 _ZN4llvm25initializeLLVMToSPIRVPassERNS_12PassRegistryE@Base 0
 _ZN4llvm26createSPIRVBIsLoweringPassERNS_6ModuleEN5SPIRV17BIsRepresentationE@Base 0
 _ZN4llvm26createSPIRVLowerSPIRBlocksEv@Base 0
 _ZN4llvm26initializeOCL20ToSPIRVPassERNS_12PassRegistryE@Base 0
 _ZN4llvm26initializeOCL21ToSPIRVPassERNS_12PassRegistryE@Base 0
 _ZN4llvm26initializeSPIRVToOCL12PassERNS_12PassRegistryE@Base 0
 _ZN4llvm26initializeSPIRVToOCL20PassERNS_12PassRegistryE@Base 0
 _ZN4llvm28initializeOCLTypeToSPIRVPassERNS_12PassRegistryE@Base 0
 _ZN4llvm28initializeSPIRVLowerBoolPassERNS_12PassRegistryE@Base 0
 (optional=templinst)_ZN4llvm2cl3optIbLb0ENS0_6parserIbEEED0Ev@Base 0
 (optional=templinst)_ZN4llvm2cl3optIbLb0ENS0_6parserIbEEED1Ev@Base 0
 (optional=templinst)_ZN4llvm2cl3optIbLb0ENS0_6parserIbEEED2Ev@Base 0
 (optional=templinst)_ZN4llvm2cl3optIbLb1ENS0_6parserIbEEE10setDefaultEv@Base 0
 (optional=templinst)_ZN4llvm2cl3optIbLb1ENS0_6parserIbEEE16handleOccurrenceEjNS_9StringRefES5_@Base 0
 (optional=templinst)_ZN4llvm2cl3optIbLb1ENS0_6parserIbEEE19getExtraOptionNamesERNS_15SmallVectorImplINS_9StringRefEEE@Base 0
 (optional=templinst)_ZN4llvm2cl3optIbLb1ENS0_6parserIbEEED0Ev@Base 0
 (optional=templinst)_ZN4llvm2cl3optIbLb1ENS0_6parserIbEEED1Ev@Base 0
 (optional=templinst)_ZN4llvm2cl3optIbLb1ENS0_6parserIbEEED2Ev@Base 0
 _ZN4llvm31initializeSPIRVLowerMemmovePassERNS_12PassRegistryE@Base 0
 _ZN4llvm32createSPIRVLowerSaddWithOverflowEv@Base 0
 _ZN4llvm32initializePreprocessMetadataPassERNS_12PassRegistryE@Base 0
 _ZN4llvm33initializeSPIRVLowerConstExprPassERNS_12PassRegistryE@Base 0
 _ZN4llvm33initializeSPIRVLowerOCLBlocksPassERNS_12PassRegistryE@Base 0
 _ZN4llvm33initializeSPIRVRegularizeLLVMPassERNS_12PassRegistryE@Base 0
 _ZN4llvm34initializeSPIRVLowerSPIRBlocksPassERNS_12PassRegistryE@Base 0
 _ZN4llvm40initializeSPIRVLowerSaddWithOverflowPassERNS_12PassRegistryE@Base 0
 _ZN4llvm4Pass14doFinalizationERNS_6ModuleE@Base 0
 _ZN4llvm4Pass16doInitializationERNS_6ModuleE@Base 0
 _ZN4llvm4User17dropAllReferencesEv@Base 0
 (optional=templinst)_ZN4llvm4castINS_10BasicBlockENS_5ValueEEENS_10cast_rettyIT_PT0_E8ret_typeES6_@Base 0
 (optional=templinst)_ZN4llvm4castINS_10StructTypeENS_4TypeEEENS_10cast_rettyIT_PT0_E8ret_typeES6_@Base 0
 (optional=templinst)_ZN4llvm4castINS_10VectorTypeENS_4TypeEEENS_10cast_rettyIT_PT0_E8ret_typeES6_@Base 0
 (optional=templinst)_ZN4llvm4castINS_11InstructionEKNS_5ValueEEENS_10cast_rettyIT_PT0_E8ret_typeES7_@Base 0
 (optional=templinst)_ZN4llvm4castINS_12FunctionTypeENS_4TypeEEENS_10cast_rettyIT_PT0_E8ret_typeES6_@Base 0
 (optional=templinst)_ZN4llvm4castINS_9ArrayTypeEKNS_4TypeEEENS_10cast_rettyIT_PT0_E8ret_typeES7_@Base 0
 (optional=templinst)_ZN4llvm4castINS_9ArrayTypeENS_4TypeEEENS_10cast_rettyIT_PT0_E8ret_typeES6_@Base 0
 (subst)_ZN4llvm5APIntC1Ej{uint64_t}b@Base 0
 (subst)_ZN4llvm5APIntC2Ej{uint64_t}b@Base 0
 _ZN4llvm5APIntD1Ev@Base 0
 _ZN4llvm5APIntD2Ev@Base 0
 (subst)_ZN4llvm5AlignC1E{uint64_t}@Base 0
 (subst)_ZN4llvm5AlignC2E{uint64_t}@Base 0
 _ZN4llvm5TwineC1EPKc@Base 0
 _ZN4llvm5TwineC1ERKNS_9StringRefE@Base 0
 _ZN4llvm5TwineC1ERKNSt7__cxx1112basic_stringIcSt11char_traitsIcESaIcEEE@Base 0
 _ZN4llvm5TwineC2EPKc@Base 0
 _ZN4llvm5TwineC2ERKNS_9StringRefE@Base 0
 _ZN4llvm5TwineC2ERKNSt7__cxx1112basic_stringIcSt11char_traitsIcESaIcEEE@Base 0
 _ZN4llvm6MDNode3getERNS_11LLVMContextENS_8ArrayRefIPNS_8MetadataEEE@Base 0
 _ZN4llvm7APFloat7StorageD1Ev@Base 0
 _ZN4llvm7APFloat7StorageD2Ev@Base 0
 _ZN4llvm8CallBase17setCalledFunctionEPNS_8FunctionE@Base 0
 (arch=powerpc ppc64 s390x sparc64)_ZN4llvm8CallBase7arg_endEv@Base 0
 _ZN4llvm8CallInst6CreateEPNS_12FunctionTypeEPNS_5ValueENS_8ArrayRefIS4_EERKNS_5TwineEPNS_10BasicBlockE@Base 0
 (optional=templinst)_ZN4llvm8DenseMapINS_18ValueMapCallbackVHIPKNS_5ValueENS_14WeakTrackingVHENS_14ValueMapConfigIS4_NS_3sys10SmartMutexILb0EEEEEEES5_NS_12DenseMapInfoISB_EENS_6detail12DenseMapPairISB_S5_EEE4growEj@Base 0
 (optional=templinst)_ZN4llvm8DenseMapIPN5SPIRV10SPIRVValueEPNS_5ValueENS_12DenseMapInfoIS3_EENS_6detail12DenseMapPairIS3_S5_EEE4growEj@Base 0
 (optional=templinst)_ZN4llvm8DenseMapIPN5SPIRV13SPIRVFunctionEPNS_8FunctionENS_12DenseMapInfoIS3_EENS_6detail12DenseMapPairIS3_S5_EEE4growEj@Base 0
 (optional=templinst)_ZN4llvm8DenseMapIPN5SPIRV9SPIRVTypeEPNS_4TypeENS_12DenseMapInfoIS3_EENS_6detail12DenseMapPairIS3_S5_EEE4growEj@Base 0
 (optional=templinst)_ZN4llvm8DenseMapIPNS_14GlobalVariableEN3spv7BuiltInENS_12DenseMapInfoIS2_EENS_6detail12DenseMapPairIS2_S4_EEE4growEj@Base 0
 (optional=templinst)_ZN4llvm8DenseMapIPNS_4TypeEPN5SPIRV9SPIRVTypeENS_12DenseMapInfoIS2_EENS_6detail12DenseMapPairIS2_S5_EEE4growEj@Base 0
 (optional=templinst)_ZN4llvm8DenseMapIPNS_5ValueEPN5SPIRV10SPIRVValueENS_12DenseMapInfoIS2_EENS_6detail12DenseMapPairIS2_S5_EEE4growEj@Base 0
 (optional=templinst)_ZN4llvm8DenseMapIPNS_6MDNodeEjNS_12DenseMapInfoIS2_EENS_6detail12DenseMapPairIS2_jEEE4growEj@Base 0
 (optional=templinst)_ZN4llvm8DenseMapIPNS_8FunctionEN5SPIRV11LLVMToSPIRV10FPContractENS_12DenseMapInfoIS2_EENS_6detail12DenseMapPairIS2_S5_EEE4growEj@Base 0
 (optional=templinst)_ZN4llvm8dyn_castINS_10AllocaInstENS_5ValueEEENS_10cast_rettyIT_PT0_E8ret_typeES6_@Base 0
 (optional=templinst)_ZN4llvm8dyn_castINS_10BasicBlockENS_5ValueEEENS_10cast_rettyIT_PT0_E8ret_typeES6_@Base 0
 (optional=templinst)_ZN4llvm8dyn_castINS_10BranchInstENS_5ValueEEENS_10cast_rettyIT_PT0_E8ret_typeES6_@Base 0
 (optional=templinst)_ZN4llvm8dyn_castINS_10ReturnInstENS_5ValueEEENS_10cast_rettyIT_PT0_E8ret_typeES6_@Base 0
 (optional=templinst)_ZN4llvm8dyn_castINS_10SelectInstENS_5ValueEEENS_10cast_rettyIT_PT0_E8ret_typeES6_@Base 0
 (optional=templinst)_ZN4llvm8dyn_castINS_10StructTypeENS_4TypeEEENS_10cast_rettyIT_PT0_E8ret_typeES6_@Base 0
 (optional=templinst)_ZN4llvm8dyn_castINS_10SwitchInstENS_5ValueEEENS_10cast_rettyIT_PT0_E8ret_typeES6_@Base 0
 (optional=templinst)_ZN4llvm8dyn_castINS_11ConstantIntENS_5ValueEEENS_10cast_rettyIT_PT0_E8ret_typeES6_@Base 0
 (optional=templinst|arch=armel armhf hurd-i386 i386)_ZN4llvm8dyn_castINS_11PointerTypeENS_4TypeEEENS_10cast_rettyIT_PT0_E8ret_typeES6_@Base 0
 (optional=templinst)_ZN4llvm8dyn_castINS_13AtomicRMWInstENS_5ValueEEENS_10cast_rettyIT_PT0_E8ret_typeES6_@Base 0
 (optional=templinst)_ZN4llvm8dyn_castINS_13IntrinsicInstENS_4UserEEENS_10cast_rettyIT_PT0_E8ret_typeES6_@Base 0
 (optional=templinst)_ZN4llvm8dyn_castINS_13IntrinsicInstENS_5ValueEEENS_10cast_rettyIT_PT0_E8ret_typeES6_@Base 0
 (optional=templinst)_ZN4llvm8dyn_castINS_14BinaryOperatorENS_5ValueEEENS_10cast_rettyIT_PT0_E8ret_typeES6_@Base 0
 (optional=templinst)_ZN4llvm8dyn_castINS_15InsertValueInstENS_5ValueEEENS_10cast_rettyIT_PT0_E8ret_typeES6_@Base 0
 (optional=templinst)_ZN4llvm8dyn_castINS_15UnreachableInstENS_5ValueEEENS_10cast_rettyIT_PT0_E8ret_typeES6_@Base 0
 (optional=templinst)_ZN4llvm8dyn_castINS_16ExtractValueInstENS_5ValueEEENS_10cast_rettyIT_PT0_E8ret_typeES6_@Base 0
 (optional=templinst)_ZN4llvm8dyn_castINS_16UnaryInstructionENS_5ValueEEENS_10cast_rettyIT_PT0_E8ret_typeES6_@Base 0
 (optional=templinst)_ZN4llvm8dyn_castINS_17GetElementPtrInstENS_5ValueEEENS_10cast_rettyIT_PT0_E8ret_typeES6_@Base 0
 (optional=templinst)_ZN4llvm8dyn_castINS_17InsertElementInstENS_5ValueEEENS_10cast_rettyIT_PT0_E8ret_typeES6_@Base 0
 (optional=templinst)_ZN4llvm8dyn_castINS_17ShuffleVectorInstENS_5ValueEEENS_10cast_rettyIT_PT0_E8ret_typeES6_@Base 0
 (optional=templinst)_ZN4llvm8dyn_castINS_18ExtractElementInstENS_5ValueEEENS_10cast_rettyIT_PT0_E8ret_typeES6_@Base 0
 (optional=templinst)_ZN4llvm8dyn_castINS_7CmpInstENS_5ValueEEENS_10cast_rettyIT_PT0_E8ret_typeES6_@Base 0
 (optional=templinst)_ZN4llvm8dyn_castINS_7PHINodeENS_5ValueEEENS_10cast_rettyIT_PT0_E8ret_typeES6_@Base 0
 (optional=templinst)_ZN4llvm8dyn_castINS_8CallInstENS_5ValueEEENS_10cast_rettyIT_PT0_E8ret_typeES6_@Base 0
 (optional=templinst)_ZN4llvm8dyn_castINS_8ConstantENS_5ValueEEENS_10cast_rettyIT_PT0_E8ret_typeES6_@Base 0
 (optional=templinst)_ZN4llvm8dyn_castINS_8LoadInstENS_5ValueEEENS_10cast_rettyIT_PT0_E8ret_typeES6_@Base 0
 (optional=templinst)_ZN4llvm8dyn_castINS_9ArrayTypeENS_4TypeEEENS_10cast_rettyIT_PT0_E8ret_typeES6_@Base 0
 (optional=templinst)_ZN4llvm9IRBuilderINS_14ConstantFolderENS_24IRBuilderDefaultInserterEEC1EPNS_10BasicBlockEPNS_6MDNodeENS_8ArrayRefINS_17OperandBundleDefTIPNS_5ValueEEEEE@Base 0
 (optional=templinst)_ZN4llvm9IRBuilderINS_14ConstantFolderENS_24IRBuilderDefaultInserterEEC2EPNS_10BasicBlockEPNS_6MDNodeENS_8ArrayRefINS_17OperandBundleDefTIPNS_5ValueEEEEE@Base 0
 (optional=templinst)_ZN4llvm9IRBuilderINS_14ConstantFolderENS_24IRBuilderDefaultInserterEED1Ev@Base 0
 (optional=templinst)_ZN4llvm9IRBuilderINS_14ConstantFolderENS_24IRBuilderDefaultInserterEED2Ev@Base 0
 _ZN4llvm9readSpirvERNS_11LLVMContextERKN5SPIRV14TranslatorOptsERSiRPNS_6ModuleERNSt7__cxx1112basic_stringIcSt11char_traitsIcESaIcEEE@Base 0
 _ZN4llvm9readSpirvERNS_11LLVMContextERSiRPNS_6ModuleERNSt7__cxx1112basic_stringIcSt11char_traitsIcESaIcEEE@Base 0
 _ZN4llvmneENS_9StringRefES0_@Base 0
 _ZN5SPIRV10EraseOCLMDE@Base 0
 _ZN5SPIRV10SPIRVEntry10getDecoderERSi@Base 0
 _ZN5SPIRV10SPIRVEntry11addDecorateEN3spv10DecorationE@Base 0
 _ZN5SPIRV10SPIRVEntry11addDecorateEN3spv10DecorationEj@Base 0
 _ZN5SPIRV10SPIRVEntry11addDecorateEPNS_13SPIRVDecorateE@Base 0
 _ZN5SPIRV10SPIRVEntry12createUniqueEN3spv2OpE@Base 0
 _ZN5SPIRV10SPIRVEntry12createUniqueENS_19SPIRVExtInstSetKindEj@Base 0
 _ZN5SPIRV10SPIRVEntry12setWordCountEj@Base 0
 _ZN5SPIRV10SPIRVEntry13eraseDecorateEN3spv10DecorationE@Base 0
 _ZN5SPIRV10SPIRVEntry13takeDecoratesEPS0_@Base 0
 _ZN5SPIRV10SPIRVEntry14setLinkageTypeEN3spv11LinkageTypeE@Base 0
 _ZN5SPIRV10SPIRVEntry15takeAnnotationsEPNS_12SPIRVForwardE@Base 0
 _ZN5SPIRV10SPIRVEntry17addMemberDecorateEPNS_19SPIRVMemberDecorateE@Base 0
 _ZN5SPIRV10SPIRVEntry17addMemberDecorateEjN3spv10DecorationE@Base 0
 _ZN5SPIRV10SPIRVEntry17addMemberDecorateEjN3spv10DecorationEj@Base 0
 _ZN5SPIRV10SPIRVEntry19eraseMemberDecorateEjN3spv10DecorationE@Base 0
 _ZN5SPIRV10SPIRVEntry19takeMemberDecoratesEPS0_@Base 0
 _ZN5SPIRV10SPIRVEntry6createEN3spv2OpE@Base 0
 _ZN5SPIRV10SPIRVEntry6decodeERSi@Base 0
 _ZN5SPIRV10SPIRVEntry7setLineERKSt10shared_ptrIKNS_9SPIRVLineEE@Base 0
 _ZN5SPIRV10SPIRVEntry7setNameERKNSt7__cxx1112basic_stringIcSt11char_traitsIcESaIcEEE@Base 0
 _ZN5SPIRV10SPIRVEntry8setScopeEPS0_@Base 0
 _ZN5SPIRV10SPIRVEntry9setModuleEPNS_11SPIRVModuleE@Base 0
 _ZN5SPIRV10SPIRVEntryD0Ev@Base 0
 _ZN5SPIRV10SPIRVEntryD1Ev@Base 0
 _ZN5SPIRV10SPIRVEntryD2Ev@Base 0
 _ZN5SPIRV10SPIRVFSMod11getOperandsEv@Base 0
 _ZN5SPIRV10SPIRVFSMod12setWordCountEj@Base 0
 _ZN5SPIRV10SPIRVFSMod6decodeERSi@Base 0
 _ZN5SPIRV10SPIRVFSModD0Ev@Base 0
 _ZN5SPIRV10SPIRVFSModD1Ev@Base 0
 _ZN5SPIRV10SPIRVFSModD2Ev@Base 0
 _ZN5SPIRV10SPIRVStore12setWordCountEj@Base 0
 _ZN5SPIRV10SPIRVStore6decodeERSi@Base 0
 _ZN5SPIRV10SPIRVStoreD0Ev@Base 0
 _ZN5SPIRV10SPIRVStoreD1Ev@Base 0
 _ZN5SPIRV10SPIRVStoreD2Ev@Base 0
 _ZN5SPIRV10SPIRVToOCL13visitCallInstERN4llvm8CallInstE@Base 0
 _ZN5SPIRV10SPIRVToOCL13visitCastInstERN4llvm8CastInstE@Base 0
 _ZN5SPIRV10SPIRVToOCL20getBallotBuiltinNameB5cxx11EPN4llvm8CallInstEN3spv2OpE@Base 0
 _ZN5SPIRV10SPIRVToOCL21getGroupBuiltinPrefixB5cxx11EPN4llvm8CallInstE@Base 0
 _ZN5SPIRV10SPIRVToOCL21visitCallSPIRVBuiltinEPN4llvm8CallInstEN3spv2OpE@Base 0
 _ZN5SPIRV10SPIRVToOCL23groupOCToOCLBuiltinNameB5cxx11EPN4llvm8CallInstEN3spv2OpE@Base 0
 _ZN5SPIRV10SPIRVToOCL25visitCallSPIRVPipeBuiltinEPN4llvm8CallInstEN3spv2OpE@Base 0
 _ZN5SPIRV10SPIRVToOCL26visitCallSPIRVGroupBuiltinEPN4llvm8CallInstEN3spv2OpE@Base 0
 _ZN5SPIRV10SPIRVToOCL28visitCallSPRIVImageQuerySizeEPN4llvm8CallInstE@Base 0
 _ZN5SPIRV10SPIRVToOCL31getUniformArithmeticBuiltinNameB5cxx11EPN4llvm8CallInstEN3spv2OpE@Base 0
 _ZN5SPIRV10SPIRVToOCL34getNonUniformArithmeticBuiltinNameB5cxx11EPN4llvm8CallInstEN3spv2OpE@Base 0
 _ZN5SPIRV10SPIRVToOCL36visitCallSPIRVImageMediaBlockBuiltinEPN4llvm8CallInstEN3spv2OpE@Base 0
 _ZN5SPIRV10SPIRVUnaryD0Ev@Base 0
 _ZN5SPIRV10SPIRVUnaryD1Ev@Base 0
 _ZN5SPIRV10SPIRVUnaryD2Ev@Base 0
 _ZN5SPIRV10SPIRVUndefD0Ev@Base 0
 _ZN5SPIRV10SPIRVUndefD1Ev@Base 0
 _ZN5SPIRV10SPIRVUndefD2Ev@Base 0
 _ZN5SPIRV10SPIRVValue11setVolatileEb@Base 0
 _ZN5SPIRV10SPIRVValue12setAlignmentEj@Base 0
 _ZN5SPIRV10SPIRVValue15setNoSignedWrapEb@Base 0
 _ZN5SPIRV10SPIRVValue17setFPFastMathModeEj@Base 0
 _ZN5SPIRV10SPIRVValue17setNoUnsignedWrapEb@Base 0
 _ZN5SPIRV10SPIRVValueD0Ev@Base 0
 _ZN5SPIRV10SPIRVValueD1Ev@Base 0
 _ZN5SPIRV10SPIRVValueD2Ev@Base 0
 _ZN5SPIRV10getFloat32EPN4llvm6ModuleEf@Base 0
 _ZN5SPIRV10getPostfixB5cxx11EN3spv10DecorationEj@Base 0
 _ZN5SPIRV10makeVectorEPN4llvm11InstructionERSt6vectorIPNS0_5ValueESaIS5_EESt4pairIN9__gnu_cxx17__normal_iteratorIPS5_S7_EESD_E@Base 0
 (optional=templinst)_ZN5SPIRV10mapBitMaskINS_8SPIRVMapIN7OCLUtil15OCLMemFenceKindEN3spv19MemorySemanticsMaskEvEEEEjj@Base 0
 _ZN5SPIRV10removeCastEPN4llvm5ValueE@Base 0
 _ZN5SPIRV11LLVMToSPIRV10transAlignEPN4llvm5ValueEPNS_10SPIRVValueE@Base 0
 _ZN5SPIRV11LLVMToSPIRV10transValueEPN4llvm5ValueEPNS_15SPIRVBasicBlockEbNS0_13FuncTransModeE@Base 0
 _ZN5SPIRV11LLVMToSPIRV10transValueERKSt6vectorIPN4llvm5ValueESaIS4_EEPNS_15SPIRVBasicBlockE@Base 0
 _ZN5SPIRV11LLVMToSPIRV10transValueERKSt6vectorIPN4llvm5ValueESaIS4_EEPNS_15SPIRVBasicBlockEPNS_10SPIRVEntryE@Base 0
 _ZN5SPIRV11LLVMToSPIRV11runOnModuleERN4llvm6ModuleE@Base 0
 _ZN5SPIRV11LLVMToSPIRV12getSizetTypeEj@Base 0
 _ZN5SPIRV11LLVMToSPIRV12transCmpInstEPN4llvm7CmpInstEPNS_15SPIRVBasicBlockE@Base 0
 _ZN5SPIRV11LLVMToSPIRV13getFPContractEPN4llvm8FunctionE@Base 0
 _ZN5SPIRV11LLVMToSPIRV13transAsmINTELEPN4llvm9InlineAsmE@Base 0
 _ZN5SPIRV11LLVMToSPIRV13transCallInstEPN4llvm8CallInstEPNS_15SPIRVBasicBlockE@Base 0
 _ZN5SPIRV11LLVMToSPIRV13transConstantEPN4llvm5ValueE@Base 0
 _ZN5SPIRV11LLVMToSPIRV13transFunctionEPN4llvm8FunctionE@Base 0
 _ZN5SPIRV11LLVMToSPIRV13transMetadataEv@Base 0
 _ZN5SPIRV11LLVMToSPIRV14getLoopControlEPKN4llvm10BranchInstERSt6vectorIjSaIjEE@Base 0
 _ZN5SPIRV11LLVMToSPIRV14joinFPContractEPN4llvm8FunctionENS0_10FPContractE@Base 0
 _ZN5SPIRV11LLVMToSPIRV14transArgumentsEPN4llvm8CallInstEPNS_15SPIRVBasicBlockEPNS_10SPIRVEntryE@Base 0
 _ZN5SPIRV11LLVMToSPIRV14transExtensionEv@Base 0
 _ZN5SPIRV11LLVMToSPIRV14transUnaryInstEPN4llvm16UnaryInstructionEPNS_15SPIRVBasicBlockE@Base 0
 _ZN5SPIRV11LLVMToSPIRV15transBinaryInstEPN4llvm14BinaryOperatorEPNS_15SPIRVBasicBlockE@Base 0
 _ZN5SPIRV11LLVMToSPIRV15transBoolOpCodeEPNS_10SPIRVValueEN3spv2OpE@Base 0
 _ZN5SPIRV11LLVMToSPIRV15transBuiltinSetEv@Base 0
 _ZN5SPIRV11LLVMToSPIRV15transDecorationEPN4llvm5ValueEPNS_10SPIRVValueE@Base 0
 _ZN5SPIRV11LLVMToSPIRV15transFPContractEv@Base 0
 _ZN5SPIRV11LLVMToSPIRV16isKnownIntrinsicEj@Base 0
 _ZN5SPIRV11LLVMToSPIRV16transLinkageTypeEPKN4llvm11GlobalValueE@Base 0
 _ZN5SPIRV11LLVMToSPIRV16transOCLMetadataEv@Base 0
 _ZN5SPIRV11LLVMToSPIRV17mutateFuncArgTypeERKSt3mapIjPN4llvm4TypeESt4lessIjESaISt4pairIKjS4_EEEPNS2_8FunctionE@Base 0
 _ZN5SPIRV11LLVMToSPIRV17transAsmCallINTELEPN4llvm8CallInstEPNS_15SPIRVBasicBlockE@Base 0
 _ZN5SPIRV11LLVMToSPIRV17transFunctionDeclEPN4llvm8FunctionE@Base 0
 _ZN5SPIRV11LLVMToSPIRV18transBuiltinToInstEN4llvm9StringRefEPNS1_8CallInstEPNS_15SPIRVBasicBlockE@Base 0
 _ZN5SPIRV11LLVMToSPIRV18transExecutionModeEv@Base 0
 _ZN5SPIRV11LLVMToSPIRV18transIntrinsicInstEPN4llvm13IntrinsicInstEPNS_15SPIRVBasicBlockE@Base 0
 _ZN5SPIRV11LLVMToSPIRV19transAddressingModeEv@Base 0
 _ZN5SPIRV11LLVMToSPIRV19transDirectCallInstEPN4llvm8CallInstEPNS_15SPIRVBasicBlockE@Base 0
 _ZN5SPIRV11LLVMToSPIRV19transSourceLanguageEv@Base 0
 _ZN5SPIRV11LLVMToSPIRV20isBuiltinTransToInstEPN4llvm8FunctionE@Base 0
 _ZN5SPIRV11LLVMToSPIRV20transGlobalVariablesEv@Base 0
 _ZN5SPIRV11LLVMToSPIRV20transSPIRVOpaqueTypeEPN4llvm4TypeE@Base 0
 _ZN5SPIRV11LLVMToSPIRV21transGlobalAnnotationEPN4llvm14GlobalVariableE@Base 0
 _ZN5SPIRV11LLVMToSPIRV21transIndirectCallInstEPN4llvm8CallInstEPNS_15SPIRVBasicBlockE@Base 0
 _ZN5SPIRV11LLVMToSPIRV22transBuiltinToConstantEN4llvm9StringRefEPNS1_8CallInstE@Base 0
 _ZN5SPIRV11LLVMToSPIRV23isBuiltinTransToExtInstEPN4llvm8FunctionEPNS_19SPIRVExtInstSetKindEPjPNS1_15SmallVectorImplINSt7__cxx1112basic_stringIcSt11char_traitsIcESaIcEEEEE@Base 0
 _ZN5SPIRV11LLVMToSPIRV23oclTransSpvcCastSamplerEPN4llvm8CallInstEPNS_15SPIRVBasicBlockE@Base 0
 _ZN5SPIRV11LLVMToSPIRV24transFunctionControlMaskEPN4llvm8FunctionE@Base 0
 _ZN5SPIRV11LLVMToSPIRV24transGlobalIOPipeStorageEPN4llvm14GlobalVariableEPNS1_6MDNodeE@Base 0
 _ZN5SPIRV11LLVMToSPIRV25fpContractUpdateRecursiveEPN4llvm8FunctionENS0_10FPContractE@Base 0
 _ZN5SPIRV11LLVMToSPIRV26transVectorComputeMetadataEPN4llvm8FunctionE@Base 0
 _ZN5SPIRV11LLVMToSPIRV27collectInputOutputVariablesEPNS_13SPIRVFunctionEPN4llvm8FunctionE@Base 0
 _ZN5SPIRV11LLVMToSPIRV27transValueWithoutDecorationEPN4llvm5ValueEPNS_15SPIRVBasicBlockEbNS0_13FuncTransModeE@Base 0
 _ZN5SPIRV11LLVMToSPIRV2IDE@Base 0
 _ZN5SPIRV11LLVMToSPIRV35oclGetMutatedArgumentTypesByBuiltinEPN4llvm12FunctionTypeERSt3mapIjPNS1_4TypeESt4lessIjESaISt4pairIKjS6_EEEPNS1_8FunctionE@Base 0
 _ZN5SPIRV11LLVMToSPIRV35transBuiltinToInstWithoutDecorationEN3spv2OpEPN4llvm8CallInstEPNS_15SPIRVBasicBlockE@Base 0
 _ZN5SPIRV11LLVMToSPIRV7mapTypeEPN4llvm4TypeEPNS_9SPIRVTypeE@Base 0
 _ZN5SPIRV11LLVMToSPIRV8isKernelEPN4llvm8FunctionE@Base 0
 _ZN5SPIRV11LLVMToSPIRV8mapValueEPN4llvm5ValueEPNS_10SPIRVValueE@Base 0
 _ZN5SPIRV11LLVMToSPIRV9dumpUsersEPN4llvm5ValueE@Base 0
 _ZN5SPIRV11LLVMToSPIRV9transTypeEPN4llvm4TypeE@Base 0
 _ZN5SPIRV11LLVMToSPIRV9translateEv@Base 0
 _ZN5SPIRV11LLVMToSPIRVC1EPNS_11SPIRVModuleE@Base 0
 _ZN5SPIRV11LLVMToSPIRVC2EPNS_11SPIRVModuleE@Base 0
 _ZN5SPIRV11LLVMToSPIRVD0Ev@Base 0
 _ZN5SPIRV11LLVMToSPIRVD1Ev@Base 0
 _ZN5SPIRV11LLVMToSPIRVD2Ev@Base 0
 _ZN5SPIRV11SPIRVBinaryD0Ev@Base 0
 _ZN5SPIRV11SPIRVBinaryD1Ev@Base 0
 _ZN5SPIRV11SPIRVBinaryD2Ev@Base 0
 _ZN5SPIRV11SPIRVBranch6decodeERSi@Base 0
 _ZN5SPIRV11SPIRVBranchD0Ev@Base 0
 _ZN5SPIRV11SPIRVBranchD1Ev@Base 0
 _ZN5SPIRV11SPIRVBranchD2Ev@Base 0
 _ZN5SPIRV11SPIRVModule17createSPIRVModuleERKNS_14TranslatorOptsE@Base 0
 _ZN5SPIRV11SPIRVModule17createSPIRVModuleEv@Base 0
 _ZN5SPIRV11SPIRVModule20setAutoAddCapabilityEb@Base 0
 _ZN5SPIRV11SPIRVModule20setAutoAddExtensionsEb@Base 0
 _ZN5SPIRV11SPIRVModule21setValidateCapabilityEb@Base 0
 _ZN5SPIRV11SPIRVModuleC1Ev@Base 0
 _ZN5SPIRV11SPIRVModuleC2Ev@Base 0
 _ZN5SPIRV11SPIRVModuleD0Ev@Base 0
 _ZN5SPIRV11SPIRVModuleD1Ev@Base 0
 _ZN5SPIRV11SPIRVModuleD2Ev@Base 0
 _ZN5SPIRV11SPIRVSelect6decodeERSi@Base 0
 _ZN5SPIRV11SPIRVSelectD0Ev@Base 0
 _ZN5SPIRV11SPIRVSelectD1Ev@Base 0
 _ZN5SPIRV11SPIRVSelectD2Ev@Base 0
 _ZN5SPIRV11SPIRVSource6decodeERSi@Base 0
 _ZN5SPIRV11SPIRVSourceD0Ev@Base 0
 _ZN5SPIRV11SPIRVSourceD1Ev@Base 0
 _ZN5SPIRV11SPIRVSourceD2Ev@Base 0
 _ZN5SPIRV11SPIRVString6decodeERSi@Base 0
 _ZN5SPIRV11SPIRVStringD0Ev@Base 0
 _ZN5SPIRV11SPIRVStringD1Ev@Base 0
 _ZN5SPIRV11SPIRVStringD2Ev@Base 0
 _ZN5SPIRV11SPIRVSwitch12setWordCountEj@Base 0
 _ZN5SPIRV11SPIRVSwitch6decodeERSi@Base 0
 _ZN5SPIRV11SPIRVSwitchC1EPNS_10SPIRVValueEPNS_15SPIRVBasicBlockERKSt6vectorISt4pairIS5_IjSaIjEES4_ESaIS9_EES4_@Base 0
 _ZN5SPIRV11SPIRVSwitchC2EPNS_10SPIRVValueEPNS_15SPIRVBasicBlockERKSt6vectorISt4pairIS5_IjSaIjEES4_ESaIS9_EES4_@Base 0
 _ZN5SPIRV11SPIRVSwitchD0Ev@Base 0
 _ZN5SPIRV11SPIRVSwitchD1Ev@Base 0
 _ZN5SPIRV11SPIRVSwitchD2Ev@Base 0
 _ZN5SPIRV11SPIRVToLLVM10transAlignEPNS_10SPIRVValueEPN4llvm5ValueE@Base 0
 _ZN5SPIRV11SPIRVToLLVM10transValueEPNS_10SPIRVValueEPN4llvm8FunctionEPNS3_10BasicBlockEb@Base 0
 _ZN5SPIRV11SPIRVToLLVM10transValueERKSt6vectorIPNS_10SPIRVValueESaIS3_EEPN4llvm8FunctionEPNS8_10BasicBlockE@Base 0
 _ZN5SPIRV11SPIRVToLLVM11getErrorLogEv@Base 0
 _ZN5SPIRV11SPIRVToLLVM11mapFunctionEPNS_13SPIRVFunctionEPN4llvm8FunctionE@Base 0
 _ZN5SPIRV11SPIRVToLLVM11transFPTypeEPNS_9SPIRVTypeE@Base 0
 _ZN5SPIRV11SPIRVToLLVM12transCmpInstEPNS_10SPIRVValueEPN4llvm10BasicBlockEPNS3_8FunctionE@Base 0
 _ZN5SPIRV11SPIRVToLLVM13transAsmINTELEPNS_13SPIRVAsmINTELE@Base 0
 _ZN5SPIRV11SPIRVToLLVM13transFunctionEPNS_13SPIRVFunctionE@Base 0
 _ZN5SPIRV11SPIRVToLLVM13transMetadataEv@Base 0
 _ZN5SPIRV11SPIRVToLLVM14postProcessOCLEv@Base 0
 _ZN5SPIRV11SPIRVToLLVM14setCallingConvEPN4llvm8CallInstE@Base 0
 _ZN5SPIRV11SPIRVToLLVM14transOCLAllAnyEPNS_16SPIRVInstructionEPN4llvm10BasicBlockE@Base 0
 _ZN5SPIRV11SPIRVToLLVM15transDecorationEPNS_10SPIRVValueEPN4llvm5ValueE@Base 0
 _ZN5SPIRV11SPIRVToLLVM15transTypeVectorERKSt6vectorIPNS_9SPIRVTypeESaIS3_EE@Base 0
 _ZN5SPIRV11SPIRVToLLVM15transVCTypeNameB5cxx11EPNS_27SPIRVTypeBufferSurfaceINTELE@Base 0
 _ZN5SPIRV11SPIRVToLLVM16transBlockInvokeEPNS_10SPIRVValueEPN4llvm10BasicBlockE@Base 0
 _ZN5SPIRV11SPIRVToLLVM16transConvertInstEPNS_10SPIRVValueEPN4llvm8FunctionEPNS3_10BasicBlockE@Base 0
 _ZN5SPIRV11SPIRVToLLVM16transDeviceEventEPNS_10SPIRVValueEPN4llvm8FunctionEPNS3_10BasicBlockE@Base 0
 _ZN5SPIRV11SPIRVToLLVM16transGeneratorMDEv@Base 0
 _ZN5SPIRV11SPIRVToLLVM16transLinkageTypeEPKNS_10SPIRVValueE@Base 0
 _ZN5SPIRV11SPIRVToLLVM16transOCLMetadataEPNS_13SPIRVFunctionE@Base 0
 _ZN5SPIRV11SPIRVToLLVM17getOCLBuiltinNameB5cxx11EPNS_16SPIRVInstructionE@Base 0
 _ZN5SPIRV11SPIRVToLLVM17transArbFloatInstEPNS_16SPIRVInstructionEPN4llvm10BasicBlockEb@Base 0
 _ZN5SPIRV11SPIRVToLLVM17transAsmCallINTELEPNS_17SPIRVAsmCallINTELEPN4llvm8FunctionEPNS3_10BasicBlockE@Base 0
 _ZN5SPIRV11SPIRVToLLVM18getTranslatedValueEPNS_10SPIRVValueE@Base 0
 _ZN5SPIRV11SPIRVToLLVM18transOCLRelationalEPNS_16SPIRVInstructionEPN4llvm10BasicBlockE@Base 0
 _ZN5SPIRV11SPIRVToLLVM18transSGSizeQueryBIEPNS_16SPIRVInstructionEPN4llvm10BasicBlockE@Base 0
 _ZN5SPIRV11SPIRVToLLVM18transWGSizeQueryBIEPNS_16SPIRVInstructionEPN4llvm10BasicBlockE@Base 0
 _ZN5SPIRV11SPIRVToLLVM19setAttrByCalledFuncEPN4llvm8CallInstE@Base 0
 (optional=templinst)_ZN5SPIRV11SPIRVToLLVM19setLLVMLoopMetadataINS_14SPIRVLoopMergeEEEvPKT_PKN4llvm4LoopE@Base 0
 (optional=templinst)_ZN5SPIRV11SPIRVToLLVM19setLLVMLoopMetadataINS_21SPIRVLoopControlINTELEEEvPKT_PKN4llvm4LoopE@Base 0
 _ZN5SPIRV11SPIRVToLLVM19transSourceLanguageEv@Base 0
 _ZN5SPIRV11SPIRVToLLVM20transAddressingModelEv@Base 0
 _ZN5SPIRV11SPIRVToLLVM20transBuiltinFromInstERKNSt7__cxx1112basic_stringIcSt11char_traitsIcESaIcEEEPNS_16SPIRVInstructionEPN4llvm10BasicBlockE@Base 0
 _ZN5SPIRV11SPIRVToLLVM20transEnqueueKernelBIEPNS_16SPIRVInstructionEPN4llvm10BasicBlockE@Base 0
 _ZN5SPIRV11SPIRVToLLVM20transOCLPipeTypeNameB5cxx11EPNS_13SPIRVTypePipeEbN3spv15AccessQualifierE@Base 0
 _ZN5SPIRV11SPIRVToLLVM20transSourceExtensionEv@Base 0
 _ZN5SPIRV11SPIRVToLLVM21transLLVMLoopMetadataEPKN4llvm8FunctionE@Base 0
 _ZN5SPIRV11SPIRVToLLVM21transOCLImageTypeNameB5cxx11EPNS_14SPIRVTypeImageE@Base 0
 _ZN5SPIRV11SPIRVToLLVM22isSPIRVBuiltinVariableEPN4llvm14GlobalVariableEPN3spv7BuiltInE@Base 0
 _ZN5SPIRV11SPIRVToLLVM22transGlobalAnnotationsEv@Base 0
 _ZN5SPIRV11SPIRVToLLVM22transTypeToOCLTypeNameB5cxx11EPNS_9SPIRVTypeEb@Base 0
 _ZN5SPIRV11SPIRVToLLVM23oclTransConstantSamplerEPNS_20SPIRVConstantSamplerEPN4llvm10BasicBlockE@Base 0
 _ZN5SPIRV11SPIRVToLLVM23postProcessOCLReadImageEPNS_16SPIRVInstructionEPN4llvm8CallInstERKNSt7__cxx1112basic_stringIcSt11char_traitsIcESaIcEEE@Base 0
 _ZN5SPIRV11SPIRVToLLVM23transFPContractMetadataEv@Base 0
 _ZN5SPIRV11SPIRVToLLVM23transOCLBuiltinFromInstEPNS_16SPIRVInstructionEPN4llvm10BasicBlockE@Base 0
 _ZN5SPIRV11SPIRVToLLVM23transOCLBuiltinPostprocEPNS_16SPIRVInstructionEPN4llvm8CallInstEPNS3_10BasicBlockERKNSt7__cxx1112basic_stringIcSt11char_traitsIcESaIcEEE@Base 0
 _ZN5SPIRV11SPIRVToLLVM23transOCLVectorLoadStoreERNSt7__cxx1112basic_stringIcSt11char_traitsIcESaIcEEERSt6vectorIjSaIjEE@Base 0
 _ZN5SPIRV11SPIRVToLLVM24getOCLConvertBuiltinNameB5cxx11EPNS_16SPIRVInstructionE@Base 0
 _ZN5SPIRV11SPIRVToLLVM24postProcessOCLWriteImageEPNS_16SPIRVInstructionEPN4llvm8CallInstERKNSt7__cxx1112basic_stringIcSt11char_traitsIcESaIcEEE@Base 0
 _ZN5SPIRV11SPIRVToLLVM24transNonTemporalMetadataEPN4llvm11InstructionE@Base 0
 _ZN5SPIRV11SPIRVToLLVM25getLifetimeStartIntrinsicEPN4llvm11InstructionE@Base 0
 _ZN5SPIRV11SPIRVToLLVM25transIntelFPGADecorationsEPNS_10SPIRVValueEPN4llvm5ValueE@Base 0
 _ZN5SPIRV11SPIRVToLLVM25transOCLKernelArgTypeNameEPNS_22SPIRVFunctionParameterE@Base 0
 _ZN5SPIRV11SPIRVToLLVM25transSPIRVBuiltinFromInstEPNS_16SPIRVInstructionEPN4llvm10BasicBlockE@Base 0
 _ZN5SPIRV11SPIRVToLLVM26getOCLGenericCastToPtrNameB5cxx11EPNS_16SPIRVInstructionE@Base 0
 _ZN5SPIRV11SPIRVToLLVM26postProcessOCLBuildNDRangeEPNS_16SPIRVInstructionEPN4llvm8CallInstERKNSt7__cxx1112basic_stringIcSt11char_traitsIcESaIcEEE@Base 0
 _ZN5SPIRV11SPIRVToLLVM26transOCLBuiltinFromExtInstEPNS_12SPIRVExtInstEPN4llvm10BasicBlockE@Base 0
 _ZN5SPIRV11SPIRVToLLVM26transVectorComputeMetadataEPNS_13SPIRVFunctionE@Base 0
 _ZN5SPIRV11SPIRVToLLVM27oclTransConstantPipeStorageEPNS_24SPIRVConstantPipeStorageE@Base 0
 _ZN5SPIRV11SPIRVToLLVM27transOCLBuiltinFromVariableEPN4llvm14GlobalVariableEN3spv7BuiltInE@Base 0
 _ZN5SPIRV11SPIRVToLLVM27transOCLPipeStorageTypeNameB5cxx11EPNS_20SPIRVTypePipeStorageE@Base 0
 _ZN5SPIRV11SPIRVToLLVM27transValueWithoutDecorationEPNS_10SPIRVValueEPN4llvm8FunctionEPNS3_10BasicBlockEb@Base 0
 _ZN5SPIRV11SPIRVToLLVM28transOCLSampledImageTypeNameB5cxx11EPNS_21SPIRVTypeSampledImageE@Base 0
 _ZN5SPIRV11SPIRVToLLVM28transShiftLogicalBitwiseInstEPNS_10SPIRVValueEPN4llvm10BasicBlockEPNS3_8FunctionE@Base 0
 _ZN5SPIRV11SPIRVToLLVM29expandOCLBuiltinWithScalarArgEPN4llvm8CallInstERKNSt7__cxx1112basic_stringIcSt11char_traitsIcESaIcEEE@Base 0
 _ZN5SPIRV11SPIRVToLLVM29transOCLBuiltinsFromVariablesEv@Base 0
 _ZN5SPIRV11SPIRVToLLVM30insertImageNameAccessQualifierEPNS_14SPIRVTypeImageERNSt7__cxx1112basic_stringIcSt11char_traitsIcESaIcEEE@Base 0
 _ZN5SPIRV11SPIRVToLLVM30transOCLBuiltinFromInstPreprocEPNS_16SPIRVInstructionERPN4llvm4TypeERSt6vectorIPNS_10SPIRVValueESaIS9_EE@Base 0
 _ZN5SPIRV11SPIRVToLLVM31transOCLPipeTypeAccessQualifierB5cxx11EPNS_13SPIRVTypePipeE@Base 0
 _ZN5SPIRV11SPIRVToLLVM32transOCLImageTypeAccessQualifierB5cxx11EPNS_14SPIRVTypeImageE@Base 0
 _ZN5SPIRV11SPIRVToLLVM33postProcessOCLBuiltinReturnStructEPN4llvm8FunctionE@Base 0
 _ZN5SPIRV11SPIRVToLLVM39postProcessOCLBuiltinWithArrayArgumentsEPN4llvm8FunctionENS1_9StringRefE@Base 0
 _ZN5SPIRV11SPIRVToLLVM7mapTypeEPNS_9SPIRVTypeEPN4llvm4TypeE@Base 0
 _ZN5SPIRV11SPIRVToLLVM7setNameEPN4llvm5ValueEPNS_10SPIRVValueE@Base 0
 _ZN5SPIRV11SPIRVToLLVM8mapValueEPNS_10SPIRVValueEPN4llvm5ValueE@Base 0
 _ZN5SPIRV11SPIRVToLLVM9transTypeEPNS_9SPIRVTypeEb@Base 0
 _ZN5SPIRV11SPIRVToLLVM9translateEv@Base 0
 _ZN5SPIRV11SPIRVToLLVMC1EPN4llvm6ModuleEPNS_11SPIRVModuleE@Base 0
 _ZN5SPIRV11SPIRVToLLVMC2EPN4llvm6ModuleEPNS_11SPIRVModuleE@Base 0
 _ZN5SPIRV11addCallInstEPN4llvm6ModuleENS0_9StringRefEPNS0_4TypeENS0_8ArrayRefIPNS0_5ValueEEEPNS0_13AttributeListEPNS0_11InstructionEPNS_21BuiltinFuncMangleInfoES3_b@Base 0
 _ZN5SPIRV11getArgAsIntEPN4llvm8CallInstEj@Base 0
 _ZN5SPIRV11hasArrayArgEPN4llvm8FunctionE@Base 0
 _ZN5SPIRV11isSPIRVTypeEPN4llvm4TypeENS0_9StringRefEPS3_@Base 0
 _ZN5SPIRV11isSpirvTextERKNSt7__cxx1112basic_stringIcSt11char_traitsIcESaIcEEE@Base 0
 _ZN5SPIRV11skipcommentERSi@Base 0
 _ZN5SPIRV12OCL20ToSPIRV11runOnModuleERN4llvm6ModuleE@Base 0
 _ZN5SPIRV12OCL20ToSPIRV12transBuiltinEPN4llvm8CallInstERN7OCLUtil19OCLBuiltinTransInfoE@Base 0
 _ZN5SPIRV12OCL20ToSPIRV12visitCallDotEPN4llvm8CallInstE@Base 0
 _ZN5SPIRV12OCL20ToSPIRV13visitCallInstERN4llvm8CallInstE@Base 0
 _ZN5SPIRV12OCL20ToSPIRV15visitCallAllAnyEN3spv2OpEPN4llvm8CallInstE@Base 0
 _ZN5SPIRV12OCL20ToSPIRV15visitCallToAddrEPN4llvm8CallInstENS1_9StringRefE@Base 0
 _ZN5SPIRV12OCL20ToSPIRV16visitCallBarrierEPN4llvm8CallInstE@Base 0
 _ZN5SPIRV12OCL20ToSPIRV16visitCallConvertEPN4llvm8CallInstENS1_9StringRefES4_@Base 0
 _ZN5SPIRV12OCL20ToSPIRV16visitCallNDRangeEPN4llvm8CallInstENS1_9StringRefE@Base 0
 _ZN5SPIRV12OCL20ToSPIRV17visitCallGetFenceEPN4llvm8CallInstENS1_9StringRefE@Base 0
 _ZN5SPIRV12OCL20ToSPIRV17visitCallMemFenceEPN4llvm8CallInstE@Base 0
 _ZN5SPIRV12OCL20ToSPIRV18transAtomicBuiltinEPN4llvm8CallInstERN7OCLUtil19OCLBuiltinTransInfoE@Base 0
 _ZN5SPIRV12OCL20ToSPIRV18transMemoryBarrierEPN4llvm8CallInstESt5tupleIJjN7OCLUtil15OCLMemOrderKindENS5_12OCLScopeKindEEE@Base 0
 _ZN5SPIRV12OCL20ToSPIRV18visitCallScalToVecEPN4llvm8CallInstENS1_9StringRefES4_@Base 0
 _ZN5SPIRV12OCL20ToSPIRV19eraseUselessConvertEPN4llvm8CallInstENS1_9StringRefES4_@Base 0
 _ZN5SPIRV12OCL20ToSPIRV19visitCallAtomicInitEPN4llvm8CallInstE@Base 0
 _ZN5SPIRV12OCL20ToSPIRV19visitCallRelationalEPN4llvm8CallInstENS1_9StringRefE@Base 0
 _ZN5SPIRV12OCL20ToSPIRV20visitCallAtomicCpp11EPN4llvm8CallInstENS1_9StringRefES4_@Base 0
 _ZN5SPIRV12OCL20ToSPIRV20visitCallKernelQueryEPN4llvm8CallInstENS1_9StringRefE@Base 0
 _ZN5SPIRV12OCL20ToSPIRV21visitCallAtomicLegacyEPN4llvm8CallInstENS1_9StringRefES4_@Base 0
 _ZN5SPIRV12OCL20ToSPIRV21visitCallGetImageSizeEPN4llvm8CallInstENS1_9StringRefE@Base 0
 _ZN5SPIRV12OCL20ToSPIRV21visitCallGroupBuiltinEPN4llvm8CallInstENS1_9StringRefE@Base 0
 _ZN5SPIRV12OCL20ToSPIRV21visitCallVecLoadStoreEPN4llvm8CallInstENS1_9StringRefES4_@Base 0
 _ZN5SPIRV12OCL20ToSPIRV22visitCallAtomicCmpXchgEPN4llvm8CallInstE@Base 0
 _ZN5SPIRV12OCL20ToSPIRV22visitCallBuiltinSimpleEPN4llvm8CallInstENS1_9StringRefES4_@Base 0
 _ZN5SPIRV12OCL20ToSPIRV22visitCallEnqueueKernelEPN4llvm8CallInstENS1_9StringRefE@Base 0
 _ZN5SPIRV12OCL20ToSPIRV22visitCallReadImageMSAAEPN4llvm8CallInstENS1_9StringRefE@Base 0
 _ZN5SPIRV12OCL20ToSPIRV23visitCallReadWriteImageEPN4llvm8CallInstENS1_9StringRefE@Base 0
 _ZN5SPIRV12OCL20ToSPIRV24visitCallGetImageChannelEPN4llvm8CallInstENS1_9StringRefEj@Base 0
 _ZN5SPIRV12OCL20ToSPIRV27visitCallAsyncWorkGroupCopyEPN4llvm8CallInstENS1_9StringRefE@Base 0
 _ZN5SPIRV12OCL20ToSPIRV27visitSubgroupAVCBuiltinCallEPN4llvm8CallInstENS1_9StringRefE@Base 0
 _ZN5SPIRV12OCL20ToSPIRV27visitSubgroupBlockReadINTELEPN4llvm8CallInstE@Base 0
 _ZN5SPIRV12OCL20ToSPIRV28visitCallAtomicWorkItemFenceEPN4llvm8CallInstE@Base 0
 _ZN5SPIRV12OCL20ToSPIRV28visitSubgroupBlockWriteINTELEPN4llvm8CallInstE@Base 0
 _ZN5SPIRV12OCL20ToSPIRV29visitCallReadImageWithSamplerEPN4llvm8CallInstENS1_9StringRefE@Base 0
 _ZN5SPIRV12OCL20ToSPIRV2IDE@Base 0
 _ZN5SPIRV12OCL20ToSPIRV32transWorkItemBuiltinsToVariablesEv@Base 0
 _ZN5SPIRV12OCL20ToSPIRV33visitSubgroupImageMediaBlockINTELEPN4llvm8CallInstENS1_9StringRefE@Base 0
 _ZN5SPIRV12OCL20ToSPIRV34visitSubgroupAVCWrapperBuiltinCallEPN4llvm8CallInstEN3spv2OpENS1_9StringRefE@Base 0
 _ZN5SPIRV12OCL20ToSPIRV38visitSubgroupAVCBuiltinCallWithSamplerEPN4llvm8CallInstENS1_9StringRefE@Base 0
 _ZN5SPIRV12OCL20ToSPIRVD0Ev@Base 0
 _ZN5SPIRV12OCL20ToSPIRVD1Ev@Base 0
 _ZN5SPIRV12OCL20ToSPIRVD2Ev@Base 0
 _ZN5SPIRV12OCL21ToSPIRV11runOnModuleERN4llvm6ModuleE@Base 0
 _ZN5SPIRV12OCL21ToSPIRV12transBuiltinEPN4llvm8CallInstEN3spv2OpE@Base 0
 _ZN5SPIRV12OCL21ToSPIRV13visitCallInstERN4llvm8CallInstE@Base 0
 _ZN5SPIRV12OCL21ToSPIRV16visitCallConvertEPN4llvm8CallInstEN3spv2OpE@Base 0
 _ZN5SPIRV12OCL21ToSPIRV17visitCallDecorateEPN4llvm8CallInstE@Base 0
 _ZN5SPIRV12OCL21ToSPIRV24visitCallSubGroupBarrierEPN4llvm8CallInstE@Base 0
 _ZN5SPIRV12OCL21ToSPIRV2IDE@Base 0
 _ZN5SPIRV12OCL21ToSPIRVD0Ev@Base 0
 _ZN5SPIRV12OCL21ToSPIRVD1Ev@Base 0
 _ZN5SPIRV12OCL21ToSPIRVD2Ev@Base 0
 (optional=templinst)_ZN5SPIRV12SPIRVCmpInstILN3spv2OpE161EED0Ev@Base 0
 (optional=templinst)_ZN5SPIRV12SPIRVCmpInstILN3spv2OpE161EED1Ev@Base 0
 (optional=templinst)_ZN5SPIRV12SPIRVCmpInstILN3spv2OpE161EED2Ev@Base 0
 (optional=templinst)_ZN5SPIRV12SPIRVCmpInstILN3spv2OpE162EED0Ev@Base 0
 (optional=templinst)_ZN5SPIRV12SPIRVCmpInstILN3spv2OpE162EED1Ev@Base 0
 (optional=templinst)_ZN5SPIRV12SPIRVCmpInstILN3spv2OpE162EED2Ev@Base 0
 (optional=templinst)_ZN5SPIRV12SPIRVCmpInstILN3spv2OpE163EED0Ev@Base 0
 (optional=templinst)_ZN5SPIRV12SPIRVCmpInstILN3spv2OpE163EED1Ev@Base 0
 (optional=templinst)_ZN5SPIRV12SPIRVCmpInstILN3spv2OpE163EED2Ev@Base 0
 (optional=templinst)_ZN5SPIRV12SPIRVCmpInstILN3spv2OpE170EED0Ev@Base 0
 (optional=templinst)_ZN5SPIRV12SPIRVCmpInstILN3spv2OpE170EED1Ev@Base 0
 (optional=templinst)_ZN5SPIRV12SPIRVCmpInstILN3spv2OpE170EED2Ev@Base 0
 (optional=templinst)_ZN5SPIRV12SPIRVCmpInstILN3spv2OpE171EED0Ev@Base 0
 (optional=templinst)_ZN5SPIRV12SPIRVCmpInstILN3spv2OpE171EED1Ev@Base 0
 (optional=templinst)_ZN5SPIRV12SPIRVCmpInstILN3spv2OpE171EED2Ev@Base 0
 (optional=templinst)_ZN5SPIRV12SPIRVCmpInstILN3spv2OpE172EED0Ev@Base 0
 (optional=templinst)_ZN5SPIRV12SPIRVCmpInstILN3spv2OpE172EED1Ev@Base 0
 (optional=templinst)_ZN5SPIRV12SPIRVCmpInstILN3spv2OpE172EED2Ev@Base 0
 (optional=templinst)_ZN5SPIRV12SPIRVCmpInstILN3spv2OpE173EED0Ev@Base 0
 (optional=templinst)_ZN5SPIRV12SPIRVCmpInstILN3spv2OpE173EED1Ev@Base 0
 (optional=templinst)_ZN5SPIRV12SPIRVCmpInstILN3spv2OpE173EED2Ev@Base 0
 (optional=templinst)_ZN5SPIRV12SPIRVCmpInstILN3spv2OpE174EED0Ev@Base 0
 (optional=templinst)_ZN5SPIRV12SPIRVCmpInstILN3spv2OpE174EED1Ev@Base 0
 (optional=templinst)_ZN5SPIRV12SPIRVCmpInstILN3spv2OpE174EED2Ev@Base 0
 (optional=templinst)_ZN5SPIRV12SPIRVCmpInstILN3spv2OpE175EED0Ev@Base 0
 (optional=templinst)_ZN5SPIRV12SPIRVCmpInstILN3spv2OpE175EED1Ev@Base 0
 (optional=templinst)_ZN5SPIRV12SPIRVCmpInstILN3spv2OpE175EED2Ev@Base 0
 (optional=templinst)_ZN5SPIRV12SPIRVCmpInstILN3spv2OpE176EED0Ev@Base 0
 (optional=templinst)_ZN5SPIRV12SPIRVCmpInstILN3spv2OpE176EED1Ev@Base 0
 (optional=templinst)_ZN5SPIRV12SPIRVCmpInstILN3spv2OpE176EED2Ev@Base 0
 (optional=templinst)_ZN5SPIRV12SPIRVCmpInstILN3spv2OpE177EED0Ev@Base 0
 (optional=templinst)_ZN5SPIRV12SPIRVCmpInstILN3spv2OpE177EED1Ev@Base 0
 (optional=templinst)_ZN5SPIRV12SPIRVCmpInstILN3spv2OpE177EED2Ev@Base 0
 (optional=templinst)_ZN5SPIRV12SPIRVCmpInstILN3spv2OpE178EED0Ev@Base 0
 (optional=templinst)_ZN5SPIRV12SPIRVCmpInstILN3spv2OpE178EED1Ev@Base 0
 (optional=templinst)_ZN5SPIRV12SPIRVCmpInstILN3spv2OpE178EED2Ev@Base 0
 (optional=templinst)_ZN5SPIRV12SPIRVCmpInstILN3spv2OpE179EED0Ev@Base 0
 (optional=templinst)_ZN5SPIRV12SPIRVCmpInstILN3spv2OpE179EED1Ev@Base 0
 (optional=templinst)_ZN5SPIRV12SPIRVCmpInstILN3spv2OpE179EED2Ev@Base 0
 (optional=templinst)_ZN5SPIRV12SPIRVCmpInstILN3spv2OpE180EED0Ev@Base 0
 (optional=templinst)_ZN5SPIRV12SPIRVCmpInstILN3spv2OpE180EED1Ev@Base 0
 (optional=templinst)_ZN5SPIRV12SPIRVCmpInstILN3spv2OpE180EED2Ev@Base 0
 (optional=templinst)_ZN5SPIRV12SPIRVCmpInstILN3spv2OpE181EED0Ev@Base 0
 (optional=templinst)_ZN5SPIRV12SPIRVCmpInstILN3spv2OpE181EED1Ev@Base 0
 (optional=templinst)_ZN5SPIRV12SPIRVCmpInstILN3spv2OpE181EED2Ev@Base 0
 (optional=templinst)_ZN5SPIRV12SPIRVCmpInstILN3spv2OpE182EED0Ev@Base 0
 (optional=templinst)_ZN5SPIRV12SPIRVCmpInstILN3spv2OpE182EED1Ev@Base 0
 (optional=templinst)_ZN5SPIRV12SPIRVCmpInstILN3spv2OpE182EED2Ev@Base 0
 (optional=templinst)_ZN5SPIRV12SPIRVCmpInstILN3spv2OpE183EED0Ev@Base 0
 (optional=templinst)_ZN5SPIRV12SPIRVCmpInstILN3spv2OpE183EED1Ev@Base 0
 (optional=templinst)_ZN5SPIRV12SPIRVCmpInstILN3spv2OpE183EED2Ev@Base 0
 (optional=templinst)_ZN5SPIRV12SPIRVCmpInstILN3spv2OpE184EED0Ev@Base 0
 (optional=templinst)_ZN5SPIRV12SPIRVCmpInstILN3spv2OpE184EED1Ev@Base 0
 (optional=templinst)_ZN5SPIRV12SPIRVCmpInstILN3spv2OpE184EED2Ev@Base 0
 (optional=templinst)_ZN5SPIRV12SPIRVCmpInstILN3spv2OpE185EED0Ev@Base 0
 (optional=templinst)_ZN5SPIRV12SPIRVCmpInstILN3spv2OpE185EED1Ev@Base 0
 (optional=templinst)_ZN5SPIRV12SPIRVCmpInstILN3spv2OpE185EED2Ev@Base 0
 (optional=templinst)_ZN5SPIRV12SPIRVCmpInstILN3spv2OpE186EED0Ev@Base 0
 (optional=templinst)_ZN5SPIRV12SPIRVCmpInstILN3spv2OpE186EED1Ev@Base 0
 (optional=templinst)_ZN5SPIRV12SPIRVCmpInstILN3spv2OpE186EED2Ev@Base 0
 (optional=templinst)_ZN5SPIRV12SPIRVCmpInstILN3spv2OpE187EED0Ev@Base 0
 (optional=templinst)_ZN5SPIRV12SPIRVCmpInstILN3spv2OpE187EED1Ev@Base 0
 (optional=templinst)_ZN5SPIRV12SPIRVCmpInstILN3spv2OpE187EED2Ev@Base 0
 (optional=templinst)_ZN5SPIRV12SPIRVCmpInstILN3spv2OpE188EED0Ev@Base 0
 (optional=templinst)_ZN5SPIRV12SPIRVCmpInstILN3spv2OpE188EED1Ev@Base 0
 (optional=templinst)_ZN5SPIRV12SPIRVCmpInstILN3spv2OpE188EED2Ev@Base 0
 (optional=templinst)_ZN5SPIRV12SPIRVCmpInstILN3spv2OpE189EED0Ev@Base 0
 (optional=templinst)_ZN5SPIRV12SPIRVCmpInstILN3spv2OpE189EED1Ev@Base 0
 (optional=templinst)_ZN5SPIRV12SPIRVCmpInstILN3spv2OpE189EED2Ev@Base 0
 (optional=templinst)_ZN5SPIRV12SPIRVCmpInstILN3spv2OpE190EED0Ev@Base 0
 (optional=templinst)_ZN5SPIRV12SPIRVCmpInstILN3spv2OpE190EED1Ev@Base 0
 (optional=templinst)_ZN5SPIRV12SPIRVCmpInstILN3spv2OpE190EED2Ev@Base 0
 (optional=templinst)_ZN5SPIRV12SPIRVCmpInstILN3spv2OpE191EED0Ev@Base 0
 (optional=templinst)_ZN5SPIRV12SPIRVCmpInstILN3spv2OpE191EED1Ev@Base 0
 (optional=templinst)_ZN5SPIRV12SPIRVCmpInstILN3spv2OpE191EED2Ev@Base 0
 _ZN5SPIRV12SPIRVCompareD0Ev@Base 0
 _ZN5SPIRV12SPIRVCompareD1Ev@Base 0
 _ZN5SPIRV12SPIRVCompareD2Ev@Base 0
 _ZN5SPIRV12SPIRVDecoder17ignoreInstructionEv@Base 0
 _ZN5SPIRV12SPIRVDecoder21getWordCountAndOpCodeEv@Base 0
 (subst)_ZN5SPIRV12SPIRVDecoder6ignoreE{size_t}@Base 0
 _ZN5SPIRV12SPIRVDecoder8getEntryEv@Base 0
 _ZN5SPIRV12SPIRVDecoder8setScopeEPNS_10SPIRVEntryE@Base 0
 _ZN5SPIRV12SPIRVDecoderC1ERSiRNS_13SPIRVFunctionE@Base 0
 _ZN5SPIRV12SPIRVDecoderC1ERSiRNS_15SPIRVBasicBlockE@Base 0
 _ZN5SPIRV12SPIRVDecoderC2ERSiRNS_13SPIRVFunctionE@Base 0
 _ZN5SPIRV12SPIRVDecoderC2ERSiRNS_15SPIRVBasicBlockE@Base 0
 _ZN5SPIRV12SPIRVExtInst6decodeERSi@Base 0
 _ZN5SPIRV12SPIRVExtInstD0Ev@Base 0
 _ZN5SPIRV12SPIRVExtInstD1Ev@Base 0
 _ZN5SPIRV12SPIRVExtInstD2Ev@Base 0
 _ZN5SPIRV12SPIRVForward6decodeERSi@Base 0
 _ZN5SPIRV12SPIRVForwardD0Ev@Base 0
 _ZN5SPIRV12SPIRVForwardD1Ev@Base 0
 _ZN5SPIRV12SPIRVForwardD2Ev@Base 0
 _ZN5SPIRV12SPIRVToOCL1211runOnModuleERN4llvm6ModuleE@Base 0
 _ZN5SPIRV12SPIRVToOCL1213mapAtomicNameB5cxx11EN3spv2OpEPN4llvm4TypeE@Base 0
 _ZN5SPIRV12SPIRVToOCL1216mutateAtomicNameEPN4llvm8CallInstEN3spv2OpE@Base 0
 _ZN5SPIRV12SPIRVToOCL1224visitCallSPIRVAtomicLoadEPN4llvm8CallInstE@Base 0
 _ZN5SPIRV12SPIRVToOCL1225visitCallSPIRVAtomicStoreEPN4llvm8CallInstE@Base 0
 _ZN5SPIRV12SPIRVToOCL1226visitCallSPIRVAtomicIncDecEPN4llvm8CallInstEN3spv2OpE@Base 0
 _ZN5SPIRV12SPIRVToOCL1227mutateCommonAtomicArgumentsEPN4llvm8CallInstEN3spv2OpE@Base 0
 _ZN5SPIRV12SPIRVToOCL1227visitCallSPIRVAtomicBuiltinEPN4llvm8CallInstEN3spv2OpE@Base 0
 _ZN5SPIRV12SPIRVToOCL1227visitCallSPIRVMemoryBarrierEPN4llvm8CallInstE@Base 0
 _ZN5SPIRV12SPIRVToOCL1228visitCallSPIRVAtomicCmpExchgEPN4llvm8CallInstEN3spv2OpE@Base 0
 _ZN5SPIRV12SPIRVToOCL1228visitCallSPIRVAtomicUMinUMaxEPN4llvm8CallInstEN3spv2OpE@Base 0
 _ZN5SPIRV12SPIRVToOCL1228visitCallSPIRVControlBarrierEPN4llvm8CallInstE@Base 0
 _ZN5SPIRV12SPIRVToOCL1229visitCallSPIRVAtomicFlagClearEPN4llvm8CallInstE@Base 0
 _ZN5SPIRV12SPIRVToOCL122IDE@Base 0
 _ZN5SPIRV12SPIRVToOCL1234visitCallSPIRVAtomicFlagTestAndSetEPN4llvm8CallInstE@Base 0
 _ZN5SPIRV12SPIRVToOCL12D0Ev@Base 0
 _ZN5SPIRV12SPIRVToOCL12D1Ev@Base 0
 _ZN5SPIRV12SPIRVToOCL12D2Ev@Base 0
 _ZN5SPIRV12SPIRVToOCL2011runOnModuleERN4llvm6ModuleE@Base 0
 _ZN5SPIRV12SPIRVToOCL2016mutateAtomicNameEPN4llvm8CallInstEN3spv2OpE@Base 0
 _ZN5SPIRV12SPIRVToOCL2026visitCallSPIRVAtomicIncDecEPN4llvm8CallInstEN3spv2OpE@Base 0
 _ZN5SPIRV12SPIRVToOCL2027mutateCommonAtomicArgumentsEPN4llvm8CallInstEN3spv2OpE@Base 0
 _ZN5SPIRV12SPIRVToOCL2027visitCallSPIRVAtomicBuiltinEPN4llvm8CallInstEN3spv2OpE@Base 0
 _ZN5SPIRV12SPIRVToOCL2027visitCallSPIRVMemoryBarrierEPN4llvm8CallInstE@Base 0
 _ZN5SPIRV12SPIRVToOCL2028visitCallSPIRVAtomicCmpExchgEPN4llvm8CallInstEN3spv2OpE@Base 0
 _ZN5SPIRV12SPIRVToOCL2028visitCallSPIRVControlBarrierEPN4llvm8CallInstE@Base 0
 _ZN5SPIRV12SPIRVToOCL202IDE@Base 0
 _ZN5SPIRV12SPIRVToOCL20D0Ev@Base 0
 _ZN5SPIRV12SPIRVToOCL20D1Ev@Base 0
 _ZN5SPIRV12SPIRVToOCL20D2Ev@Base 0
 _ZN5SPIRV12SPIRVTypeInt6decodeERSi@Base 0
 _ZN5SPIRV12SPIRVTypeIntD0Ev@Base 0
 _ZN5SPIRV12SPIRVTypeIntD1Ev@Base 0
 _ZN5SPIRV12SPIRVTypeIntD2Ev@Base 0
 _ZN5SPIRV12addBlockBindEPN4llvm6ModuleEPNS0_8FunctionEPNS0_5ValueES6_S6_PNS0_11InstructionENS0_9StringRefE@Base 0
 _ZN5SPIRV12convertSpirvERNSt7__cxx1112basic_stringIcSt11char_traitsIcESaIcEEES6_S6_b@Base 0
 _ZN5SPIRV12convertSpirvERSiRSoRNSt7__cxx1112basic_stringIcSt11char_traitsIcESaIcEEEbb@Base 0
 _ZN5SPIRV12eraseIfNoUseEPN4llvm5ValueE@Base 0
 _ZN5SPIRV12eraseIfNoUseEPN4llvm8FunctionE@Base 0
 (subst)_ZN5SPIRV12expandVectorEPN4llvm11InstructionERSt6vectorIPNS0_5ValueESaIS5_EE{size_t}@Base 0
 (arch=!hurd-i386 !i386 !mipsel !powerpc !ppc64 !s390x)_ZN5SPIRV12findFirstPtrERKSt6vectorIPN4llvm5ValueESaIS3_EE@Base 0
 _ZN5SPIRV12getArgumentsEPN4llvm8CallInstEjj@Base 0
 _ZN5SPIRV12getInt8PtrTyEPN4llvm11PointerTypeE@Base 0
 _ZN5SPIRV12getSizetTypeEPN4llvm6ModuleE@Base 0
 _ZN5SPIRV12getVecStringB5cxx11ERKSt6vectorIjSaIjEE@Base 0
 _ZN5SPIRV12isVoidFuncTyEPN4llvm12FunctionTypeE@Base 0
 _ZN5SPIRV12oclIsBuiltinEN4llvm9StringRefERS1_b@Base 0
 _ZN5SPIRV12removeFnAttrEPN4llvm8CallInstENS0_9Attribute8AttrKindE@Base 0
 _ZN5SPIRV13SPIRVAsmINTEL6decodeERSi@Base 0
 _ZN5SPIRV13SPIRVAsmINTELD0Ev@Base 0
 _ZN5SPIRV13SPIRVAsmINTELD1Ev@Base 0
 _ZN5SPIRV13SPIRVAsmINTELD2Ev@Base 0
 _ZN5SPIRV13SPIRVDbgErrorE@Base 0
 _ZN5SPIRV13SPIRVDecorate12setWordCountEj@Base 0
 _ZN5SPIRV13SPIRVDecorate6decodeERSi@Base 0
 _ZN5SPIRV13SPIRVDecorateD0Ev@Base 0
 _ZN5SPIRV13SPIRVDecorateD1Ev@Base 0
 _ZN5SPIRV13SPIRVDecorateD2Ev@Base 0
 _ZN5SPIRV13SPIRVErrorLog10checkErrorEbNS_14SPIRVErrorCodeERKNSt7__cxx1112basic_stringIcSt11char_traitsIcESaIcEEEPKcSB_j@Base 0
 _ZN5SPIRV13SPIRVFunction10getDecoderERSi@Base 0
 _ZN5SPIRV13SPIRVFunction22foreachReturnValueAttrESt8functionIFvN3spv26FunctionParameterAttributeEEE@Base 0
 _ZN5SPIRV13SPIRVFunction6decodeERSi@Base 0
 _ZN5SPIRV13SPIRVFunction8decodeBBERNS_12SPIRVDecoderE@Base 0
 _ZN5SPIRV13SPIRVFunctionD0Ev@Base 0
 _ZN5SPIRV13SPIRVFunctionD1Ev@Base 0
 _ZN5SPIRV13SPIRVFunctionD2Ev@Base 0
 (optional=templinst)_ZN5SPIRV13SPIRVLifetimeILN3spv2OpE256EE6decodeERSi@Base 0
 (optional=templinst)_ZN5SPIRV13SPIRVLifetimeILN3spv2OpE256EED0Ev@Base 0
 (optional=templinst)_ZN5SPIRV13SPIRVLifetimeILN3spv2OpE256EED1Ev@Base 0
 (optional=templinst)_ZN5SPIRV13SPIRVLifetimeILN3spv2OpE256EED2Ev@Base 0
 (optional=templinst)_ZN5SPIRV13SPIRVLifetimeILN3spv2OpE257EE6decodeERSi@Base 0
 (optional=templinst)_ZN5SPIRV13SPIRVLifetimeILN3spv2OpE257EED0Ev@Base 0
 (optional=templinst)_ZN5SPIRV13SPIRVLifetimeILN3spv2OpE257EED1Ev@Base 0
 (optional=templinst)_ZN5SPIRV13SPIRVLifetimeILN3spv2OpE257EED2Ev@Base 0
 (optional=templinst)_ZN5SPIRV13SPIRVMDWalker9MDWrapperINS0_14NamedMDWrapperEE3getIjEERS3_RT_@Base 0
 _ZN5SPIRV13SPIRVTypeBool6decodeERSi@Base 0
 _ZN5SPIRV13SPIRVTypeBoolD0Ev@Base 0
 _ZN5SPIRV13SPIRVTypeBoolD1Ev@Base 0
 _ZN5SPIRV13SPIRVTypeBoolD2Ev@Base 0
 _ZN5SPIRV13SPIRVTypePipe6decodeERSi@Base 0
 _ZN5SPIRV13SPIRVTypePipeD0Ev@Base 0
 _ZN5SPIRV13SPIRVTypePipeD1Ev@Base 0
 _ZN5SPIRV13SPIRVTypePipeD2Ev@Base 0
 _ZN5SPIRV13SPIRVTypeVoid6decodeERSi@Base 0
 _ZN5SPIRV13SPIRVTypeVoidD0Ev@Base 0
 _ZN5SPIRV13SPIRVTypeVoidD1Ev@Base 0
 _ZN5SPIRV13SPIRVTypeVoidD2Ev@Base 0
 _ZN5SPIRV13SPIRVVariable12setWordCountEj@Base 0
 _ZN5SPIRV13SPIRVVariable6decodeERSi@Base 0
 _ZN5SPIRV13SPIRVVariableD0Ev@Base 0
 _ZN5SPIRV13SPIRVVariableD1Ev@Base 0
 _ZN5SPIRV13SPIRVVariableD2Ev@Base 0
 _ZN5SPIRV13UseTextFormatE@Base 0
 _ZN5SPIRV13castToInt8PtrEPN4llvm5ValueEPNS0_11InstructionE@Base 0
 _ZN5SPIRV13castToInt8PtrEPN4llvm8ConstantEj@Base 0
 _ZN5SPIRV13getArgAsScopeEPN4llvm8CallInstEj@Base 0
 _ZN5SPIRV13isSpirvBinaryERKNSt7__cxx1112basic_stringIcSt11char_traitsIcESaIcEEE@Base 0
 _ZN5SPIRV13mangleBuiltinB5cxx11EN4llvm9StringRefENS0_8ArrayRefIPNS0_4TypeEEEPNS_21BuiltinFuncMangleInfoE@Base 0
 _ZN5SPIRV14OCLTypeToSPIRV11runOnModuleERN4llvm6ModuleE@Base 0
 _ZN5SPIRV14OCLTypeToSPIRV13adaptFunctionEPN4llvm8FunctionE@Base 0
 _ZN5SPIRV14OCLTypeToSPIRV14addAdaptedTypeEPN4llvm5ValueEPNS1_4TypeE@Base 0
 _ZN5SPIRV14OCLTypeToSPIRV14getAdaptedTypeEPN4llvm5ValueE@Base 0
 _ZN5SPIRV14OCLTypeToSPIRV22adaptFunctionArgumentsEPN4llvm8FunctionE@Base 0
 _ZN5SPIRV14OCLTypeToSPIRV24adaptArgumentsByMetadataEPN4llvm8FunctionE@Base 0
 _ZN5SPIRV14OCLTypeToSPIRV26adaptArgumentsBySamplerUseERN4llvm6ModuleE@Base 0
 _ZN5SPIRV14OCLTypeToSPIRV2IDE@Base 0
 _ZN5SPIRV14OCLTypeToSPIRV7addWorkEPN4llvm8FunctionE@Base 0
 _ZN5SPIRV14OCLTypeToSPIRVC1Ev@Base 0
 _ZN5SPIRV14OCLTypeToSPIRVC2Ev@Base 0
 _ZN5SPIRV14OCLTypeToSPIRVD0Ev@Base 0
 _ZN5SPIRV14OCLTypeToSPIRVD1Ev@Base 0
 _ZN5SPIRV14OCLTypeToSPIRVD2Ev@Base 0
 _ZN5SPIRV14SPIRVDbgEnableE@Base 0
 (optional=templinst)_ZN5SPIRV14SPIRVEntryNoIdILN3spv2OpE0EED0Ev@Base 0
 (optional=templinst)_ZN5SPIRV14SPIRVEntryNoIdILN3spv2OpE0EED1Ev@Base 0
 (optional=templinst)_ZN5SPIRV14SPIRVEntryNoIdILN3spv2OpE0EED2Ev@Base 0
 (optional=templinst)_ZN5SPIRV14SPIRVEntryNoIdILN3spv2OpE100EED0Ev@Base 0
 (optional=templinst)_ZN5SPIRV14SPIRVEntryNoIdILN3spv2OpE100EED1Ev@Base 0
 (optional=templinst)_ZN5SPIRV14SPIRVEntryNoIdILN3spv2OpE100EED2Ev@Base 0
 (optional=templinst)_ZN5SPIRV14SPIRVEntryNoIdILN3spv2OpE10EED0Ev@Base 0
 (optional=templinst)_ZN5SPIRV14SPIRVEntryNoIdILN3spv2OpE10EED1Ev@Base 0
 (optional=templinst)_ZN5SPIRV14SPIRVEntryNoIdILN3spv2OpE10EED2Ev@Base 0
 (optional=templinst)_ZN5SPIRV14SPIRVEntryNoIdILN3spv2OpE116EED0Ev@Base 0
 (optional=templinst)_ZN5SPIRV14SPIRVEntryNoIdILN3spv2OpE116EED1Ev@Base 0
 (optional=templinst)_ZN5SPIRV14SPIRVEntryNoIdILN3spv2OpE116EED2Ev@Base 0
 (optional=templinst)_ZN5SPIRV14SPIRVEntryNoIdILN3spv2OpE147EED0Ev@Base 0
 (optional=templinst)_ZN5SPIRV14SPIRVEntryNoIdILN3spv2OpE147EED1Ev@Base 0
 (optional=templinst)_ZN5SPIRV14SPIRVEntryNoIdILN3spv2OpE147EED2Ev@Base 0
 (optional=templinst)_ZN5SPIRV14SPIRVEntryNoIdILN3spv2OpE149EED0Ev@Base 0
 (optional=templinst)_ZN5SPIRV14SPIRVEntryNoIdILN3spv2OpE149EED1Ev@Base 0
 (optional=templinst)_ZN5SPIRV14SPIRVEntryNoIdILN3spv2OpE149EED2Ev@Base 0
 (optional=templinst)_ZN5SPIRV14SPIRVEntryNoIdILN3spv2OpE14EED0Ev@Base 0
 (optional=templinst)_ZN5SPIRV14SPIRVEntryNoIdILN3spv2OpE14EED1Ev@Base 0
 (optional=templinst)_ZN5SPIRV14SPIRVEntryNoIdILN3spv2OpE14EED2Ev@Base 0
 (optional=templinst)_ZN5SPIRV14SPIRVEntryNoIdILN3spv2OpE150EED0Ev@Base 0
 (optional=templinst)_ZN5SPIRV14SPIRVEntryNoIdILN3spv2OpE150EED1Ev@Base 0
 (optional=templinst)_ZN5SPIRV14SPIRVEntryNoIdILN3spv2OpE150EED2Ev@Base 0
 (optional=templinst)_ZN5SPIRV14SPIRVEntryNoIdILN3spv2OpE151EED0Ev@Base 0
 (optional=templinst)_ZN5SPIRV14SPIRVEntryNoIdILN3spv2OpE151EED1Ev@Base 0
 (optional=templinst)_ZN5SPIRV14SPIRVEntryNoIdILN3spv2OpE151EED2Ev@Base 0
 (optional=templinst)_ZN5SPIRV14SPIRVEntryNoIdILN3spv2OpE152EED0Ev@Base 0
 (optional=templinst)_ZN5SPIRV14SPIRVEntryNoIdILN3spv2OpE152EED1Ev@Base 0
 (optional=templinst)_ZN5SPIRV14SPIRVEntryNoIdILN3spv2OpE152EED2Ev@Base 0
 (optional=templinst)_ZN5SPIRV14SPIRVEntryNoIdILN3spv2OpE17EED0Ev@Base 0
 (optional=templinst)_ZN5SPIRV14SPIRVEntryNoIdILN3spv2OpE17EED1Ev@Base 0
 (optional=templinst)_ZN5SPIRV14SPIRVEntryNoIdILN3spv2OpE17EED2Ev@Base 0
 (optional=templinst)_ZN5SPIRV14SPIRVEntryNoIdILN3spv2OpE201EED0Ev@Base 0
 (optional=templinst)_ZN5SPIRV14SPIRVEntryNoIdILN3spv2OpE201EED1Ev@Base 0
 (optional=templinst)_ZN5SPIRV14SPIRVEntryNoIdILN3spv2OpE201EED2Ev@Base 0
 (optional=templinst)_ZN5SPIRV14SPIRVEntryNoIdILN3spv2OpE202EED0Ev@Base 0
 (optional=templinst)_ZN5SPIRV14SPIRVEntryNoIdILN3spv2OpE202EED1Ev@Base 0
 (optional=templinst)_ZN5SPIRV14SPIRVEntryNoIdILN3spv2OpE202EED2Ev@Base 0
 (optional=templinst)_ZN5SPIRV14SPIRVEntryNoIdILN3spv2OpE203EED0Ev@Base 0
 (optional=templinst)_ZN5SPIRV14SPIRVEntryNoIdILN3spv2OpE203EED1Ev@Base 0
 (optional=templinst)_ZN5SPIRV14SPIRVEntryNoIdILN3spv2OpE203EED2Ev@Base 0
 (optional=templinst)_ZN5SPIRV14SPIRVEntryNoIdILN3spv2OpE207EED0Ev@Base 0
 (optional=templinst)_ZN5SPIRV14SPIRVEntryNoIdILN3spv2OpE207EED1Ev@Base 0
 (optional=templinst)_ZN5SPIRV14SPIRVEntryNoIdILN3spv2OpE207EED2Ev@Base 0
 (optional=templinst)_ZN5SPIRV14SPIRVEntryNoIdILN3spv2OpE208EED0Ev@Base 0
 (optional=templinst)_ZN5SPIRV14SPIRVEntryNoIdILN3spv2OpE208EED1Ev@Base 0
 (optional=templinst)_ZN5SPIRV14SPIRVEntryNoIdILN3spv2OpE208EED2Ev@Base 0
 (optional=templinst)_ZN5SPIRV14SPIRVEntryNoIdILN3spv2OpE209EED0Ev@Base 0
 (optional=templinst)_ZN5SPIRV14SPIRVEntryNoIdILN3spv2OpE209EED1Ev@Base 0
 (optional=templinst)_ZN5SPIRV14SPIRVEntryNoIdILN3spv2OpE209EED2Ev@Base 0
 (optional=templinst)_ZN5SPIRV14SPIRVEntryNoIdILN3spv2OpE210EED0Ev@Base 0
 (optional=templinst)_ZN5SPIRV14SPIRVEntryNoIdILN3spv2OpE210EED1Ev@Base 0
 (optional=templinst)_ZN5SPIRV14SPIRVEntryNoIdILN3spv2OpE210EED2Ev@Base 0
 (optional=templinst)_ZN5SPIRV14SPIRVEntryNoIdILN3spv2OpE211EED0Ev@Base 0
 (optional=templinst)_ZN5SPIRV14SPIRVEntryNoIdILN3spv2OpE211EED1Ev@Base 0
 (optional=templinst)_ZN5SPIRV14SPIRVEntryNoIdILN3spv2OpE211EED2Ev@Base 0
 (optional=templinst)_ZN5SPIRV14SPIRVEntryNoIdILN3spv2OpE212EED0Ev@Base 0
 (optional=templinst)_ZN5SPIRV14SPIRVEntryNoIdILN3spv2OpE212EED1Ev@Base 0
 (optional=templinst)_ZN5SPIRV14SPIRVEntryNoIdILN3spv2OpE212EED2Ev@Base 0
 (optional=templinst)_ZN5SPIRV14SPIRVEntryNoIdILN3spv2OpE213EED0Ev@Base 0
 (optional=templinst)_ZN5SPIRV14SPIRVEntryNoIdILN3spv2OpE213EED1Ev@Base 0
 (optional=templinst)_ZN5SPIRV14SPIRVEntryNoIdILN3spv2OpE213EED2Ev@Base 0
 (optional=templinst)_ZN5SPIRV14SPIRVEntryNoIdILN3spv2OpE214EED0Ev@Base 0
 (optional=templinst)_ZN5SPIRV14SPIRVEntryNoIdILN3spv2OpE214EED1Ev@Base 0
 (optional=templinst)_ZN5SPIRV14SPIRVEntryNoIdILN3spv2OpE214EED2Ev@Base 0
 (optional=templinst)_ZN5SPIRV14SPIRVEntryNoIdILN3spv2OpE215EED0Ev@Base 0
 (optional=templinst)_ZN5SPIRV14SPIRVEntryNoIdILN3spv2OpE215EED1Ev@Base 0
 (optional=templinst)_ZN5SPIRV14SPIRVEntryNoIdILN3spv2OpE215EED2Ev@Base 0
 (optional=templinst)_ZN5SPIRV14SPIRVEntryNoIdILN3spv2OpE218EED0Ev@Base 0
 (optional=templinst)_ZN5SPIRV14SPIRVEntryNoIdILN3spv2OpE218EED1Ev@Base 0
 (optional=templinst)_ZN5SPIRV14SPIRVEntryNoIdILN3spv2OpE218EED2Ev@Base 0
 (optional=templinst)_ZN5SPIRV14SPIRVEntryNoIdILN3spv2OpE219EED0Ev@Base 0
 (optional=templinst)_ZN5SPIRV14SPIRVEntryNoIdILN3spv2OpE219EED1Ev@Base 0
 (optional=templinst)_ZN5SPIRV14SPIRVEntryNoIdILN3spv2OpE219EED2Ev@Base 0
 (optional=templinst)_ZN5SPIRV14SPIRVEntryNoIdILN3spv2OpE220EED0Ev@Base 0
 (optional=templinst)_ZN5SPIRV14SPIRVEntryNoIdILN3spv2OpE220EED1Ev@Base 0
 (optional=templinst)_ZN5SPIRV14SPIRVEntryNoIdILN3spv2OpE220EED2Ev@Base 0
 (optional=templinst)_ZN5SPIRV14SPIRVEntryNoIdILN3spv2OpE221EED0Ev@Base 0
 (optional=templinst)_ZN5SPIRV14SPIRVEntryNoIdILN3spv2OpE221EED1Ev@Base 0
 (optional=templinst)_ZN5SPIRV14SPIRVEntryNoIdILN3spv2OpE221EED2Ev@Base 0
 (optional=templinst)_ZN5SPIRV14SPIRVEntryNoIdILN3spv2OpE252EED0Ev@Base 0
 (optional=templinst)_ZN5SPIRV14SPIRVEntryNoIdILN3spv2OpE252EED1Ev@Base 0
 (optional=templinst)_ZN5SPIRV14SPIRVEntryNoIdILN3spv2OpE252EED2Ev@Base 0
 (optional=templinst)_ZN5SPIRV14SPIRVEntryNoIdILN3spv2OpE29EED0Ev@Base 0
 (optional=templinst)_ZN5SPIRV14SPIRVEntryNoIdILN3spv2OpE29EED1Ev@Base 0
 (optional=templinst)_ZN5SPIRV14SPIRVEntryNoIdILN3spv2OpE29EED2Ev@Base 0
 (optional=templinst)_ZN5SPIRV14SPIRVEntryNoIdILN3spv2OpE2EED0Ev@Base 0
 (optional=templinst)_ZN5SPIRV14SPIRVEntryNoIdILN3spv2OpE2EED1Ev@Base 0
 (optional=templinst)_ZN5SPIRV14SPIRVEntryNoIdILN3spv2OpE2EED2Ev@Base 0
 (optional=templinst)_ZN5SPIRV14SPIRVEntryNoIdILN3spv2OpE305EED0Ev@Base 0
 (optional=templinst)_ZN5SPIRV14SPIRVEntryNoIdILN3spv2OpE305EED1Ev@Base 0
 (optional=templinst)_ZN5SPIRV14SPIRVEntryNoIdILN3spv2OpE305EED2Ev@Base 0
 (optional=templinst)_ZN5SPIRV14SPIRVEntryNoIdILN3spv2OpE306EED0Ev@Base 0
 (optional=templinst)_ZN5SPIRV14SPIRVEntryNoIdILN3spv2OpE306EED1Ev@Base 0
 (optional=templinst)_ZN5SPIRV14SPIRVEntryNoIdILN3spv2OpE306EED2Ev@Base 0
 (optional=templinst)_ZN5SPIRV14SPIRVEntryNoIdILN3spv2OpE307EED0Ev@Base 0
 (optional=templinst)_ZN5SPIRV14SPIRVEntryNoIdILN3spv2OpE307EED1Ev@Base 0
 (optional=templinst)_ZN5SPIRV14SPIRVEntryNoIdILN3spv2OpE307EED2Ev@Base 0
 (optional=templinst)_ZN5SPIRV14SPIRVEntryNoIdILN3spv2OpE308EED0Ev@Base 0
 (optional=templinst)_ZN5SPIRV14SPIRVEntryNoIdILN3spv2OpE308EED1Ev@Base 0
 (optional=templinst)_ZN5SPIRV14SPIRVEntryNoIdILN3spv2OpE308EED2Ev@Base 0
 (optional=templinst)_ZN5SPIRV14SPIRVEntryNoIdILN3spv2OpE309EED0Ev@Base 0
 (optional=templinst)_ZN5SPIRV14SPIRVEntryNoIdILN3spv2OpE309EED1Ev@Base 0
 (optional=templinst)_ZN5SPIRV14SPIRVEntryNoIdILN3spv2OpE309EED2Ev@Base 0
 (optional=templinst)_ZN5SPIRV14SPIRVEntryNoIdILN3spv2OpE310EED0Ev@Base 0
 (optional=templinst)_ZN5SPIRV14SPIRVEntryNoIdILN3spv2OpE310EED1Ev@Base 0
 (optional=templinst)_ZN5SPIRV14SPIRVEntryNoIdILN3spv2OpE310EED2Ev@Base 0
 (optional=templinst)_ZN5SPIRV14SPIRVEntryNoIdILN3spv2OpE311EED0Ev@Base 0
 (optional=templinst)_ZN5SPIRV14SPIRVEntryNoIdILN3spv2OpE311EED1Ev@Base 0
 (optional=templinst)_ZN5SPIRV14SPIRVEntryNoIdILN3spv2OpE311EED2Ev@Base 0
 (optional=templinst)_ZN5SPIRV14SPIRVEntryNoIdILN3spv2OpE312EED0Ev@Base 0
 (optional=templinst)_ZN5SPIRV14SPIRVEntryNoIdILN3spv2OpE312EED1Ev@Base 0
 (optional=templinst)_ZN5SPIRV14SPIRVEntryNoIdILN3spv2OpE312EED2Ev@Base 0
 (optional=templinst)_ZN5SPIRV14SPIRVEntryNoIdILN3spv2OpE313EED0Ev@Base 0
 (optional=templinst)_ZN5SPIRV14SPIRVEntryNoIdILN3spv2OpE313EED1Ev@Base 0
 (optional=templinst)_ZN5SPIRV14SPIRVEntryNoIdILN3spv2OpE313EED2Ev@Base 0
 (optional=templinst)_ZN5SPIRV14SPIRVEntryNoIdILN3spv2OpE314EED0Ev@Base 0
 (optional=templinst)_ZN5SPIRV14SPIRVEntryNoIdILN3spv2OpE314EED1Ev@Base 0
 (optional=templinst)_ZN5SPIRV14SPIRVEntryNoIdILN3spv2OpE314EED2Ev@Base 0
 (optional=templinst)_ZN5SPIRV14SPIRVEntryNoIdILN3spv2OpE315EED0Ev@Base 0
 (optional=templinst)_ZN5SPIRV14SPIRVEntryNoIdILN3spv2OpE315EED1Ev@Base 0
 (optional=templinst)_ZN5SPIRV14SPIRVEntryNoIdILN3spv2OpE315EED2Ev@Base 0
 (optional=templinst)_ZN5SPIRV14SPIRVEntryNoIdILN3spv2OpE316EED0Ev@Base 0
 (optional=templinst)_ZN5SPIRV14SPIRVEntryNoIdILN3spv2OpE316EED1Ev@Base 0
 (optional=templinst)_ZN5SPIRV14SPIRVEntryNoIdILN3spv2OpE316EED2Ev@Base 0
 (optional=templinst)_ZN5SPIRV14SPIRVEntryNoIdILN3spv2OpE317EED0Ev@Base 0
 (optional=templinst)_ZN5SPIRV14SPIRVEntryNoIdILN3spv2OpE317EED1Ev@Base 0
 (optional=templinst)_ZN5SPIRV14SPIRVEntryNoIdILN3spv2OpE317EED2Ev@Base 0
 (optional=templinst)_ZN5SPIRV14SPIRVEntryNoIdILN3spv2OpE39EED0Ev@Base 0
 (optional=templinst)_ZN5SPIRV14SPIRVEntryNoIdILN3spv2OpE39EED1Ev@Base 0
 (optional=templinst)_ZN5SPIRV14SPIRVEntryNoIdILN3spv2OpE39EED2Ev@Base 0
 (optional=templinst)_ZN5SPIRV14SPIRVEntryNoIdILN3spv2OpE3EED0Ev@Base 0
 (optional=templinst)_ZN5SPIRV14SPIRVEntryNoIdILN3spv2OpE3EED1Ev@Base 0
 (optional=templinst)_ZN5SPIRV14SPIRVEntryNoIdILN3spv2OpE3EED2Ev@Base 0
 (optional=templinst)_ZN5SPIRV14SPIRVEntryNoIdILN3spv2OpE4EED0Ev@Base 0
 (optional=templinst)_ZN5SPIRV14SPIRVEntryNoIdILN3spv2OpE4EED1Ev@Base 0
 (optional=templinst)_ZN5SPIRV14SPIRVEntryNoIdILN3spv2OpE4EED2Ev@Base 0
 (optional=templinst)_ZN5SPIRV14SPIRVEntryNoIdILN3spv2OpE56EED0Ev@Base 0
 (optional=templinst)_ZN5SPIRV14SPIRVEntryNoIdILN3spv2OpE56EED1Ev@Base 0
 (optional=templinst)_ZN5SPIRV14SPIRVEntryNoIdILN3spv2OpE56EED2Ev@Base 0
 (optional=templinst)_ZN5SPIRV14SPIRVEntryNoIdILN3spv2OpE60EED0Ev@Base 0
 (optional=templinst)_ZN5SPIRV14SPIRVEntryNoIdILN3spv2OpE60EED1Ev@Base 0
 (optional=templinst)_ZN5SPIRV14SPIRVEntryNoIdILN3spv2OpE60EED2Ev@Base 0
 (optional=templinst)_ZN5SPIRV14SPIRVEntryNoIdILN3spv2OpE68EED0Ev@Base 0
 (optional=templinst)_ZN5SPIRV14SPIRVEntryNoIdILN3spv2OpE68EED1Ev@Base 0
 (optional=templinst)_ZN5SPIRV14SPIRVEntryNoIdILN3spv2OpE68EED2Ev@Base 0
 (optional=templinst)_ZN5SPIRV14SPIRVEntryNoIdILN3spv2OpE89EED0Ev@Base 0
 (optional=templinst)_ZN5SPIRV14SPIRVEntryNoIdILN3spv2OpE89EED1Ev@Base 0
 (optional=templinst)_ZN5SPIRV14SPIRVEntryNoIdILN3spv2OpE89EED2Ev@Base 0
 (optional=templinst)_ZN5SPIRV14SPIRVEntryNoIdILN3spv2OpE90EED0Ev@Base 0
 (optional=templinst)_ZN5SPIRV14SPIRVEntryNoIdILN3spv2OpE90EED1Ev@Base 0
 (optional=templinst)_ZN5SPIRV14SPIRVEntryNoIdILN3spv2OpE90EED2Ev@Base 0
 (optional=templinst)_ZN5SPIRV14SPIRVEntryNoIdILN3spv2OpE91EED0Ev@Base 0
 (optional=templinst)_ZN5SPIRV14SPIRVEntryNoIdILN3spv2OpE91EED1Ev@Base 0
 (optional=templinst)_ZN5SPIRV14SPIRVEntryNoIdILN3spv2OpE91EED2Ev@Base 0
 (optional=templinst)_ZN5SPIRV14SPIRVEntryNoIdILN3spv2OpE92EED0Ev@Base 0
 (optional=templinst)_ZN5SPIRV14SPIRVEntryNoIdILN3spv2OpE92EED1Ev@Base 0
 (optional=templinst)_ZN5SPIRV14SPIRVEntryNoIdILN3spv2OpE92EED2Ev@Base 0
 (optional=templinst)_ZN5SPIRV14SPIRVEntryNoIdILN3spv2OpE93EED0Ev@Base 0
 (optional=templinst)_ZN5SPIRV14SPIRVEntryNoIdILN3spv2OpE93EED1Ev@Base 0
 (optional=templinst)_ZN5SPIRV14SPIRVEntryNoIdILN3spv2OpE93EED2Ev@Base 0
 (optional=templinst)_ZN5SPIRV14SPIRVEntryNoIdILN3spv2OpE94EED0Ev@Base 0
 (optional=templinst)_ZN5SPIRV14SPIRVEntryNoIdILN3spv2OpE94EED1Ev@Base 0
 (optional=templinst)_ZN5SPIRV14SPIRVEntryNoIdILN3spv2OpE94EED2Ev@Base 0
 (optional=templinst)_ZN5SPIRV14SPIRVEntryNoIdILN3spv2OpE95EED0Ev@Base 0
 (optional=templinst)_ZN5SPIRV14SPIRVEntryNoIdILN3spv2OpE95EED1Ev@Base 0
 (optional=templinst)_ZN5SPIRV14SPIRVEntryNoIdILN3spv2OpE95EED2Ev@Base 0
 (optional=templinst)_ZN5SPIRV14SPIRVEntryNoIdILN3spv2OpE96EED0Ev@Base 0
 (optional=templinst)_ZN5SPIRV14SPIRVEntryNoIdILN3spv2OpE96EED1Ev@Base 0
 (optional=templinst)_ZN5SPIRV14SPIRVEntryNoIdILN3spv2OpE96EED2Ev@Base 0
 (optional=templinst)_ZN5SPIRV14SPIRVEntryNoIdILN3spv2OpE97EED0Ev@Base 0
 (optional=templinst)_ZN5SPIRV14SPIRVEntryNoIdILN3spv2OpE97EED1Ev@Base 0
 (optional=templinst)_ZN5SPIRV14SPIRVEntryNoIdILN3spv2OpE97EED2Ev@Base 0
 _ZN5SPIRV14SPIRVExtension6decodeERSi@Base 0
 _ZN5SPIRV14SPIRVExtensionC1EPNS_11SPIRVModuleERKNSt7__cxx1112basic_stringIcSt11char_traitsIcESaIcEEE@Base 0
 _ZN5SPIRV14SPIRVExtensionC2EPNS_11SPIRVModuleERKNSt7__cxx1112basic_stringIcSt11char_traitsIcESaIcEEE@Base 0
 _ZN5SPIRV14SPIRVExtensionD0Ev@Base 0
 _ZN5SPIRV14SPIRVExtensionD1Ev@Base 0
 _ZN5SPIRV14SPIRVExtensionD2Ev@Base 0
 _ZN5SPIRV14SPIRVLoopMerge12setWordCountEj@Base 0
 _ZN5SPIRV14SPIRVLoopMerge6decodeERSi@Base 0
 _ZN5SPIRV14SPIRVLoopMergeD0Ev@Base 0
 _ZN5SPIRV14SPIRVLoopMergeD1Ev@Base 0
 _ZN5SPIRV14SPIRVLoopMergeD2Ev@Base 0
 _ZN5SPIRV14SPIRVLowerBool11runOnModuleERN4llvm6ModuleE@Base 0
 _ZN5SPIRV14SPIRVLowerBool13visitSExtInstERN4llvm8SExtInstE@Base 0
 _ZN5SPIRV14SPIRVLowerBool13visitZExtInstERN4llvm8ZExtInstE@Base 0
 _ZN5SPIRV14SPIRVLowerBool14visitTruncInstERN4llvm9TruncInstE@Base 0
 _ZN5SPIRV14SPIRVLowerBool2IDE@Base 0
 _ZN5SPIRV14SPIRVLowerBoolD0Ev@Base 0
 _ZN5SPIRV14SPIRVLowerBoolD1Ev@Base 0
 _ZN5SPIRV14SPIRVLowerBoolD2Ev@Base 0
 _ZN5SPIRV14SPIRVTranspose11getOperandsEv@Base 0
 _ZN5SPIRV14SPIRVTranspose12setWordCountEj@Base 0
 _ZN5SPIRV14SPIRVTranspose6decodeERSi@Base 0
 _ZN5SPIRV14SPIRVTransposeD0Ev@Base 0
 _ZN5SPIRV14SPIRVTransposeD1Ev@Base 0
 _ZN5SPIRV14SPIRVTransposeD2Ev@Base 0
 _ZN5SPIRV14SPIRVTypeArray6decodeERSi@Base 0
 _ZN5SPIRV14SPIRVTypeArrayC1EPNS_11SPIRVModuleEjPNS_9SPIRVTypeEPNS_17SPIRVConstantBaseILN3spv2OpE43EEE@Base 0
 _ZN5SPIRV14SPIRVTypeArrayC2EPNS_11SPIRVModuleEjPNS_9SPIRVTypeEPNS_17SPIRVConstantBaseILN3spv2OpE43EEE@Base 0
 _ZN5SPIRV14SPIRVTypeArrayD0Ev@Base 0
 _ZN5SPIRV14SPIRVTypeArrayD1Ev@Base 0
 _ZN5SPIRV14SPIRVTypeArrayD2Ev@Base 0
 _ZN5SPIRV14SPIRVTypeFloat6decodeERSi@Base 0
 _ZN5SPIRV14SPIRVTypeFloatD0Ev@Base 0
 _ZN5SPIRV14SPIRVTypeFloatD1Ev@Base 0
 _ZN5SPIRV14SPIRVTypeFloatD2Ev@Base 0
 _ZN5SPIRV14SPIRVTypeImage12setWordCountEj@Base 0
 _ZN5SPIRV14SPIRVTypeImage6decodeERSi@Base 0
 _ZN5SPIRV14SPIRVTypeImageD0Ev@Base 0
 _ZN5SPIRV14SPIRVTypeImageD1Ev@Base 0
 _ZN5SPIRV14SPIRVTypeImageD2Ev@Base 0
 _ZN5SPIRV14SPIRVTypeQueue6decodeERSi@Base 0
 _ZN5SPIRV14SPIRVTypeQueueD0Ev@Base 0
 _ZN5SPIRV14SPIRVTypeQueueD1Ev@Base 0
 _ZN5SPIRV14SPIRVTypeQueueD2Ev@Base 0
 (optional=templinst)_ZN5SPIRV14SPIRVUnaryInstILN3spv2OpE109EED0Ev@Base 0
 (optional=templinst)_ZN5SPIRV14SPIRVUnaryInstILN3spv2OpE109EED1Ev@Base 0
 (optional=templinst)_ZN5SPIRV14SPIRVUnaryInstILN3spv2OpE109EED2Ev@Base 0
 (optional=templinst)_ZN5SPIRV14SPIRVUnaryInstILN3spv2OpE110EED0Ev@Base 0
 (optional=templinst)_ZN5SPIRV14SPIRVUnaryInstILN3spv2OpE110EED1Ev@Base 0
 (optional=templinst)_ZN5SPIRV14SPIRVUnaryInstILN3spv2OpE110EED2Ev@Base 0
 (optional=templinst)_ZN5SPIRV14SPIRVUnaryInstILN3spv2OpE111EED0Ev@Base 0
 (optional=templinst)_ZN5SPIRV14SPIRVUnaryInstILN3spv2OpE111EED1Ev@Base 0
 (optional=templinst)_ZN5SPIRV14SPIRVUnaryInstILN3spv2OpE111EED2Ev@Base 0
 (optional=templinst)_ZN5SPIRV14SPIRVUnaryInstILN3spv2OpE112EED0Ev@Base 0
 (optional=templinst)_ZN5SPIRV14SPIRVUnaryInstILN3spv2OpE112EED1Ev@Base 0
 (optional=templinst)_ZN5SPIRV14SPIRVUnaryInstILN3spv2OpE112EED2Ev@Base 0
 (optional=templinst)_ZN5SPIRV14SPIRVUnaryInstILN3spv2OpE113EED0Ev@Base 0
 (optional=templinst)_ZN5SPIRV14SPIRVUnaryInstILN3spv2OpE113EED1Ev@Base 0
 (optional=templinst)_ZN5SPIRV14SPIRVUnaryInstILN3spv2OpE113EED2Ev@Base 0
 (optional=templinst)_ZN5SPIRV14SPIRVUnaryInstILN3spv2OpE114EED0Ev@Base 0
 (optional=templinst)_ZN5SPIRV14SPIRVUnaryInstILN3spv2OpE114EED1Ev@Base 0
 (optional=templinst)_ZN5SPIRV14SPIRVUnaryInstILN3spv2OpE114EED2Ev@Base 0
 (optional=templinst)_ZN5SPIRV14SPIRVUnaryInstILN3spv2OpE115EED0Ev@Base 0
 (optional=templinst)_ZN5SPIRV14SPIRVUnaryInstILN3spv2OpE115EED1Ev@Base 0
 (optional=templinst)_ZN5SPIRV14SPIRVUnaryInstILN3spv2OpE115EED2Ev@Base 0
 (optional=templinst)_ZN5SPIRV14SPIRVUnaryInstILN3spv2OpE117EED0Ev@Base 0
 (optional=templinst)_ZN5SPIRV14SPIRVUnaryInstILN3spv2OpE117EED1Ev@Base 0
 (optional=templinst)_ZN5SPIRV14SPIRVUnaryInstILN3spv2OpE117EED2Ev@Base 0
 (optional=templinst)_ZN5SPIRV14SPIRVUnaryInstILN3spv2OpE118EED0Ev@Base 0
 (optional=templinst)_ZN5SPIRV14SPIRVUnaryInstILN3spv2OpE118EED1Ev@Base 0
 (optional=templinst)_ZN5SPIRV14SPIRVUnaryInstILN3spv2OpE118EED2Ev@Base 0
 (optional=templinst)_ZN5SPIRV14SPIRVUnaryInstILN3spv2OpE119EED0Ev@Base 0
 (optional=templinst)_ZN5SPIRV14SPIRVUnaryInstILN3spv2OpE119EED1Ev@Base 0
 (optional=templinst)_ZN5SPIRV14SPIRVUnaryInstILN3spv2OpE119EED2Ev@Base 0
 (optional=templinst)_ZN5SPIRV14SPIRVUnaryInstILN3spv2OpE120EED0Ev@Base 0
 (optional=templinst)_ZN5SPIRV14SPIRVUnaryInstILN3spv2OpE120EED1Ev@Base 0
 (optional=templinst)_ZN5SPIRV14SPIRVUnaryInstILN3spv2OpE120EED2Ev@Base 0
 (optional=templinst)_ZN5SPIRV14SPIRVUnaryInstILN3spv2OpE121EED0Ev@Base 0
 (optional=templinst)_ZN5SPIRV14SPIRVUnaryInstILN3spv2OpE121EED1Ev@Base 0
 (optional=templinst)_ZN5SPIRV14SPIRVUnaryInstILN3spv2OpE121EED2Ev@Base 0
 (optional=templinst)_ZN5SPIRV14SPIRVUnaryInstILN3spv2OpE122EED0Ev@Base 0
 (optional=templinst)_ZN5SPIRV14SPIRVUnaryInstILN3spv2OpE122EED1Ev@Base 0
 (optional=templinst)_ZN5SPIRV14SPIRVUnaryInstILN3spv2OpE122EED2Ev@Base 0
 (optional=templinst)_ZN5SPIRV14SPIRVUnaryInstILN3spv2OpE124EED0Ev@Base 0
 (optional=templinst)_ZN5SPIRV14SPIRVUnaryInstILN3spv2OpE124EED1Ev@Base 0
 (optional=templinst)_ZN5SPIRV14SPIRVUnaryInstILN3spv2OpE124EED2Ev@Base 0
 (optional=templinst)_ZN5SPIRV14SPIRVUnaryInstILN3spv2OpE126EED0Ev@Base 0
 (optional=templinst)_ZN5SPIRV14SPIRVUnaryInstILN3spv2OpE126EED1Ev@Base 0
 (optional=templinst)_ZN5SPIRV14SPIRVUnaryInstILN3spv2OpE126EED2Ev@Base 0
 (optional=templinst)_ZN5SPIRV14SPIRVUnaryInstILN3spv2OpE127EED0Ev@Base 0
 (optional=templinst)_ZN5SPIRV14SPIRVUnaryInstILN3spv2OpE127EED1Ev@Base 0
 (optional=templinst)_ZN5SPIRV14SPIRVUnaryInstILN3spv2OpE127EED2Ev@Base 0
 (optional=templinst)_ZN5SPIRV14SPIRVUnaryInstILN3spv2OpE154EED0Ev@Base 0
 (optional=templinst)_ZN5SPIRV14SPIRVUnaryInstILN3spv2OpE154EED1Ev@Base 0
 (optional=templinst)_ZN5SPIRV14SPIRVUnaryInstILN3spv2OpE154EED2Ev@Base 0
 (optional=templinst)_ZN5SPIRV14SPIRVUnaryInstILN3spv2OpE155EED0Ev@Base 0
 (optional=templinst)_ZN5SPIRV14SPIRVUnaryInstILN3spv2OpE155EED1Ev@Base 0
 (optional=templinst)_ZN5SPIRV14SPIRVUnaryInstILN3spv2OpE155EED2Ev@Base 0
 (optional=templinst)_ZN5SPIRV14SPIRVUnaryInstILN3spv2OpE156EED0Ev@Base 0
 (optional=templinst)_ZN5SPIRV14SPIRVUnaryInstILN3spv2OpE156EED1Ev@Base 0
 (optional=templinst)_ZN5SPIRV14SPIRVUnaryInstILN3spv2OpE156EED2Ev@Base 0
 (optional=templinst)_ZN5SPIRV14SPIRVUnaryInstILN3spv2OpE157EED0Ev@Base 0
 (optional=templinst)_ZN5SPIRV14SPIRVUnaryInstILN3spv2OpE157EED1Ev@Base 0
 (optional=templinst)_ZN5SPIRV14SPIRVUnaryInstILN3spv2OpE157EED2Ev@Base 0
 (optional=templinst)_ZN5SPIRV14SPIRVUnaryInstILN3spv2OpE158EED0Ev@Base 0
 (optional=templinst)_ZN5SPIRV14SPIRVUnaryInstILN3spv2OpE158EED1Ev@Base 0
 (optional=templinst)_ZN5SPIRV14SPIRVUnaryInstILN3spv2OpE158EED2Ev@Base 0
 (optional=templinst)_ZN5SPIRV14SPIRVUnaryInstILN3spv2OpE159EED0Ev@Base 0
 (optional=templinst)_ZN5SPIRV14SPIRVUnaryInstILN3spv2OpE159EED1Ev@Base 0
 (optional=templinst)_ZN5SPIRV14SPIRVUnaryInstILN3spv2OpE159EED2Ev@Base 0
 (optional=templinst)_ZN5SPIRV14SPIRVUnaryInstILN3spv2OpE160EED0Ev@Base 0
 (optional=templinst)_ZN5SPIRV14SPIRVUnaryInstILN3spv2OpE160EED1Ev@Base 0
 (optional=templinst)_ZN5SPIRV14SPIRVUnaryInstILN3spv2OpE160EED2Ev@Base 0
 (optional=templinst)_ZN5SPIRV14SPIRVUnaryInstILN3spv2OpE168EED0Ev@Base 0
 (optional=templinst)_ZN5SPIRV14SPIRVUnaryInstILN3spv2OpE168EED1Ev@Base 0
 (optional=templinst)_ZN5SPIRV14SPIRVUnaryInstILN3spv2OpE168EED2Ev@Base 0
 (optional=templinst)_ZN5SPIRV14SPIRVUnaryInstILN3spv2OpE200EED0Ev@Base 0
 (optional=templinst)_ZN5SPIRV14SPIRVUnaryInstILN3spv2OpE200EED1Ev@Base 0
 (optional=templinst)_ZN5SPIRV14SPIRVUnaryInstILN3spv2OpE200EED2Ev@Base 0
 (optional=templinst)_ZN5SPIRV14SPIRVUnaryInstILN3spv2OpE204EED0Ev@Base 0
 (optional=templinst)_ZN5SPIRV14SPIRVUnaryInstILN3spv2OpE204EED1Ev@Base 0
 (optional=templinst)_ZN5SPIRV14SPIRVUnaryInstILN3spv2OpE204EED2Ev@Base 0
 (optional=templinst)_ZN5SPIRV14SPIRVUnaryInstILN3spv2OpE205EED0Ev@Base 0
 (optional=templinst)_ZN5SPIRV14SPIRVUnaryInstILN3spv2OpE205EED1Ev@Base 0
 (optional=templinst)_ZN5SPIRV14SPIRVUnaryInstILN3spv2OpE205EED2Ev@Base 0
 (optional=templinst)_ZN5SPIRV14SPIRVUnaryInstILN3spv2OpE5934EED0Ev@Base 0
 (optional=templinst)_ZN5SPIRV14SPIRVUnaryInstILN3spv2OpE5934EED1Ev@Base 0
 (optional=templinst)_ZN5SPIRV14SPIRVUnaryInstILN3spv2OpE5934EED2Ev@Base 0
 (optional=templinst)_ZN5SPIRV14SPIRVUnaryInstILN3spv2OpE5938EED0Ev@Base 0
 (optional=templinst)_ZN5SPIRV14SPIRVUnaryInstILN3spv2OpE5938EED1Ev@Base 0
 (optional=templinst)_ZN5SPIRV14SPIRVUnaryInstILN3spv2OpE5938EED2Ev@Base 0
 _ZN5SPIRV14TranslatorOpts19enableAllExtensionsEv@Base 0
 _ZN5SPIRV14addDecorationsEPNS_10SPIRVValueERKN4llvm15SmallVectorImplINSt7__cxx1112basic_stringIcSt11char_traitsIcESaIcEEEEE@Base 0
 _ZN5SPIRV14getSPIRVFuncOCEN4llvm9StringRefEPNS0_15SmallVectorImplINSt7__cxx1112basic_stringIcSt11char_traitsIcESaIcEEEEE@Base 0
 _ZN5SPIRV14getSPIRVSourceB5cxx11EPN4llvm6ModuleE@Base 0
 _ZN5SPIRV14getSamplerTypeEPN4llvm6ModuleE@Base 0
 _ZN5SPIRV14isOCLImageTypeEPN4llvm4TypeEPNS0_9StringRefE@Base 0
 (optional=templinst)_ZN5SPIRV14mutateCallInstEPN4llvm6ModuleEPNS0_8CallInstESt8functionIFNSt7__cxx1112basic_stringIcSt11char_traitsIcESaIcEEES4_RSt6vectorIPNS0_5ValueESaISE_EEEEPNS_21BuiltinFuncMangleInfoEPNS0_13AttributeListEb@Base 0
 (optional=templinst)_ZN5SPIRV14mutateCallInstEPN4llvm6ModuleEPNS0_8CallInstESt8functionIFNSt7__cxx1112basic_stringIcSt11char_traitsIcESaIcEEES4_RSt6vectorIPNS0_5ValueESaISE_EERPNS0_4TypeEEES5_IFPNS0_11InstructionES4_EEPNS_21BuiltinFuncMangleInfoEPNS0_13AttributeListEb@Base 0
 (optional=templinst)_ZN5SPIRV14mutateFunctionEPN4llvm8FunctionESt8functionIFNSt7__cxx1112basic_stringIcSt11char_traitsIcESaIcEEEPNS0_8CallInstERSt6vectorIPNS0_5ValueESaISE_EEEEPNS_21BuiltinFuncMangleInfoEPNS0_13AttributeListEb@Base 0
 _ZN5SPIRV14saveLLVMModuleEPN4llvm6ModuleERKNSt7__cxx1112basic_stringIcSt11char_traitsIcESaIcEEE@Base 0
 _ZN5SPIRV15EnableDbgOutputE@Base 0
 (optional=templinst)_ZN5SPIRV15SPIRVAnnotationILN3spv2OpE15EED0Ev@Base 0
 (optional=templinst)_ZN5SPIRV15SPIRVAnnotationILN3spv2OpE15EED1Ev@Base 0
 (optional=templinst)_ZN5SPIRV15SPIRVAnnotationILN3spv2OpE15EED2Ev@Base 0
 (optional=templinst)_ZN5SPIRV15SPIRVAnnotationILN3spv2OpE16EED0Ev@Base 0
 (optional=templinst)_ZN5SPIRV15SPIRVAnnotationILN3spv2OpE16EED1Ev@Base 0
 (optional=templinst)_ZN5SPIRV15SPIRVAnnotationILN3spv2OpE16EED2Ev@Base 0
 (optional=templinst)_ZN5SPIRV15SPIRVAnnotationILN3spv2OpE5EED0Ev@Base 0
 (optional=templinst)_ZN5SPIRV15SPIRVAnnotationILN3spv2OpE5EED1Ev@Base 0
 (optional=templinst)_ZN5SPIRV15SPIRVAnnotationILN3spv2OpE5EED2Ev@Base 0
 _ZN5SPIRV15SPIRVBasicBlock10getDecoderERSi@Base 0
 _ZN5SPIRV15SPIRVBasicBlock14addInstructionEPNS_16SPIRVInstructionEPKS1_@Base 0
 _ZN5SPIRV15SPIRVBasicBlock6decodeERSi@Base 0
 _ZN5SPIRV15SPIRVBasicBlock8setScopeEPNS_10SPIRVEntryE@Base 0
 _ZN5SPIRV15SPIRVBasicBlockC1EjPNS_13SPIRVFunctionE@Base 0
 _ZN5SPIRV15SPIRVBasicBlockC2EjPNS_13SPIRVFunctionE@Base 0
 _ZN5SPIRV15SPIRVBasicBlockD0Ev@Base 0
 _ZN5SPIRV15SPIRVBasicBlockD1Ev@Base 0
 _ZN5SPIRV15SPIRVBasicBlockD2Ev@Base 0
 (optional=templinst)_ZN5SPIRV15SPIRVBinaryInstILN3spv2OpE128EED0Ev@Base 0
 (optional=templinst)_ZN5SPIRV15SPIRVBinaryInstILN3spv2OpE128EED1Ev@Base 0
 (optional=templinst)_ZN5SPIRV15SPIRVBinaryInstILN3spv2OpE128EED2Ev@Base 0
 (optional=templinst)_ZN5SPIRV15SPIRVBinaryInstILN3spv2OpE129EED0Ev@Base 0
 (optional=templinst)_ZN5SPIRV15SPIRVBinaryInstILN3spv2OpE129EED1Ev@Base 0
 (optional=templinst)_ZN5SPIRV15SPIRVBinaryInstILN3spv2OpE129EED2Ev@Base 0
 (optional=templinst)_ZN5SPIRV15SPIRVBinaryInstILN3spv2OpE130EED0Ev@Base 0
 (optional=templinst)_ZN5SPIRV15SPIRVBinaryInstILN3spv2OpE130EED1Ev@Base 0
 (optional=templinst)_ZN5SPIRV15SPIRVBinaryInstILN3spv2OpE130EED2Ev@Base 0
 (optional=templinst)_ZN5SPIRV15SPIRVBinaryInstILN3spv2OpE131EED0Ev@Base 0
 (optional=templinst)_ZN5SPIRV15SPIRVBinaryInstILN3spv2OpE131EED1Ev@Base 0
 (optional=templinst)_ZN5SPIRV15SPIRVBinaryInstILN3spv2OpE131EED2Ev@Base 0
 (optional=templinst)_ZN5SPIRV15SPIRVBinaryInstILN3spv2OpE132EED0Ev@Base 0
 (optional=templinst)_ZN5SPIRV15SPIRVBinaryInstILN3spv2OpE132EED1Ev@Base 0
 (optional=templinst)_ZN5SPIRV15SPIRVBinaryInstILN3spv2OpE132EED2Ev@Base 0
 (optional=templinst)_ZN5SPIRV15SPIRVBinaryInstILN3spv2OpE133EED0Ev@Base 0
 (optional=templinst)_ZN5SPIRV15SPIRVBinaryInstILN3spv2OpE133EED1Ev@Base 0
 (optional=templinst)_ZN5SPIRV15SPIRVBinaryInstILN3spv2OpE133EED2Ev@Base 0
 (optional=templinst)_ZN5SPIRV15SPIRVBinaryInstILN3spv2OpE134EED0Ev@Base 0
 (optional=templinst)_ZN5SPIRV15SPIRVBinaryInstILN3spv2OpE134EED1Ev@Base 0
 (optional=templinst)_ZN5SPIRV15SPIRVBinaryInstILN3spv2OpE134EED2Ev@Base 0
 (optional=templinst)_ZN5SPIRV15SPIRVBinaryInstILN3spv2OpE135EED0Ev@Base 0
 (optional=templinst)_ZN5SPIRV15SPIRVBinaryInstILN3spv2OpE135EED1Ev@Base 0
 (optional=templinst)_ZN5SPIRV15SPIRVBinaryInstILN3spv2OpE135EED2Ev@Base 0
 (optional=templinst)_ZN5SPIRV15SPIRVBinaryInstILN3spv2OpE136EED0Ev@Base 0
 (optional=templinst)_ZN5SPIRV15SPIRVBinaryInstILN3spv2OpE136EED1Ev@Base 0
 (optional=templinst)_ZN5SPIRV15SPIRVBinaryInstILN3spv2OpE136EED2Ev@Base 0
 (optional=templinst)_ZN5SPIRV15SPIRVBinaryInstILN3spv2OpE137EED0Ev@Base 0
 (optional=templinst)_ZN5SPIRV15SPIRVBinaryInstILN3spv2OpE137EED1Ev@Base 0
 (optional=templinst)_ZN5SPIRV15SPIRVBinaryInstILN3spv2OpE137EED2Ev@Base 0
 (optional=templinst)_ZN5SPIRV15SPIRVBinaryInstILN3spv2OpE138EED0Ev@Base 0
 (optional=templinst)_ZN5SPIRV15SPIRVBinaryInstILN3spv2OpE138EED1Ev@Base 0
 (optional=templinst)_ZN5SPIRV15SPIRVBinaryInstILN3spv2OpE138EED2Ev@Base 0
 (optional=templinst)_ZN5SPIRV15SPIRVBinaryInstILN3spv2OpE140EED0Ev@Base 0
 (optional=templinst)_ZN5SPIRV15SPIRVBinaryInstILN3spv2OpE140EED1Ev@Base 0
 (optional=templinst)_ZN5SPIRV15SPIRVBinaryInstILN3spv2OpE140EED2Ev@Base 0
 (optional=templinst)_ZN5SPIRV15SPIRVBinaryInstILN3spv2OpE148EED0Ev@Base 0
 (optional=templinst)_ZN5SPIRV15SPIRVBinaryInstILN3spv2OpE148EED1Ev@Base 0
 (optional=templinst)_ZN5SPIRV15SPIRVBinaryInstILN3spv2OpE148EED2Ev@Base 0
 (optional=templinst)_ZN5SPIRV15SPIRVBinaryInstILN3spv2OpE164EED0Ev@Base 0
 (optional=templinst)_ZN5SPIRV15SPIRVBinaryInstILN3spv2OpE164EED1Ev@Base 0
 (optional=templinst)_ZN5SPIRV15SPIRVBinaryInstILN3spv2OpE164EED2Ev@Base 0
 (optional=templinst)_ZN5SPIRV15SPIRVBinaryInstILN3spv2OpE165EED0Ev@Base 0
 (optional=templinst)_ZN5SPIRV15SPIRVBinaryInstILN3spv2OpE165EED1Ev@Base 0
 (optional=templinst)_ZN5SPIRV15SPIRVBinaryInstILN3spv2OpE165EED2Ev@Base 0
 (optional=templinst)_ZN5SPIRV15SPIRVBinaryInstILN3spv2OpE166EED0Ev@Base 0
 (optional=templinst)_ZN5SPIRV15SPIRVBinaryInstILN3spv2OpE166EED1Ev@Base 0
 (optional=templinst)_ZN5SPIRV15SPIRVBinaryInstILN3spv2OpE166EED2Ev@Base 0
 (optional=templinst)_ZN5SPIRV15SPIRVBinaryInstILN3spv2OpE167EED0Ev@Base 0
 (optional=templinst)_ZN5SPIRV15SPIRVBinaryInstILN3spv2OpE167EED1Ev@Base 0
 (optional=templinst)_ZN5SPIRV15SPIRVBinaryInstILN3spv2OpE167EED2Ev@Base 0
 (optional=templinst)_ZN5SPIRV15SPIRVBinaryInstILN3spv2OpE194EED0Ev@Base 0
 (optional=templinst)_ZN5SPIRV15SPIRVBinaryInstILN3spv2OpE194EED1Ev@Base 0
 (optional=templinst)_ZN5SPIRV15SPIRVBinaryInstILN3spv2OpE194EED2Ev@Base 0
 (optional=templinst)_ZN5SPIRV15SPIRVBinaryInstILN3spv2OpE195EED0Ev@Base 0
 (optional=templinst)_ZN5SPIRV15SPIRVBinaryInstILN3spv2OpE195EED1Ev@Base 0
 (optional=templinst)_ZN5SPIRV15SPIRVBinaryInstILN3spv2OpE195EED2Ev@Base 0
 (optional=templinst)_ZN5SPIRV15SPIRVBinaryInstILN3spv2OpE196EED0Ev@Base 0
 (optional=templinst)_ZN5SPIRV15SPIRVBinaryInstILN3spv2OpE196EED1Ev@Base 0
 (optional=templinst)_ZN5SPIRV15SPIRVBinaryInstILN3spv2OpE196EED2Ev@Base 0
 (optional=templinst)_ZN5SPIRV15SPIRVBinaryInstILN3spv2OpE197EED0Ev@Base 0
 (optional=templinst)_ZN5SPIRV15SPIRVBinaryInstILN3spv2OpE197EED1Ev@Base 0
 (optional=templinst)_ZN5SPIRV15SPIRVBinaryInstILN3spv2OpE197EED2Ev@Base 0
 (optional=templinst)_ZN5SPIRV15SPIRVBinaryInstILN3spv2OpE198EED0Ev@Base 0
 (optional=templinst)_ZN5SPIRV15SPIRVBinaryInstILN3spv2OpE198EED1Ev@Base 0
 (optional=templinst)_ZN5SPIRV15SPIRVBinaryInstILN3spv2OpE198EED2Ev@Base 0
 (optional=templinst)_ZN5SPIRV15SPIRVBinaryInstILN3spv2OpE199EED0Ev@Base 0
 (optional=templinst)_ZN5SPIRV15SPIRVBinaryInstILN3spv2OpE199EED1Ev@Base 0
 (optional=templinst)_ZN5SPIRV15SPIRVBinaryInstILN3spv2OpE199EED2Ev@Base 0
 _ZN5SPIRV15SPIRVCapability6decodeERSi@Base 0
 _ZN5SPIRV15SPIRVCapabilityC1EPNS_11SPIRVModuleEN3spv10CapabilityE@Base 0
 _ZN5SPIRV15SPIRVCapabilityC2EPNS_11SPIRVModuleEN3spv10CapabilityE@Base 0
 _ZN5SPIRV15SPIRVCapabilityD0Ev@Base 0
 _ZN5SPIRV15SPIRVCapabilityD1Ev@Base 0
 _ZN5SPIRV15SPIRVCapabilityD2Ev@Base 0
 _ZN5SPIRV15SPIRVCopyMemory12setWordCountEj@Base 0
 _ZN5SPIRV15SPIRVCopyMemory6decodeERSi@Base 0
 _ZN5SPIRV15SPIRVCopyMemoryD0Ev@Base 0
 _ZN5SPIRV15SPIRVCopyMemoryD1Ev@Base 0
 _ZN5SPIRV15SPIRVCopyMemoryD2Ev@Base 0
 _ZN5SPIRV15SPIRVCopyObject6decodeERSi@Base 0
 _ZN5SPIRV15SPIRVCopyObjectD0Ev@Base 0
 _ZN5SPIRV15SPIRVCopyObjectD1Ev@Base 0
 _ZN5SPIRV15SPIRVCopyObjectD2Ev@Base 0
 _ZN5SPIRV15SPIRVEntryPoint6decodeERSi@Base 0
 _ZN5SPIRV15SPIRVEntryPointC1EPNS_11SPIRVModuleEN3spv14ExecutionModelEjRKNSt7__cxx1112basic_stringIcSt11char_traitsIcESaIcEEESt6vectorIjSaIjEE@Base 0
 _ZN5SPIRV15SPIRVEntryPointC2EPNS_11SPIRVModuleEN3spv14ExecutionModelEjRKNSt7__cxx1112basic_stringIcSt11char_traitsIcESaIcEEESt6vectorIjSaIjEE@Base 0
 _ZN5SPIRV15SPIRVEntryPointD0Ev@Base 0
 _ZN5SPIRV15SPIRVEntryPointD1Ev@Base 0
 _ZN5SPIRV15SPIRVEntryPointD2Ev@Base 0
 _ZN5SPIRV15SPIRVLowerConstE@Base 0
 _ZN5SPIRV15SPIRVMemberName6decodeERSi@Base 0
 _ZN5SPIRV15SPIRVMemberNameD0Ev@Base 0
 _ZN5SPIRV15SPIRVMemberNameD1Ev@Base 0
 _ZN5SPIRV15SPIRVMemberNameD2Ev@Base 0
 _ZN5SPIRV15SPIRVModuleImpl10addCmpInstEN3spv2OpEPNS_9SPIRVTypeEPNS_10SPIRVValueES6_PNS_15SPIRVBasicBlockE@Base 0
 _ZN5SPIRV15SPIRVModuleImpl10addExtInstEPNS_9SPIRVTypeEjjRKSt6vectorIPNS_10SPIRVValueESaIS5_EEPNS_15SPIRVBasicBlockEPNS_16SPIRVInstructionE@Base 0
 _ZN5SPIRV15SPIRVModuleImpl10addExtInstEPNS_9SPIRVTypeEjjRKSt6vectorIjSaIjEEPNS_15SPIRVBasicBlockEPNS_16SPIRVInstructionE@Base 0
 _ZN5SPIRV15SPIRVModuleImpl10addForwardEPNS_9SPIRVTypeE@Base 0
 _ZN5SPIRV15SPIRVModuleImpl10addForwardEjPNS_9SPIRVTypeE@Base 0
 _ZN5SPIRV15SPIRVModuleImpl10addPhiInstEPNS_9SPIRVTypeESt6vectorIPNS_10SPIRVValueESaIS5_EEPNS_15SPIRVBasicBlockE@Base 0
 _ZN5SPIRV15SPIRVModuleImpl11addAsmINTELEPNS_17SPIRVTypeFunctionEPNS_19SPIRVAsmTargetINTELERKNSt7__cxx1112basic_stringIcSt11char_traitsIcESaIcEEESC_@Base 0
 _ZN5SPIRV15SPIRVModuleImpl11addBoolTypeEv@Base 0
 _ZN5SPIRV15SPIRVModuleImpl11addCallInstEPNS_13SPIRVFunctionERKSt6vectorIjSaIjEEPNS_15SPIRVBasicBlockE@Base 0
 _ZN5SPIRV15SPIRVModuleImpl11addConstantEPNS_10SPIRVValueE@Base 0
 (subst)_ZN5SPIRV15SPIRVModuleImpl11addConstantEPNS_9SPIRVTypeE{uint64_t}@Base 0
 _ZN5SPIRV15SPIRVModuleImpl11addDecorateEPNS_20SPIRVDecorateGenericE@Base 0
 _ZN5SPIRV15SPIRVModuleImpl11addFModInstEPNS_9SPIRVTypeEjjPNS_15SPIRVBasicBlockE@Base 0
 _ZN5SPIRV15SPIRVModuleImpl11addFunctionEPNS_13SPIRVFunctionE@Base 0
 _ZN5SPIRV15SPIRVModuleImpl11addFunctionEPNS_17SPIRVTypeFunctionEj@Base 0
 _ZN5SPIRV15SPIRVModuleImpl11addLoadInstEPNS_10SPIRVValueERKSt6vectorIjSaIjEEPNS_15SPIRVBasicBlockE@Base 0
 _ZN5SPIRV15SPIRVModuleImpl11addPipeTypeEv@Base 0
 _ZN5SPIRV15SPIRVModuleImpl11addVariableEPNS_9SPIRVTypeEbN3spv11LinkageTypeEPNS_10SPIRVValueERKNSt7__cxx1112basic_stringIcSt11char_traitsIcESaIcEEENS3_12StorageClassEPNS_15SPIRVBasicBlockE@Base 0
 _ZN5SPIRV15SPIRVModuleImpl11addVoidTypeEv@Base 0
 _ZN5SPIRV15SPIRVModuleImpl11getErrorLogEv@Base 0
 _ZN5SPIRV15SPIRVModuleImpl11layoutEntryEPNS_10SPIRVEntryE@Base 0
 _ZN5SPIRV15SPIRVModuleImpl12addArrayTypeEPNS_9SPIRVTypeEPNS_17SPIRVConstantBaseILN3spv2OpE43EEE@Base 0
 _ZN5SPIRV15SPIRVModuleImpl12addDebugInfoEjPNS_9SPIRVTypeERKSt6vectorIjSaIjEE@Base 0
 _ZN5SPIRV15SPIRVModuleImpl12addExtensionENS_11ExtensionIDE@Base 0
 _ZN5SPIRV15SPIRVModuleImpl12addFloatTypeEj@Base 0
 _ZN5SPIRV15SPIRVModuleImpl12addGroupInstEN3spv2OpEPNS_9SPIRVTypeENS1_5ScopeERKSt6vectorIPNS_10SPIRVValueESaIS8_EEPNS_15SPIRVBasicBlockE@Base 0
 _ZN5SPIRV15SPIRVModuleImpl12addImageTypeEPNS_9SPIRVTypeERKNS_24SPIRVTypeImageDescriptorE@Base 0
 _ZN5SPIRV15SPIRVModuleImpl12addImageTypeEPNS_9SPIRVTypeERKNS_24SPIRVTypeImageDescriptorEN3spv15AccessQualifierE@Base 0
 _ZN5SPIRV15SPIRVModuleImpl12addQueueTypeEv@Base 0
 _ZN5SPIRV15SPIRVModuleImpl12addStoreInstEPNS_10SPIRVValueES2_RKSt6vectorIjSaIjEEPNS_15SPIRVBasicBlockE@Base 0
 _ZN5SPIRV15SPIRVModuleImpl12addUnaryInstEN3spv2OpEPNS_9SPIRVTypeEPNS_10SPIRVValueEPNS_15SPIRVBasicBlockE@Base 0
 _ZN5SPIRV15SPIRVModuleImpl12getExtensionB5cxx11Ev@Base 0
 _ZN5SPIRV15SPIRVModuleImpl12setAlignmentEPNS_10SPIRVValueEj@Base 0
 _ZN5SPIRV15SPIRVModuleImpl13addBasicBlockEPNS_13SPIRVFunctionEj@Base 0
 _ZN5SPIRV15SPIRVModuleImpl13addBinaryInstEN3spv2OpEPNS_9SPIRVTypeEPNS_10SPIRVValueES6_PNS_15SPIRVBasicBlockE@Base 0
 _ZN5SPIRV15SPIRVModuleImpl13addBranchInstEPNS_15SPIRVBasicBlockES2_@Base 0
 _ZN5SPIRV15SPIRVModuleImpl13addCapabilityEN3spv10CapabilityE@Base 0
 _ZN5SPIRV15SPIRVModuleImpl13addEntryPointEN3spv14ExecutionModelEj@Base 0
 _ZN5SPIRV15SPIRVModuleImpl13addMemberNameEPNS_15SPIRVTypeStructEjRKNSt7__cxx1112basic_stringIcSt11char_traitsIcESaIcEEE@Base 0
 _ZN5SPIRV15SPIRVModuleImpl13addOpaqueTypeERKNSt7__cxx1112basic_stringIcSt11char_traitsIcESaIcEEE@Base 0
 _ZN5SPIRV15SPIRVModuleImpl13addReturnInstEPNS_15SPIRVBasicBlockE@Base 0
 _ZN5SPIRV15SPIRVModuleImpl13addSelectInstEPNS_10SPIRVValueES2_S2_PNS_15SPIRVBasicBlockE@Base 0
 _ZN5SPIRV15SPIRVModuleImpl13addSwitchInstEPNS_10SPIRVValueEPNS_15SPIRVBasicBlockERKSt6vectorISt4pairIS5_IjSaIjEES4_ESaIS9_EES4_@Base 0
 _ZN5SPIRV15SPIRVModuleImpl13addVectorTypeEPNS_9SPIRVTypeEj@Base 0
 _ZN5SPIRV15SPIRVModuleImpl14addInstructionEPNS_16SPIRVInstructionEPNS_15SPIRVBasicBlockES2_@Base 0
 _ZN5SPIRV15SPIRVModuleImpl14addIntegerTypeEj@Base 0
 _ZN5SPIRV15SPIRVModuleImpl14addPointerTypeEN3spv12StorageClassEPNS_9SPIRVTypeE@Base 0
 _ZN5SPIRV15SPIRVModuleImpl14addSamplerTypeEv@Base 0
 _ZN5SPIRV15SPIRVModuleImpl14checkExtensionENS_11ExtensionIDENS_14SPIRVErrorCodeERKNSt7__cxx1112basic_stringIcSt11char_traitsIcESaIcEEE@Base 0
 _ZN5SPIRV15SPIRVModuleImpl14openStructTypeEjRKNSt7__cxx1112basic_stringIcSt11char_traitsIcESaIcEEE@Base 0
 _ZN5SPIRV15SPIRVModuleImpl14replaceForwardEPNS_12SPIRVForwardEPNS_10SPIRVEntryE@Base 0
 _ZN5SPIRV15SPIRVModuleImpl14setCurrentLineERKSt10shared_ptrIKNS_9SPIRVLineEE@Base 0
 _ZN5SPIRV15SPIRVModuleImpl14setGeneratorIdEt@Base 0
 _ZN5SPIRV15SPIRVModuleImpl14setMemoryModelEN3spv11MemoryModelE@Base 0
 _ZN5SPIRV15SPIRVModuleImpl15addFunctionTypeEPNS_9SPIRVTypeERKSt6vectorIS2_SaIS2_EE@Base 0
 _ZN5SPIRV15SPIRVModuleImpl15addInstTemplateEN3spv2OpEPNS_15SPIRVBasicBlockEPNS_9SPIRVTypeE@Base 0
 _ZN5SPIRV15SPIRVModuleImpl15addInstTemplateEN3spv2OpERKSt6vectorIjSaIjEEPNS_15SPIRVBasicBlockEPNS_9SPIRVTypeE@Base 0
 _ZN5SPIRV15SPIRVModuleImpl15addLifetimeInstEN3spv2OpEPNS_10SPIRVValueEjPNS_15SPIRVBasicBlockE@Base 0
 _ZN5SPIRV15SPIRVModuleImpl15addNullConstantEPNS_9SPIRVTypeE@Base 0
 (subst)_ZN5SPIRV15SPIRVModuleImpl15addSpecConstantEPNS_9SPIRVTypeE{uint64_t}@Base 0
 _ZN5SPIRV15SPIRVModuleImpl15closeStructTypeEPNS_15SPIRVTypeStructEb@Base 0
 _ZN5SPIRV15SPIRVModuleImpl15setGeneratorVerEt@Base 0
 _ZN5SPIRV15SPIRVModuleImpl15setSPIRVVersionEj@Base 0
 _ZN5SPIRV15SPIRVModuleImpl16addFloatConstantEPNS_14SPIRVTypeFloatEf@Base 0
 _ZN5SPIRV15SPIRVModuleImpl16addGroupDecorateEPNS_20SPIRVDecorationGroupERKSt6vectorIPNS_10SPIRVEntryESaIS5_EE@Base 0
 _ZN5SPIRV15SPIRVModuleImpl16addLoopMergeInstEjjjSt6vectorIjSaIjEEPNS_15SPIRVBasicBlockE@Base 0
 _ZN5SPIRV15SPIRVModuleImpl16addTransposeInstEPNS_9SPIRVTypeEjPNS_15SPIRVBasicBlockE@Base 0
 _ZN5SPIRV15SPIRVModuleImpl16eraseInstructionEPNS_16SPIRVInstructionEPNS_15SPIRVBasicBlockE@Base 0
 _ZN5SPIRV15SPIRVModuleImpl16importBuiltinSetERKNSt7__cxx1112basic_stringIcSt11char_traitsIcESaIcEEEPj@Base 0
 _ZN5SPIRV15SPIRVModuleImpl17addAsyncGroupCopyEPNS_10SPIRVValueES2_S2_S2_S2_S2_PNS_15SPIRVBasicBlockE@Base 0
 _ZN5SPIRV15SPIRVModuleImpl17addCopyMemoryInstEPNS_10SPIRVValueES2_RKSt6vectorIjSaIjEEPNS_15SPIRVBasicBlockE@Base 0
 _ZN5SPIRV15SPIRVModuleImpl17addCopyObjectInstEPNS_9SPIRVTypeEPNS_10SPIRVValueEPNS_15SPIRVBasicBlockE@Base 0
 _ZN5SPIRV15SPIRVModuleImpl17addDoubleConstantEPNS_14SPIRVTypeFloatEd@Base 0
 _ZN5SPIRV15SPIRVModuleImpl17optimizeDecoratesEv@Base 0
 _ZN5SPIRV15SPIRVModuleImpl17setSourceLanguageEN3spv14SourceLanguageEj@Base 0
 _ZN5SPIRV15SPIRVModuleImpl18addDecorationGroupEPNS_20SPIRVDecorationGroupE@Base 0
 _ZN5SPIRV15SPIRVModuleImpl18addDecorationGroupEv@Base 0
 _ZN5SPIRV15SPIRVModuleImpl18addDeviceEventTypeEv@Base 0
 _ZN5SPIRV15SPIRVModuleImpl18addExpectINTELInstEPNS_9SPIRVTypeEPNS_10SPIRVValueES4_PNS_15SPIRVBasicBlockE@Base 0
 (subst)_ZN5SPIRV15SPIRVModuleImpl18addIntegerConstantEPNS_12SPIRVTypeIntE{uint64_t}@Base 0
 _ZN5SPIRV15SPIRVModuleImpl18addPipeStorageTypeEv@Base 0
 _ZN5SPIRV15SPIRVModuleImpl18addReturnValueInstEPNS_10SPIRVValueEPNS_15SPIRVBasicBlockE@Base 0
 _ZN5SPIRV15SPIRVModuleImpl18addSamplerConstantEPNS_9SPIRVTypeEjjj@Base 0
 _ZN5SPIRV15SPIRVModuleImpl18addUnreachableInstEPNS_15SPIRVBasicBlockE@Base 0
 _ZN5SPIRV15SPIRVModuleImpl18getAddressingModelEv@Base 0
 _ZN5SPIRV15SPIRVModuleImpl18getSourceExtensionB5cxx11Ev@Base 0
 _ZN5SPIRV15SPIRVModuleImpl18setAddressingModelEN3spv15AddressingModelE@Base 0
 _ZN5SPIRV15SPIRVModuleImpl19addAsmCallINTELInstEPNS_13SPIRVAsmINTELERKSt6vectorIjSaIjEEPNS_15SPIRVBasicBlockE@Base 0
 _ZN5SPIRV15SPIRVModuleImpl19addFPGARegINTELInstEPNS_9SPIRVTypeEPNS_10SPIRVValueEPNS_15SPIRVBasicBlockE@Base 0
 _ZN5SPIRV15SPIRVModuleImpl19addIndirectCallInstEPNS_10SPIRVValueEPNS_9SPIRVTypeERKSt6vectorIjSaIjEEPNS_15SPIRVBasicBlockE@Base 0
 _ZN5SPIRV15SPIRVModuleImpl19addSampledImageInstEPNS_9SPIRVTypeEPNS_10SPIRVValueES4_PNS_15SPIRVBasicBlockE@Base 0
 _ZN5SPIRV15SPIRVModuleImpl19addSampledImageTypeEPNS_14SPIRVTypeImageE@Base 0
 _ZN5SPIRV15SPIRVModuleImpl20addCompositeConstantEPNS_9SPIRVTypeERKSt6vectorIPNS_10SPIRVValueESaIS5_EE@Base 0
 _ZN5SPIRV15SPIRVModuleImpl20addMemoryBarrierInstEN3spv5ScopeEjPNS_15SPIRVBasicBlockE@Base 0
 _ZN5SPIRV15SPIRVModuleImpl20addOpaqueGenericTypeEN3spv2OpE@Base 0
 _ZN5SPIRV15SPIRVModuleImpl20addVectorShuffleInstEPNS_9SPIRVTypeEPNS_10SPIRVValueES4_RKSt6vectorIjSaIjEEPNS_15SPIRVBasicBlockE@Base 0
 _ZN5SPIRV15SPIRVModuleImpl20addVmeImageINTELTypeEPNS_14SPIRVTypeImageE@Base 0
 _ZN5SPIRV15SPIRVModuleImpl20getLiteralAsConstantEj@Base 0
 _ZN5SPIRV15SPIRVModuleImpl21addCapabilityInternalEN3spv10CapabilityE@Base 0
 _ZN5SPIRV15SPIRVModuleImpl21addControlBarrierInstEPNS_10SPIRVValueES2_S2_PNS_15SPIRVBasicBlockE@Base 0
 _ZN5SPIRV15SPIRVModuleImpl21addPtrAccessChainInstEPNS_9SPIRVTypeEPNS_10SPIRVValueESt6vectorIS4_SaIS4_EEPNS_15SPIRVBasicBlockEb@Base 0
 _ZN5SPIRV15SPIRVModuleImpl21addSelectionMergeInstEjjPNS_15SPIRVBasicBlockE@Base 0
 _ZN5SPIRV15SPIRVModuleImpl21addUnknownStructFieldEPNS_15SPIRVTypeStructEjj@Base 0
 _ZN5SPIRV15SPIRVModuleImpl21createForwardPointersEv@Base 0
 _ZN5SPIRV15SPIRVModuleImpl22addAssumeTrueINTELInstEPNS_10SPIRVValueEPNS_15SPIRVBasicBlockE@Base 0
 _ZN5SPIRV15SPIRVModuleImpl22addCompositeInsertInstEPNS_10SPIRVValueES2_RKSt6vectorIjSaIjEEPNS_15SPIRVBasicBlockE@Base 0
 _ZN5SPIRV15SPIRVModuleImpl22addCopyMemorySizedInstEPNS_10SPIRVValueES2_S2_RKSt6vectorIjSaIjEEPNS_15SPIRVBasicBlockE@Base 0
 _ZN5SPIRV15SPIRVModuleImpl22addGroupMemberDecorateEPNS_20SPIRVDecorationGroupERKSt6vectorIPNS_10SPIRVEntryESaIS5_EE@Base 0
 _ZN5SPIRV15SPIRVModuleImpl22addPipeStorageConstantEPNS_9SPIRVTypeEjjj@Base 0
 _ZN5SPIRV15SPIRVModuleImpl22getOrAddAsmTargetINTELERKNSt7__cxx1112basic_stringIcSt11char_traitsIcESaIcEEE@Base 0
 _ZN5SPIRV15SPIRVModuleImpl22importBuiltinSetWithIdERKNSt7__cxx1112basic_stringIcSt11char_traitsIcESaIcEEEj@Base 0
 _ZN5SPIRV15SPIRVModuleImpl23addCompositeExtractInstEPNS_9SPIRVTypeEPNS_10SPIRVValueERKSt6vectorIjSaIjEEPNS_15SPIRVBasicBlockE@Base 0
 _ZN5SPIRV15SPIRVModuleImpl23addGroupDecorateGenericEPNS_25SPIRVGroupDecorateGenericE@Base 0
 _ZN5SPIRV15SPIRVModuleImpl23addLoopControlINTELInstEjSt6vectorIjSaIjEEPNS_15SPIRVBasicBlockE@Base 0
 _ZN5SPIRV15SPIRVModuleImpl23addSubgroupAvcINTELTypeEN3spv2OpE@Base 0
 _ZN5SPIRV15SPIRVModuleImpl24addBranchConditionalInstEPNS_10SPIRVValueEPNS_15SPIRVBasicBlockES4_S4_@Base 0
 _ZN5SPIRV15SPIRVModuleImpl24addMatrixTimesMatrixInstEPNS_9SPIRVTypeEjjPNS_15SPIRVBasicBlockE@Base 0
 _ZN5SPIRV15SPIRVModuleImpl24addMatrixTimesScalarInstEPNS_9SPIRVTypeEjjPNS_15SPIRVBasicBlockE@Base 0
 _ZN5SPIRV15SPIRVModuleImpl24addMatrixTimesVectorInstEPNS_9SPIRVTypeEjjPNS_15SPIRVBasicBlockE@Base 0
 _ZN5SPIRV15SPIRVModuleImpl24addVectorTimesMatrixInstEPNS_9SPIRVTypeEjjPNS_15SPIRVBasicBlockE@Base 0
 _ZN5SPIRV15SPIRVModuleImpl24addVectorTimesScalarInstEPNS_9SPIRVTypeEjjPNS_15SPIRVBasicBlockE@Base 0
 _ZN5SPIRV15SPIRVModuleImpl25addArbFloatPointIntelInstEN3spv2OpEPNS_9SPIRVTypeEPNS_10SPIRVValueES6_RKSt6vectorIjSaIjEEPNS_15SPIRVBasicBlockE@Base 0
 _ZN5SPIRV15SPIRVModuleImpl25addBufferSurfaceINTELTypeEN3spv15AccessQualifierE@Base 0
 _ZN5SPIRV15SPIRVModuleImpl25addCompositeConstructInstEPNS_9SPIRVTypeERKSt6vectorIjSaIjEEPNS_15SPIRVBasicBlockE@Base 0
 _ZN5SPIRV15SPIRVModuleImpl26addVectorInsertDynamicInstEPNS_10SPIRVValueES2_S2_PNS_15SPIRVBasicBlockE@Base 0
 _ZN5SPIRV15SPIRVModuleImpl26resolveUnknownStructFieldsEv@Base 0
 _ZN5SPIRV15SPIRVModuleImpl27addVectorExtractDynamicInstEPNS_10SPIRVValueES2_PNS_15SPIRVBasicBlockE@Base 0
 _ZN5SPIRV15SPIRVModuleImpl28addConstFunctionPointerINTELEPNS_9SPIRVTypeEPNS_13SPIRVFunctionE@Base 0
 _ZN5SPIRV15SPIRVModuleImpl5getIdEjj@Base 0
 _ZN5SPIRV15SPIRVModuleImpl7addLineEPNS_10SPIRVEntryEjjj@Base 0
 _ZN5SPIRV15SPIRVModuleImpl7setNameEPNS_10SPIRVEntryERKNSt7__cxx1112basic_stringIcSt11char_traitsIcESaIcEEE@Base 0
 _ZN5SPIRV15SPIRVModuleImpl8addEntryEPNS_10SPIRVEntryE@Base 0
 _ZN5SPIRV15SPIRVModuleImpl8addUndefEPNS_9SPIRVTypeE@Base 0
 _ZN5SPIRV15SPIRVModuleImpl8getErrorERNSt7__cxx1112basic_stringIcSt11char_traitsIcESaIcEEE@Base 0
 _ZN5SPIRV15SPIRVModuleImpl9getStringERKNSt7__cxx1112basic_stringIcSt11char_traitsIcESaIcEEE@Base 0
 _ZN5SPIRV15SPIRVModuleImplD0Ev@Base 0
 _ZN5SPIRV15SPIRVModuleImplD1Ev@Base 0
 _ZN5SPIRV15SPIRVModuleImplD2Ev@Base 0
 _ZN5SPIRV15SPIRVTypeMatrix6decodeERSi@Base 0
 _ZN5SPIRV15SPIRVTypeMatrixD0Ev@Base 0
 _ZN5SPIRV15SPIRVTypeMatrixD1Ev@Base 0
 _ZN5SPIRV15SPIRVTypeMatrixD2Ev@Base 0
 _ZN5SPIRV15SPIRVTypeOpaque6decodeERSi@Base 0
 _ZN5SPIRV15SPIRVTypeOpaqueD0Ev@Base 0
 _ZN5SPIRV15SPIRVTypeOpaqueD1Ev@Base 0
 _ZN5SPIRV15SPIRVTypeOpaqueD2Ev@Base 0
 _ZN5SPIRV15SPIRVTypeStruct12setWordCountEj@Base 0
 _ZN5SPIRV15SPIRVTypeStruct6decodeERSi@Base 0
 _ZN5SPIRV15SPIRVTypeStruct9setPackedEb@Base 0
 _ZN5SPIRV15SPIRVTypeStructD0Ev@Base 0
 _ZN5SPIRV15SPIRVTypeStructD1Ev@Base 0
 _ZN5SPIRV15SPIRVTypeStructD2Ev@Base 0
 _ZN5SPIRV15SPIRVTypeVector6decodeERSi@Base 0
 _ZN5SPIRV15SPIRVTypeVectorD0Ev@Base 0
 _ZN5SPIRV15SPIRVTypeVectorD1Ev@Base 0
 _ZN5SPIRV15SPIRVTypeVectorD2Ev@Base 0
 _ZN5SPIRV15TopologicalSort5visitEPNS_10SPIRVEntryE@Base 0
 _ZN5SPIRV15getSPIRVBuiltinERKNSt7__cxx1112basic_stringIcSt11char_traitsIcESaIcEEERN3spv7BuiltInE@Base 0
 _ZN5SPIRV15getVoidFuncTypeEPN4llvm6ModuleE@Base 0
 _ZN5SPIRV15hasLoopMetadataEPKN4llvm6ModuleE@Base 0
 _ZN5SPIRV15isMangledTypeFPEc@Base 0
 _ZN5SPIRV15prefixSPIRVNameERKNSt7__cxx1112basic_stringIcSt11char_traitsIcESaIcEEE@Base 0
 _ZN5SPIRV15readSpirvModuleERSiRKNS_14TranslatorOptsERNSt7__cxx1112basic_stringIcSt11char_traitsIcESaIcEEE@Base 0
 _ZN5SPIRV15readSpirvModuleERSiRNSt7__cxx1112basic_stringIcSt11char_traitsIcESaIcEEE@Base 0
 (arch=!hurd-i386 !i386 !mipsel !powerpc !ppc64 !s390x)_ZN5SPIRV16SPIRVDecorateSet6insertERPNS_20SPIRVDecorateGenericE@Base 0
 _ZN5SPIRV16SPIRVInstruction11getOperandsEv@Base 0
 _ZN5SPIRV16SPIRVInstruction15getOperandTypesERKSt6vectorIPNS_10SPIRVValueESaIS3_EE@Base 0
 _ZN5SPIRV16SPIRVInstruction15getOperandTypesEv@Base 0
 _ZN5SPIRV16SPIRVInstruction17hasFPRoundingModeEPN3spv14FPRoundingModeE@Base 0
 _ZN5SPIRV16SPIRVInstruction21isSaturatedConversionEv@Base 0
 _ZN5SPIRV16SPIRVInstruction8setScopeEPNS_10SPIRVEntryE@Base 0
 _ZN5SPIRV16SPIRVInstruction9setParentEPNS_15SPIRVBasicBlockE@Base 0
 _ZN5SPIRV16SPIRVInstructionC1EjN3spv2OpEPNS_15SPIRVBasicBlockE@Base 0
 _ZN5SPIRV16SPIRVInstructionC1EjN3spv2OpEPNS_9SPIRVTypeEPNS_15SPIRVBasicBlockE@Base 0
 _ZN5SPIRV16SPIRVInstructionC1EjN3spv2OpEPNS_9SPIRVTypeEjPNS_11SPIRVModuleEPNS_15SPIRVBasicBlockE@Base 0
 _ZN5SPIRV16SPIRVInstructionC1EjN3spv2OpEPNS_9SPIRVTypeEjPNS_15SPIRVBasicBlockE@Base 0
 _ZN5SPIRV16SPIRVInstructionC1EjN3spv2OpEPNS_9SPIRVTypeEjPNS_15SPIRVBasicBlockEPNS_11SPIRVModuleE@Base 0
 _ZN5SPIRV16SPIRVInstructionC1EjN3spv2OpEjPNS_15SPIRVBasicBlockE@Base 0
 _ZN5SPIRV16SPIRVInstructionC2EjN3spv2OpEPNS_15SPIRVBasicBlockE@Base 0
 _ZN5SPIRV16SPIRVInstructionC2EjN3spv2OpEPNS_9SPIRVTypeEPNS_15SPIRVBasicBlockE@Base 0
 _ZN5SPIRV16SPIRVInstructionC2EjN3spv2OpEPNS_9SPIRVTypeEjPNS_11SPIRVModuleEPNS_15SPIRVBasicBlockE@Base 0
 _ZN5SPIRV16SPIRVInstructionC2EjN3spv2OpEPNS_9SPIRVTypeEjPNS_15SPIRVBasicBlockE@Base 0
 _ZN5SPIRV16SPIRVInstructionC2EjN3spv2OpEPNS_9SPIRVTypeEjPNS_15SPIRVBasicBlockEPNS_11SPIRVModuleE@Base 0
 _ZN5SPIRV16SPIRVInstructionC2EjN3spv2OpEjPNS_15SPIRVBasicBlockE@Base 0
 _ZN5SPIRV16SPIRVInstructionD0Ev@Base 0
 _ZN5SPIRV16SPIRVInstructionD1Ev@Base 0
 _ZN5SPIRV16SPIRVInstructionD2Ev@Base 0
 _ZN5SPIRV16SPIRVMemoryModel6decodeERSi@Base 0
 _ZN5SPIRV16SPIRVMemoryModelD0Ev@Base 0
 _ZN5SPIRV16SPIRVMemoryModelD1Ev@Base 0
 _ZN5SPIRV16SPIRVMemoryModelD2Ev@Base 0
 _ZN5SPIRV16SPIRVReturnValue6decodeERSi@Base 0
 _ZN5SPIRV16SPIRVReturnValueD0Ev@Base 0
 _ZN5SPIRV16SPIRVReturnValueD1Ev@Base 0
 _ZN5SPIRV16SPIRVReturnValueD2Ev@Base 0
 _ZN5SPIRV16SPIRVTypePointer6decodeERSi@Base 0
 _ZN5SPIRV16SPIRVTypePointerD0Ev@Base 0
 _ZN5SPIRV16SPIRVTypePointerD1Ev@Base 0
 _ZN5SPIRV16SPIRVTypePointerD2Ev@Base 0
 _ZN5SPIRV16SPIRVTypeSampler6decodeERSi@Base 0
 _ZN5SPIRV16SPIRVTypeSamplerD0Ev@Base 0
 _ZN5SPIRV16SPIRVTypeSamplerD1Ev@Base 0
 _ZN5SPIRV16SPIRVTypeSamplerD2Ev@Base 0
 _ZN5SPIRV16addCallInstSPIRVEPN4llvm6ModuleENS0_9StringRefEPNS0_4TypeENS0_8ArrayRefIPNS0_5ValueEEEPNS0_13AttributeListEPNS0_11InstructionES3_@Base 0
 _ZN5SPIRV16getSPIRVFuncNameB5cxx11EN3spv2OpEN4llvm9StringRefE@Base 0
 _ZN5SPIRV16getSPIRVFuncNameB5cxx11EN3spv2OpEPKN4llvm4TypeEb@Base 0
 _ZN5SPIRV16getSPIRVTypeNameB5cxx11EN4llvm9StringRefES1_@Base 0
 _ZN5SPIRV16getScalarOrArrayEPN4llvm5ValueEjPNS0_11InstructionE@Base 0
 _ZN5SPIRV17SPIRVAsmCallINTEL12setWordCountEj@Base 0
 _ZN5SPIRV17SPIRVAsmCallINTEL6decodeERSi@Base 0
 _ZN5SPIRV17SPIRVAsmCallINTELD0Ev@Base 0
 _ZN5SPIRV17SPIRVAsmCallINTELD1Ev@Base 0
 _ZN5SPIRV17SPIRVAsmCallINTELD2Ev@Base 0
 (optional=templinst)_ZN5SPIRV17SPIRVConstantBaseILN3spv2OpE43EE12setWordCountEj@Base 0
 (optional=templinst)_ZN5SPIRV17SPIRVConstantBaseILN3spv2OpE43EE6decodeERSi@Base 0
 (optional=templinst)_ZN5SPIRV17SPIRVConstantBaseILN3spv2OpE43EED0Ev@Base 0
 (optional=templinst)_ZN5SPIRV17SPIRVConstantBaseILN3spv2OpE43EED1Ev@Base 0
 (optional=templinst)_ZN5SPIRV17SPIRVConstantBaseILN3spv2OpE43EED2Ev@Base 0
 (optional=templinst)_ZN5SPIRV17SPIRVConstantBaseILN3spv2OpE50EE12setWordCountEj@Base 0
 (optional=templinst)_ZN5SPIRV17SPIRVConstantBaseILN3spv2OpE50EE6decodeERSi@Base 0
 (optional=templinst)_ZN5SPIRV17SPIRVConstantBaseILN3spv2OpE50EED0Ev@Base 0
 (optional=templinst)_ZN5SPIRV17SPIRVConstantBaseILN3spv2OpE50EED1Ev@Base 0
 (optional=templinst)_ZN5SPIRV17SPIRVConstantBaseILN3spv2OpE50EED2Ev@Base 0
 (optional=templinst)_ZN5SPIRV17SPIRVConstantBoolILN3spv2OpE41EED0Ev@Base 0
 (optional=templinst)_ZN5SPIRV17SPIRVConstantBoolILN3spv2OpE41EED1Ev@Base 0
 (optional=templinst)_ZN5SPIRV17SPIRVConstantBoolILN3spv2OpE41EED2Ev@Base 0
 (optional=templinst)_ZN5SPIRV17SPIRVConstantBoolILN3spv2OpE42EED0Ev@Base 0
 (optional=templinst)_ZN5SPIRV17SPIRVConstantBoolILN3spv2OpE42EED1Ev@Base 0
 (optional=templinst)_ZN5SPIRV17SPIRVConstantBoolILN3spv2OpE42EED2Ev@Base 0
 (optional=templinst)_ZN5SPIRV17SPIRVConstantBoolILN3spv2OpE48EED0Ev@Base 0
 (optional=templinst)_ZN5SPIRV17SPIRVConstantBoolILN3spv2OpE48EED1Ev@Base 0
 (optional=templinst)_ZN5SPIRV17SPIRVConstantBoolILN3spv2OpE48EED2Ev@Base 0
 (optional=templinst)_ZN5SPIRV17SPIRVConstantBoolILN3spv2OpE49EED0Ev@Base 0
 (optional=templinst)_ZN5SPIRV17SPIRVConstantBoolILN3spv2OpE49EED1Ev@Base 0
 (optional=templinst)_ZN5SPIRV17SPIRVConstantBoolILN3spv2OpE49EED2Ev@Base 0
 _ZN5SPIRV17SPIRVConstantNullD0Ev@Base 0
 _ZN5SPIRV17SPIRVConstantNullD1Ev@Base 0
 _ZN5SPIRV17SPIRVConstantNullD2Ev@Base 0
 _ZN5SPIRV17SPIRVFunctionCall6decodeERSi@Base 0
 _ZN5SPIRV17SPIRVFunctionCallC1EjPNS_13SPIRVFunctionERKSt6vectorIjSaIjEEPNS_15SPIRVBasicBlockE@Base 0
 _ZN5SPIRV17SPIRVFunctionCallC2EjPNS_13SPIRVFunctionERKSt6vectorIjSaIjEEPNS_15SPIRVBasicBlockE@Base 0
 _ZN5SPIRV17SPIRVFunctionCallD0Ev@Base 0
 _ZN5SPIRV17SPIRVFunctionCallD1Ev@Base 0
 _ZN5SPIRV17SPIRVFunctionCallD2Ev@Base 0
 (optional=templinst)_ZN5SPIRV17SPIRVInstTemplateINS_10SPIRVUnaryELN3spv2OpE109ELb1ELj4ELb0ELj4294967295ELj4294967295ELj4294967295EE4initEv@Base 0
 (optional=templinst)_ZN5SPIRV17SPIRVInstTemplateINS_10SPIRVUnaryELN3spv2OpE109ELb1ELj4ELb0ELj4294967295ELj4294967295ELj4294967295EED0Ev@Base 0
 (optional=templinst)_ZN5SPIRV17SPIRVInstTemplateINS_10SPIRVUnaryELN3spv2OpE109ELb1ELj4ELb0ELj4294967295ELj4294967295ELj4294967295EED1Ev@Base 0
 (optional=templinst)_ZN5SPIRV17SPIRVInstTemplateINS_10SPIRVUnaryELN3spv2OpE109ELb1ELj4ELb0ELj4294967295ELj4294967295ELj4294967295EED2Ev@Base 0
 (optional=templinst)_ZN5SPIRV17SPIRVInstTemplateINS_10SPIRVUnaryELN3spv2OpE110ELb1ELj4ELb0ELj4294967295ELj4294967295ELj4294967295EE4initEv@Base 0
 (optional=templinst)_ZN5SPIRV17SPIRVInstTemplateINS_10SPIRVUnaryELN3spv2OpE110ELb1ELj4ELb0ELj4294967295ELj4294967295ELj4294967295EED0Ev@Base 0
 (optional=templinst)_ZN5SPIRV17SPIRVInstTemplateINS_10SPIRVUnaryELN3spv2OpE110ELb1ELj4ELb0ELj4294967295ELj4294967295ELj4294967295EED1Ev@Base 0
 (optional=templinst)_ZN5SPIRV17SPIRVInstTemplateINS_10SPIRVUnaryELN3spv2OpE110ELb1ELj4ELb0ELj4294967295ELj4294967295ELj4294967295EED2Ev@Base 0
 (optional=templinst)_ZN5SPIRV17SPIRVInstTemplateINS_10SPIRVUnaryELN3spv2OpE111ELb1ELj4ELb0ELj4294967295ELj4294967295ELj4294967295EE4initEv@Base 0
 (optional=templinst)_ZN5SPIRV17SPIRVInstTemplateINS_10SPIRVUnaryELN3spv2OpE111ELb1ELj4ELb0ELj4294967295ELj4294967295ELj4294967295EED0Ev@Base 0
 (optional=templinst)_ZN5SPIRV17SPIRVInstTemplateINS_10SPIRVUnaryELN3spv2OpE111ELb1ELj4ELb0ELj4294967295ELj4294967295ELj4294967295EED1Ev@Base 0
 (optional=templinst)_ZN5SPIRV17SPIRVInstTemplateINS_10SPIRVUnaryELN3spv2OpE111ELb1ELj4ELb0ELj4294967295ELj4294967295ELj4294967295EED2Ev@Base 0
 (optional=templinst)_ZN5SPIRV17SPIRVInstTemplateINS_10SPIRVUnaryELN3spv2OpE112ELb1ELj4ELb0ELj4294967295ELj4294967295ELj4294967295EE4initEv@Base 0
 (optional=templinst)_ZN5SPIRV17SPIRVInstTemplateINS_10SPIRVUnaryELN3spv2OpE112ELb1ELj4ELb0ELj4294967295ELj4294967295ELj4294967295EED0Ev@Base 0
 (optional=templinst)_ZN5SPIRV17SPIRVInstTemplateINS_10SPIRVUnaryELN3spv2OpE112ELb1ELj4ELb0ELj4294967295ELj4294967295ELj4294967295EED1Ev@Base 0
 (optional=templinst)_ZN5SPIRV17SPIRVInstTemplateINS_10SPIRVUnaryELN3spv2OpE112ELb1ELj4ELb0ELj4294967295ELj4294967295ELj4294967295EED2Ev@Base 0
 (optional=templinst)_ZN5SPIRV17SPIRVInstTemplateINS_10SPIRVUnaryELN3spv2OpE113ELb1ELj4ELb0ELj4294967295ELj4294967295ELj4294967295EE4initEv@Base 0
 (optional=templinst)_ZN5SPIRV17SPIRVInstTemplateINS_10SPIRVUnaryELN3spv2OpE113ELb1ELj4ELb0ELj4294967295ELj4294967295ELj4294967295EED0Ev@Base 0
 (optional=templinst)_ZN5SPIRV17SPIRVInstTemplateINS_10SPIRVUnaryELN3spv2OpE113ELb1ELj4ELb0ELj4294967295ELj4294967295ELj4294967295EED1Ev@Base 0
 (optional=templinst)_ZN5SPIRV17SPIRVInstTemplateINS_10SPIRVUnaryELN3spv2OpE113ELb1ELj4ELb0ELj4294967295ELj4294967295ELj4294967295EED2Ev@Base 0
 (optional=templinst)_ZN5SPIRV17SPIRVInstTemplateINS_10SPIRVUnaryELN3spv2OpE114ELb1ELj4ELb0ELj4294967295ELj4294967295ELj4294967295EE4initEv@Base 0
 (optional=templinst)_ZN5SPIRV17SPIRVInstTemplateINS_10SPIRVUnaryELN3spv2OpE114ELb1ELj4ELb0ELj4294967295ELj4294967295ELj4294967295EED0Ev@Base 0
 (optional=templinst)_ZN5SPIRV17SPIRVInstTemplateINS_10SPIRVUnaryELN3spv2OpE114ELb1ELj4ELb0ELj4294967295ELj4294967295ELj4294967295EED1Ev@Base 0
 (optional=templinst)_ZN5SPIRV17SPIRVInstTemplateINS_10SPIRVUnaryELN3spv2OpE114ELb1ELj4ELb0ELj4294967295ELj4294967295ELj4294967295EED2Ev@Base 0
 (optional=templinst)_ZN5SPIRV17SPIRVInstTemplateINS_10SPIRVUnaryELN3spv2OpE115ELb1ELj4ELb0ELj4294967295ELj4294967295ELj4294967295EE4initEv@Base 0
 (optional=templinst)_ZN5SPIRV17SPIRVInstTemplateINS_10SPIRVUnaryELN3spv2OpE115ELb1ELj4ELb0ELj4294967295ELj4294967295ELj4294967295EED0Ev@Base 0
 (optional=templinst)_ZN5SPIRV17SPIRVInstTemplateINS_10SPIRVUnaryELN3spv2OpE115ELb1ELj4ELb0ELj4294967295ELj4294967295ELj4294967295EED1Ev@Base 0
 (optional=templinst)_ZN5SPIRV17SPIRVInstTemplateINS_10SPIRVUnaryELN3spv2OpE115ELb1ELj4ELb0ELj4294967295ELj4294967295ELj4294967295EED2Ev@Base 0
 (optional=templinst)_ZN5SPIRV17SPIRVInstTemplateINS_10SPIRVUnaryELN3spv2OpE117ELb1ELj4ELb0ELj4294967295ELj4294967295ELj4294967295EE4initEv@Base 0
 (optional=templinst)_ZN5SPIRV17SPIRVInstTemplateINS_10SPIRVUnaryELN3spv2OpE117ELb1ELj4ELb0ELj4294967295ELj4294967295ELj4294967295EED0Ev@Base 0
 (optional=templinst)_ZN5SPIRV17SPIRVInstTemplateINS_10SPIRVUnaryELN3spv2OpE117ELb1ELj4ELb0ELj4294967295ELj4294967295ELj4294967295EED1Ev@Base 0
 (optional=templinst)_ZN5SPIRV17SPIRVInstTemplateINS_10SPIRVUnaryELN3spv2OpE117ELb1ELj4ELb0ELj4294967295ELj4294967295ELj4294967295EED2Ev@Base 0
 (optional=templinst)_ZN5SPIRV17SPIRVInstTemplateINS_10SPIRVUnaryELN3spv2OpE118ELb1ELj4ELb0ELj4294967295ELj4294967295ELj4294967295EE4initEv@Base 0
 (optional=templinst)_ZN5SPIRV17SPIRVInstTemplateINS_10SPIRVUnaryELN3spv2OpE118ELb1ELj4ELb0ELj4294967295ELj4294967295ELj4294967295EED0Ev@Base 0
 (optional=templinst)_ZN5SPIRV17SPIRVInstTemplateINS_10SPIRVUnaryELN3spv2OpE118ELb1ELj4ELb0ELj4294967295ELj4294967295ELj4294967295EED1Ev@Base 0
 (optional=templinst)_ZN5SPIRV17SPIRVInstTemplateINS_10SPIRVUnaryELN3spv2OpE118ELb1ELj4ELb0ELj4294967295ELj4294967295ELj4294967295EED2Ev@Base 0
 (optional=templinst)_ZN5SPIRV17SPIRVInstTemplateINS_10SPIRVUnaryELN3spv2OpE119ELb1ELj4ELb0ELj4294967295ELj4294967295ELj4294967295EE4initEv@Base 0
 (optional=templinst)_ZN5SPIRV17SPIRVInstTemplateINS_10SPIRVUnaryELN3spv2OpE119ELb1ELj4ELb0ELj4294967295ELj4294967295ELj4294967295EED0Ev@Base 0
 (optional=templinst)_ZN5SPIRV17SPIRVInstTemplateINS_10SPIRVUnaryELN3spv2OpE119ELb1ELj4ELb0ELj4294967295ELj4294967295ELj4294967295EED1Ev@Base 0
 (optional=templinst)_ZN5SPIRV17SPIRVInstTemplateINS_10SPIRVUnaryELN3spv2OpE119ELb1ELj4ELb0ELj4294967295ELj4294967295ELj4294967295EED2Ev@Base 0
 (optional=templinst)_ZN5SPIRV17SPIRVInstTemplateINS_10SPIRVUnaryELN3spv2OpE120ELb1ELj4ELb0ELj4294967295ELj4294967295ELj4294967295EE4initEv@Base 0
 (optional=templinst)_ZN5SPIRV17SPIRVInstTemplateINS_10SPIRVUnaryELN3spv2OpE120ELb1ELj4ELb0ELj4294967295ELj4294967295ELj4294967295EED0Ev@Base 0
 (optional=templinst)_ZN5SPIRV17SPIRVInstTemplateINS_10SPIRVUnaryELN3spv2OpE120ELb1ELj4ELb0ELj4294967295ELj4294967295ELj4294967295EED1Ev@Base 0
 (optional=templinst)_ZN5SPIRV17SPIRVInstTemplateINS_10SPIRVUnaryELN3spv2OpE120ELb1ELj4ELb0ELj4294967295ELj4294967295ELj4294967295EED2Ev@Base 0
 (optional=templinst)_ZN5SPIRV17SPIRVInstTemplateINS_10SPIRVUnaryELN3spv2OpE121ELb1ELj4ELb0ELj4294967295ELj4294967295ELj4294967295EE4initEv@Base 0
 (optional=templinst)_ZN5SPIRV17SPIRVInstTemplateINS_10SPIRVUnaryELN3spv2OpE121ELb1ELj4ELb0ELj4294967295ELj4294967295ELj4294967295EED0Ev@Base 0
 (optional=templinst)_ZN5SPIRV17SPIRVInstTemplateINS_10SPIRVUnaryELN3spv2OpE121ELb1ELj4ELb0ELj4294967295ELj4294967295ELj4294967295EED1Ev@Base 0
 (optional=templinst)_ZN5SPIRV17SPIRVInstTemplateINS_10SPIRVUnaryELN3spv2OpE121ELb1ELj4ELb0ELj4294967295ELj4294967295ELj4294967295EED2Ev@Base 0
 (optional=templinst)_ZN5SPIRV17SPIRVInstTemplateINS_10SPIRVUnaryELN3spv2OpE122ELb1ELj4ELb0ELj4294967295ELj4294967295ELj4294967295EE4initEv@Base 0
 (optional=templinst)_ZN5SPIRV17SPIRVInstTemplateINS_10SPIRVUnaryELN3spv2OpE122ELb1ELj4ELb0ELj4294967295ELj4294967295ELj4294967295EED0Ev@Base 0
 (optional=templinst)_ZN5SPIRV17SPIRVInstTemplateINS_10SPIRVUnaryELN3spv2OpE122ELb1ELj4ELb0ELj4294967295ELj4294967295ELj4294967295EED1Ev@Base 0
 (optional=templinst)_ZN5SPIRV17SPIRVInstTemplateINS_10SPIRVUnaryELN3spv2OpE122ELb1ELj4ELb0ELj4294967295ELj4294967295ELj4294967295EED2Ev@Base 0
 (optional=templinst)_ZN5SPIRV17SPIRVInstTemplateINS_10SPIRVUnaryELN3spv2OpE124ELb1ELj4ELb0ELj4294967295ELj4294967295ELj4294967295EE4initEv@Base 0
 (optional=templinst)_ZN5SPIRV17SPIRVInstTemplateINS_10SPIRVUnaryELN3spv2OpE124ELb1ELj4ELb0ELj4294967295ELj4294967295ELj4294967295EED0Ev@Base 0
 (optional=templinst)_ZN5SPIRV17SPIRVInstTemplateINS_10SPIRVUnaryELN3spv2OpE124ELb1ELj4ELb0ELj4294967295ELj4294967295ELj4294967295EED1Ev@Base 0
 (optional=templinst)_ZN5SPIRV17SPIRVInstTemplateINS_10SPIRVUnaryELN3spv2OpE124ELb1ELj4ELb0ELj4294967295ELj4294967295ELj4294967295EED2Ev@Base 0
 (optional=templinst)_ZN5SPIRV17SPIRVInstTemplateINS_10SPIRVUnaryELN3spv2OpE126ELb1ELj4ELb0ELj4294967295ELj4294967295ELj4294967295EE4initEv@Base 0
 (optional=templinst)_ZN5SPIRV17SPIRVInstTemplateINS_10SPIRVUnaryELN3spv2OpE126ELb1ELj4ELb0ELj4294967295ELj4294967295ELj4294967295EED0Ev@Base 0
 (optional=templinst)_ZN5SPIRV17SPIRVInstTemplateINS_10SPIRVUnaryELN3spv2OpE126ELb1ELj4ELb0ELj4294967295ELj4294967295ELj4294967295EED1Ev@Base 0
 (optional=templinst)_ZN5SPIRV17SPIRVInstTemplateINS_10SPIRVUnaryELN3spv2OpE126ELb1ELj4ELb0ELj4294967295ELj4294967295ELj4294967295EED2Ev@Base 0
 (optional=templinst)_ZN5SPIRV17SPIRVInstTemplateINS_10SPIRVUnaryELN3spv2OpE127ELb1ELj4ELb0ELj4294967295ELj4294967295ELj4294967295EE4initEv@Base 0
 (optional=templinst)_ZN5SPIRV17SPIRVInstTemplateINS_10SPIRVUnaryELN3spv2OpE127ELb1ELj4ELb0ELj4294967295ELj4294967295ELj4294967295EED0Ev@Base 0
 (optional=templinst)_ZN5SPIRV17SPIRVInstTemplateINS_10SPIRVUnaryELN3spv2OpE127ELb1ELj4ELb0ELj4294967295ELj4294967295ELj4294967295EED1Ev@Base 0
 (optional=templinst)_ZN5SPIRV17SPIRVInstTemplateINS_10SPIRVUnaryELN3spv2OpE127ELb1ELj4ELb0ELj4294967295ELj4294967295ELj4294967295EED2Ev@Base 0
 (optional=templinst)_ZN5SPIRV17SPIRVInstTemplateINS_10SPIRVUnaryELN3spv2OpE154ELb1ELj4ELb0ELj4294967295ELj4294967295ELj4294967295EE4initEv@Base 0
 (optional=templinst)_ZN5SPIRV17SPIRVInstTemplateINS_10SPIRVUnaryELN3spv2OpE154ELb1ELj4ELb0ELj4294967295ELj4294967295ELj4294967295EED0Ev@Base 0
 (optional=templinst)_ZN5SPIRV17SPIRVInstTemplateINS_10SPIRVUnaryELN3spv2OpE154ELb1ELj4ELb0ELj4294967295ELj4294967295ELj4294967295EED1Ev@Base 0
 (optional=templinst)_ZN5SPIRV17SPIRVInstTemplateINS_10SPIRVUnaryELN3spv2OpE154ELb1ELj4ELb0ELj4294967295ELj4294967295ELj4294967295EED2Ev@Base 0
 (optional=templinst)_ZN5SPIRV17SPIRVInstTemplateINS_10SPIRVUnaryELN3spv2OpE155ELb1ELj4ELb0ELj4294967295ELj4294967295ELj4294967295EE4initEv@Base 0
 (optional=templinst)_ZN5SPIRV17SPIRVInstTemplateINS_10SPIRVUnaryELN3spv2OpE155ELb1ELj4ELb0ELj4294967295ELj4294967295ELj4294967295EED0Ev@Base 0
 (optional=templinst)_ZN5SPIRV17SPIRVInstTemplateINS_10SPIRVUnaryELN3spv2OpE155ELb1ELj4ELb0ELj4294967295ELj4294967295ELj4294967295EED1Ev@Base 0
 (optional=templinst)_ZN5SPIRV17SPIRVInstTemplateINS_10SPIRVUnaryELN3spv2OpE155ELb1ELj4ELb0ELj4294967295ELj4294967295ELj4294967295EED2Ev@Base 0
 (optional=templinst)_ZN5SPIRV17SPIRVInstTemplateINS_10SPIRVUnaryELN3spv2OpE156ELb1ELj4ELb0ELj4294967295ELj4294967295ELj4294967295EE4initEv@Base 0
 (optional=templinst)_ZN5SPIRV17SPIRVInstTemplateINS_10SPIRVUnaryELN3spv2OpE156ELb1ELj4ELb0ELj4294967295ELj4294967295ELj4294967295EED0Ev@Base 0
 (optional=templinst)_ZN5SPIRV17SPIRVInstTemplateINS_10SPIRVUnaryELN3spv2OpE156ELb1ELj4ELb0ELj4294967295ELj4294967295ELj4294967295EED1Ev@Base 0
 (optional=templinst)_ZN5SPIRV17SPIRVInstTemplateINS_10SPIRVUnaryELN3spv2OpE156ELb1ELj4ELb0ELj4294967295ELj4294967295ELj4294967295EED2Ev@Base 0
 (optional=templinst)_ZN5SPIRV17SPIRVInstTemplateINS_10SPIRVUnaryELN3spv2OpE157ELb1ELj4ELb0ELj4294967295ELj4294967295ELj4294967295EE4initEv@Base 0
 (optional=templinst)_ZN5SPIRV17SPIRVInstTemplateINS_10SPIRVUnaryELN3spv2OpE157ELb1ELj4ELb0ELj4294967295ELj4294967295ELj4294967295EED0Ev@Base 0
 (optional=templinst)_ZN5SPIRV17SPIRVInstTemplateINS_10SPIRVUnaryELN3spv2OpE157ELb1ELj4ELb0ELj4294967295ELj4294967295ELj4294967295EED1Ev@Base 0
 (optional=templinst)_ZN5SPIRV17SPIRVInstTemplateINS_10SPIRVUnaryELN3spv2OpE157ELb1ELj4ELb0ELj4294967295ELj4294967295ELj4294967295EED2Ev@Base 0
 (optional=templinst)_ZN5SPIRV17SPIRVInstTemplateINS_10SPIRVUnaryELN3spv2OpE158ELb1ELj4ELb0ELj4294967295ELj4294967295ELj4294967295EE4initEv@Base 0
 (optional=templinst)_ZN5SPIRV17SPIRVInstTemplateINS_10SPIRVUnaryELN3spv2OpE158ELb1ELj4ELb0ELj4294967295ELj4294967295ELj4294967295EED0Ev@Base 0
 (optional=templinst)_ZN5SPIRV17SPIRVInstTemplateINS_10SPIRVUnaryELN3spv2OpE158ELb1ELj4ELb0ELj4294967295ELj4294967295ELj4294967295EED1Ev@Base 0
 (optional=templinst)_ZN5SPIRV17SPIRVInstTemplateINS_10SPIRVUnaryELN3spv2OpE158ELb1ELj4ELb0ELj4294967295ELj4294967295ELj4294967295EED2Ev@Base 0
 (optional=templinst)_ZN5SPIRV17SPIRVInstTemplateINS_10SPIRVUnaryELN3spv2OpE159ELb1ELj4ELb0ELj4294967295ELj4294967295ELj4294967295EE4initEv@Base 0
 (optional=templinst)_ZN5SPIRV17SPIRVInstTemplateINS_10SPIRVUnaryELN3spv2OpE159ELb1ELj4ELb0ELj4294967295ELj4294967295ELj4294967295EED0Ev@Base 0
 (optional=templinst)_ZN5SPIRV17SPIRVInstTemplateINS_10SPIRVUnaryELN3spv2OpE159ELb1ELj4ELb0ELj4294967295ELj4294967295ELj4294967295EED1Ev@Base 0
 (optional=templinst)_ZN5SPIRV17SPIRVInstTemplateINS_10SPIRVUnaryELN3spv2OpE159ELb1ELj4ELb0ELj4294967295ELj4294967295ELj4294967295EED2Ev@Base 0
 (optional=templinst)_ZN5SPIRV17SPIRVInstTemplateINS_10SPIRVUnaryELN3spv2OpE160ELb1ELj4ELb0ELj4294967295ELj4294967295ELj4294967295EE4initEv@Base 0
 (optional=templinst)_ZN5SPIRV17SPIRVInstTemplateINS_10SPIRVUnaryELN3spv2OpE160ELb1ELj4ELb0ELj4294967295ELj4294967295ELj4294967295EED0Ev@Base 0
 (optional=templinst)_ZN5SPIRV17SPIRVInstTemplateINS_10SPIRVUnaryELN3spv2OpE160ELb1ELj4ELb0ELj4294967295ELj4294967295ELj4294967295EED1Ev@Base 0
 (optional=templinst)_ZN5SPIRV17SPIRVInstTemplateINS_10SPIRVUnaryELN3spv2OpE160ELb1ELj4ELb0ELj4294967295ELj4294967295ELj4294967295EED2Ev@Base 0
 (optional=templinst)_ZN5SPIRV17SPIRVInstTemplateINS_10SPIRVUnaryELN3spv2OpE168ELb1ELj4ELb0ELj4294967295ELj4294967295ELj4294967295EE4initEv@Base 0
 (optional=templinst)_ZN5SPIRV17SPIRVInstTemplateINS_10SPIRVUnaryELN3spv2OpE168ELb1ELj4ELb0ELj4294967295ELj4294967295ELj4294967295EED0Ev@Base 0
 (optional=templinst)_ZN5SPIRV17SPIRVInstTemplateINS_10SPIRVUnaryELN3spv2OpE168ELb1ELj4ELb0ELj4294967295ELj4294967295ELj4294967295EED1Ev@Base 0
 (optional=templinst)_ZN5SPIRV17SPIRVInstTemplateINS_10SPIRVUnaryELN3spv2OpE168ELb1ELj4ELb0ELj4294967295ELj4294967295ELj4294967295EED2Ev@Base 0
 (optional=templinst)_ZN5SPIRV17SPIRVInstTemplateINS_10SPIRVUnaryELN3spv2OpE200ELb1ELj4ELb0ELj4294967295ELj4294967295ELj4294967295EE4initEv@Base 0
 (optional=templinst)_ZN5SPIRV17SPIRVInstTemplateINS_10SPIRVUnaryELN3spv2OpE200ELb1ELj4ELb0ELj4294967295ELj4294967295ELj4294967295EED0Ev@Base 0
 (optional=templinst)_ZN5SPIRV17SPIRVInstTemplateINS_10SPIRVUnaryELN3spv2OpE200ELb1ELj4ELb0ELj4294967295ELj4294967295ELj4294967295EED1Ev@Base 0
 (optional=templinst)_ZN5SPIRV17SPIRVInstTemplateINS_10SPIRVUnaryELN3spv2OpE200ELb1ELj4ELb0ELj4294967295ELj4294967295ELj4294967295EED2Ev@Base 0
 (optional=templinst)_ZN5SPIRV17SPIRVInstTemplateINS_10SPIRVUnaryELN3spv2OpE204ELb1ELj4ELb0ELj4294967295ELj4294967295ELj4294967295EE4initEv@Base 0
 (optional=templinst)_ZN5SPIRV17SPIRVInstTemplateINS_10SPIRVUnaryELN3spv2OpE204ELb1ELj4ELb0ELj4294967295ELj4294967295ELj4294967295EED0Ev@Base 0
 (optional=templinst)_ZN5SPIRV17SPIRVInstTemplateINS_10SPIRVUnaryELN3spv2OpE204ELb1ELj4ELb0ELj4294967295ELj4294967295ELj4294967295EED1Ev@Base 0
 (optional=templinst)_ZN5SPIRV17SPIRVInstTemplateINS_10SPIRVUnaryELN3spv2OpE204ELb1ELj4ELb0ELj4294967295ELj4294967295ELj4294967295EED2Ev@Base 0
 (optional=templinst)_ZN5SPIRV17SPIRVInstTemplateINS_10SPIRVUnaryELN3spv2OpE205ELb1ELj4ELb0ELj4294967295ELj4294967295ELj4294967295EE4initEv@Base 0
 (optional=templinst)_ZN5SPIRV17SPIRVInstTemplateINS_10SPIRVUnaryELN3spv2OpE205ELb1ELj4ELb0ELj4294967295ELj4294967295ELj4294967295EED0Ev@Base 0
 (optional=templinst)_ZN5SPIRV17SPIRVInstTemplateINS_10SPIRVUnaryELN3spv2OpE205ELb1ELj4ELb0ELj4294967295ELj4294967295ELj4294967295EED1Ev@Base 0
 (optional=templinst)_ZN5SPIRV17SPIRVInstTemplateINS_10SPIRVUnaryELN3spv2OpE205ELb1ELj4ELb0ELj4294967295ELj4294967295ELj4294967295EED2Ev@Base 0
 (optional=templinst)_ZN5SPIRV17SPIRVInstTemplateINS_10SPIRVUnaryELN3spv2OpE5934ELb1ELj4ELb0ELj4294967295ELj4294967295ELj4294967295EE4initEv@Base 0
 (optional=templinst)_ZN5SPIRV17SPIRVInstTemplateINS_10SPIRVUnaryELN3spv2OpE5934ELb1ELj4ELb0ELj4294967295ELj4294967295ELj4294967295EED0Ev@Base 0
 (optional=templinst)_ZN5SPIRV17SPIRVInstTemplateINS_10SPIRVUnaryELN3spv2OpE5934ELb1ELj4ELb0ELj4294967295ELj4294967295ELj4294967295EED1Ev@Base 0
 (optional=templinst)_ZN5SPIRV17SPIRVInstTemplateINS_10SPIRVUnaryELN3spv2OpE5934ELb1ELj4ELb0ELj4294967295ELj4294967295ELj4294967295EED2Ev@Base 0
 (optional=templinst)_ZN5SPIRV17SPIRVInstTemplateINS_10SPIRVUnaryELN3spv2OpE5938ELb1ELj4ELb0ELj4294967295ELj4294967295ELj4294967295EE4initEv@Base 0
 (optional=templinst)_ZN5SPIRV17SPIRVInstTemplateINS_10SPIRVUnaryELN3spv2OpE5938ELb1ELj4ELb0ELj4294967295ELj4294967295ELj4294967295EED0Ev@Base 0
 (optional=templinst)_ZN5SPIRV17SPIRVInstTemplateINS_10SPIRVUnaryELN3spv2OpE5938ELb1ELj4ELb0ELj4294967295ELj4294967295ELj4294967295EED1Ev@Base 0
 (optional=templinst)_ZN5SPIRV17SPIRVInstTemplateINS_10SPIRVUnaryELN3spv2OpE5938ELb1ELj4ELb0ELj4294967295ELj4294967295ELj4294967295EED2Ev@Base 0
 (optional=templinst)_ZN5SPIRV17SPIRVInstTemplateINS_11SPIRVBinaryELN3spv2OpE128ELb1ELj5ELb0ELj4294967295ELj4294967295ELj4294967295EE4initEv@Base 0
 (optional=templinst)_ZN5SPIRV17SPIRVInstTemplateINS_11SPIRVBinaryELN3spv2OpE128ELb1ELj5ELb0ELj4294967295ELj4294967295ELj4294967295EED0Ev@Base 0
 (optional=templinst)_ZN5SPIRV17SPIRVInstTemplateINS_11SPIRVBinaryELN3spv2OpE128ELb1ELj5ELb0ELj4294967295ELj4294967295ELj4294967295EED1Ev@Base 0
 (optional=templinst)_ZN5SPIRV17SPIRVInstTemplateINS_11SPIRVBinaryELN3spv2OpE128ELb1ELj5ELb0ELj4294967295ELj4294967295ELj4294967295EED2Ev@Base 0
 (optional=templinst)_ZN5SPIRV17SPIRVInstTemplateINS_11SPIRVBinaryELN3spv2OpE129ELb1ELj5ELb0ELj4294967295ELj4294967295ELj4294967295EE4initEv@Base 0
 (optional=templinst)_ZN5SPIRV17SPIRVInstTemplateINS_11SPIRVBinaryELN3spv2OpE129ELb1ELj5ELb0ELj4294967295ELj4294967295ELj4294967295EED0Ev@Base 0
 (optional=templinst)_ZN5SPIRV17SPIRVInstTemplateINS_11SPIRVBinaryELN3spv2OpE129ELb1ELj5ELb0ELj4294967295ELj4294967295ELj4294967295EED1Ev@Base 0
 (optional=templinst)_ZN5SPIRV17SPIRVInstTemplateINS_11SPIRVBinaryELN3spv2OpE129ELb1ELj5ELb0ELj4294967295ELj4294967295ELj4294967295EED2Ev@Base 0
 (optional=templinst)_ZN5SPIRV17SPIRVInstTemplateINS_11SPIRVBinaryELN3spv2OpE130ELb1ELj5ELb0ELj4294967295ELj4294967295ELj4294967295EE4initEv@Base 0
 (optional=templinst)_ZN5SPIRV17SPIRVInstTemplateINS_11SPIRVBinaryELN3spv2OpE130ELb1ELj5ELb0ELj4294967295ELj4294967295ELj4294967295EED0Ev@Base 0
 (optional=templinst)_ZN5SPIRV17SPIRVInstTemplateINS_11SPIRVBinaryELN3spv2OpE130ELb1ELj5ELb0ELj4294967295ELj4294967295ELj4294967295EED1Ev@Base 0
 (optional=templinst)_ZN5SPIRV17SPIRVInstTemplateINS_11SPIRVBinaryELN3spv2OpE130ELb1ELj5ELb0ELj4294967295ELj4294967295ELj4294967295EED2Ev@Base 0
 (optional=templinst)_ZN5SPIRV17SPIRVInstTemplateINS_11SPIRVBinaryELN3spv2OpE131ELb1ELj5ELb0ELj4294967295ELj4294967295ELj4294967295EE4initEv@Base 0
 (optional=templinst)_ZN5SPIRV17SPIRVInstTemplateINS_11SPIRVBinaryELN3spv2OpE131ELb1ELj5ELb0ELj4294967295ELj4294967295ELj4294967295EED0Ev@Base 0
 (optional=templinst)_ZN5SPIRV17SPIRVInstTemplateINS_11SPIRVBinaryELN3spv2OpE131ELb1ELj5ELb0ELj4294967295ELj4294967295ELj4294967295EED1Ev@Base 0
 (optional=templinst)_ZN5SPIRV17SPIRVInstTemplateINS_11SPIRVBinaryELN3spv2OpE131ELb1ELj5ELb0ELj4294967295ELj4294967295ELj4294967295EED2Ev@Base 0
 (optional=templinst)_ZN5SPIRV17SPIRVInstTemplateINS_11SPIRVBinaryELN3spv2OpE132ELb1ELj5ELb0ELj4294967295ELj4294967295ELj4294967295EE4initEv@Base 0
 (optional=templinst)_ZN5SPIRV17SPIRVInstTemplateINS_11SPIRVBinaryELN3spv2OpE132ELb1ELj5ELb0ELj4294967295ELj4294967295ELj4294967295EED0Ev@Base 0
 (optional=templinst)_ZN5SPIRV17SPIRVInstTemplateINS_11SPIRVBinaryELN3spv2OpE132ELb1ELj5ELb0ELj4294967295ELj4294967295ELj4294967295EED1Ev@Base 0
 (optional=templinst)_ZN5SPIRV17SPIRVInstTemplateINS_11SPIRVBinaryELN3spv2OpE132ELb1ELj5ELb0ELj4294967295ELj4294967295ELj4294967295EED2Ev@Base 0
 (optional=templinst)_ZN5SPIRV17SPIRVInstTemplateINS_11SPIRVBinaryELN3spv2OpE133ELb1ELj5ELb0ELj4294967295ELj4294967295ELj4294967295EE4initEv@Base 0
 (optional=templinst)_ZN5SPIRV17SPIRVInstTemplateINS_11SPIRVBinaryELN3spv2OpE133ELb1ELj5ELb0ELj4294967295ELj4294967295ELj4294967295EED0Ev@Base 0
 (optional=templinst)_ZN5SPIRV17SPIRVInstTemplateINS_11SPIRVBinaryELN3spv2OpE133ELb1ELj5ELb0ELj4294967295ELj4294967295ELj4294967295EED1Ev@Base 0
 (optional=templinst)_ZN5SPIRV17SPIRVInstTemplateINS_11SPIRVBinaryELN3spv2OpE133ELb1ELj5ELb0ELj4294967295ELj4294967295ELj4294967295EED2Ev@Base 0
 (optional=templinst)_ZN5SPIRV17SPIRVInstTemplateINS_11SPIRVBinaryELN3spv2OpE134ELb1ELj5ELb0ELj4294967295ELj4294967295ELj4294967295EE4initEv@Base 0
 (optional=templinst)_ZN5SPIRV17SPIRVInstTemplateINS_11SPIRVBinaryELN3spv2OpE134ELb1ELj5ELb0ELj4294967295ELj4294967295ELj4294967295EED0Ev@Base 0
 (optional=templinst)_ZN5SPIRV17SPIRVInstTemplateINS_11SPIRVBinaryELN3spv2OpE134ELb1ELj5ELb0ELj4294967295ELj4294967295ELj4294967295EED1Ev@Base 0
 (optional=templinst)_ZN5SPIRV17SPIRVInstTemplateINS_11SPIRVBinaryELN3spv2OpE134ELb1ELj5ELb0ELj4294967295ELj4294967295ELj4294967295EED2Ev@Base 0
 (optional=templinst)_ZN5SPIRV17SPIRVInstTemplateINS_11SPIRVBinaryELN3spv2OpE135ELb1ELj5ELb0ELj4294967295ELj4294967295ELj4294967295EE4initEv@Base 0
 (optional=templinst)_ZN5SPIRV17SPIRVInstTemplateINS_11SPIRVBinaryELN3spv2OpE135ELb1ELj5ELb0ELj4294967295ELj4294967295ELj4294967295EED0Ev@Base 0
 (optional=templinst)_ZN5SPIRV17SPIRVInstTemplateINS_11SPIRVBinaryELN3spv2OpE135ELb1ELj5ELb0ELj4294967295ELj4294967295ELj4294967295EED1Ev@Base 0
 (optional=templinst)_ZN5SPIRV17SPIRVInstTemplateINS_11SPIRVBinaryELN3spv2OpE135ELb1ELj5ELb0ELj4294967295ELj4294967295ELj4294967295EED2Ev@Base 0
 (optional=templinst)_ZN5SPIRV17SPIRVInstTemplateINS_11SPIRVBinaryELN3spv2OpE136ELb1ELj5ELb0ELj4294967295ELj4294967295ELj4294967295EE4initEv@Base 0
 (optional=templinst)_ZN5SPIRV17SPIRVInstTemplateINS_11SPIRVBinaryELN3spv2OpE136ELb1ELj5ELb0ELj4294967295ELj4294967295ELj4294967295EED0Ev@Base 0
 (optional=templinst)_ZN5SPIRV17SPIRVInstTemplateINS_11SPIRVBinaryELN3spv2OpE136ELb1ELj5ELb0ELj4294967295ELj4294967295ELj4294967295EED1Ev@Base 0
 (optional=templinst)_ZN5SPIRV17SPIRVInstTemplateINS_11SPIRVBinaryELN3spv2OpE136ELb1ELj5ELb0ELj4294967295ELj4294967295ELj4294967295EED2Ev@Base 0
 (optional=templinst)_ZN5SPIRV17SPIRVInstTemplateINS_11SPIRVBinaryELN3spv2OpE137ELb1ELj5ELb0ELj4294967295ELj4294967295ELj4294967295EE4initEv@Base 0
 (optional=templinst)_ZN5SPIRV17SPIRVInstTemplateINS_11SPIRVBinaryELN3spv2OpE137ELb1ELj5ELb0ELj4294967295ELj4294967295ELj4294967295EED0Ev@Base 0
 (optional=templinst)_ZN5SPIRV17SPIRVInstTemplateINS_11SPIRVBinaryELN3spv2OpE137ELb1ELj5ELb0ELj4294967295ELj4294967295ELj4294967295EED1Ev@Base 0
 (optional=templinst)_ZN5SPIRV17SPIRVInstTemplateINS_11SPIRVBinaryELN3spv2OpE137ELb1ELj5ELb0ELj4294967295ELj4294967295ELj4294967295EED2Ev@Base 0
 (optional=templinst)_ZN5SPIRV17SPIRVInstTemplateINS_11SPIRVBinaryELN3spv2OpE138ELb1ELj5ELb0ELj4294967295ELj4294967295ELj4294967295EE4initEv@Base 0
 (optional=templinst)_ZN5SPIRV17SPIRVInstTemplateINS_11SPIRVBinaryELN3spv2OpE138ELb1ELj5ELb0ELj4294967295ELj4294967295ELj4294967295EED0Ev@Base 0
 (optional=templinst)_ZN5SPIRV17SPIRVInstTemplateINS_11SPIRVBinaryELN3spv2OpE138ELb1ELj5ELb0ELj4294967295ELj4294967295ELj4294967295EED1Ev@Base 0
 (optional=templinst)_ZN5SPIRV17SPIRVInstTemplateINS_11SPIRVBinaryELN3spv2OpE138ELb1ELj5ELb0ELj4294967295ELj4294967295ELj4294967295EED2Ev@Base 0
 (optional=templinst)_ZN5SPIRV17SPIRVInstTemplateINS_11SPIRVBinaryELN3spv2OpE140ELb1ELj5ELb0ELj4294967295ELj4294967295ELj4294967295EE4initEv@Base 0
 (optional=templinst)_ZN5SPIRV17SPIRVInstTemplateINS_11SPIRVBinaryELN3spv2OpE140ELb1ELj5ELb0ELj4294967295ELj4294967295ELj4294967295EED0Ev@Base 0
 (optional=templinst)_ZN5SPIRV17SPIRVInstTemplateINS_11SPIRVBinaryELN3spv2OpE140ELb1ELj5ELb0ELj4294967295ELj4294967295ELj4294967295EED1Ev@Base 0
 (optional=templinst)_ZN5SPIRV17SPIRVInstTemplateINS_11SPIRVBinaryELN3spv2OpE140ELb1ELj5ELb0ELj4294967295ELj4294967295ELj4294967295EED2Ev@Base 0
 (optional=templinst)_ZN5SPIRV17SPIRVInstTemplateINS_11SPIRVBinaryELN3spv2OpE148ELb1ELj5ELb0ELj4294967295ELj4294967295ELj4294967295EE4initEv@Base 0
 (optional=templinst)_ZN5SPIRV17SPIRVInstTemplateINS_11SPIRVBinaryELN3spv2OpE148ELb1ELj5ELb0ELj4294967295ELj4294967295ELj4294967295EED0Ev@Base 0
 (optional=templinst)_ZN5SPIRV17SPIRVInstTemplateINS_11SPIRVBinaryELN3spv2OpE148ELb1ELj5ELb0ELj4294967295ELj4294967295ELj4294967295EED1Ev@Base 0
 (optional=templinst)_ZN5SPIRV17SPIRVInstTemplateINS_11SPIRVBinaryELN3spv2OpE148ELb1ELj5ELb0ELj4294967295ELj4294967295ELj4294967295EED2Ev@Base 0
 (optional=templinst)_ZN5SPIRV17SPIRVInstTemplateINS_11SPIRVBinaryELN3spv2OpE164ELb1ELj5ELb0ELj4294967295ELj4294967295ELj4294967295EE4initEv@Base 0
 (optional=templinst)_ZN5SPIRV17SPIRVInstTemplateINS_11SPIRVBinaryELN3spv2OpE164ELb1ELj5ELb0ELj4294967295ELj4294967295ELj4294967295EED0Ev@Base 0
 (optional=templinst)_ZN5SPIRV17SPIRVInstTemplateINS_11SPIRVBinaryELN3spv2OpE164ELb1ELj5ELb0ELj4294967295ELj4294967295ELj4294967295EED1Ev@Base 0
 (optional=templinst)_ZN5SPIRV17SPIRVInstTemplateINS_11SPIRVBinaryELN3spv2OpE164ELb1ELj5ELb0ELj4294967295ELj4294967295ELj4294967295EED2Ev@Base 0
 (optional=templinst)_ZN5SPIRV17SPIRVInstTemplateINS_11SPIRVBinaryELN3spv2OpE165ELb1ELj5ELb0ELj4294967295ELj4294967295ELj4294967295EE4initEv@Base 0
 (optional=templinst)_ZN5SPIRV17SPIRVInstTemplateINS_11SPIRVBinaryELN3spv2OpE165ELb1ELj5ELb0ELj4294967295ELj4294967295ELj4294967295EED0Ev@Base 0
 (optional=templinst)_ZN5SPIRV17SPIRVInstTemplateINS_11SPIRVBinaryELN3spv2OpE165ELb1ELj5ELb0ELj4294967295ELj4294967295ELj4294967295EED1Ev@Base 0
 (optional=templinst)_ZN5SPIRV17SPIRVInstTemplateINS_11SPIRVBinaryELN3spv2OpE165ELb1ELj5ELb0ELj4294967295ELj4294967295ELj4294967295EED2Ev@Base 0
 (optional=templinst)_ZN5SPIRV17SPIRVInstTemplateINS_11SPIRVBinaryELN3spv2OpE166ELb1ELj5ELb0ELj4294967295ELj4294967295ELj4294967295EE4initEv@Base 0
 (optional=templinst)_ZN5SPIRV17SPIRVInstTemplateINS_11SPIRVBinaryELN3spv2OpE166ELb1ELj5ELb0ELj4294967295ELj4294967295ELj4294967295EED0Ev@Base 0
 (optional=templinst)_ZN5SPIRV17SPIRVInstTemplateINS_11SPIRVBinaryELN3spv2OpE166ELb1ELj5ELb0ELj4294967295ELj4294967295ELj4294967295EED1Ev@Base 0
 (optional=templinst)_ZN5SPIRV17SPIRVInstTemplateINS_11SPIRVBinaryELN3spv2OpE166ELb1ELj5ELb0ELj4294967295ELj4294967295ELj4294967295EED2Ev@Base 0
 (optional=templinst)_ZN5SPIRV17SPIRVInstTemplateINS_11SPIRVBinaryELN3spv2OpE167ELb1ELj5ELb0ELj4294967295ELj4294967295ELj4294967295EE4initEv@Base 0
 (optional=templinst)_ZN5SPIRV17SPIRVInstTemplateINS_11SPIRVBinaryELN3spv2OpE167ELb1ELj5ELb0ELj4294967295ELj4294967295ELj4294967295EED0Ev@Base 0
 (optional=templinst)_ZN5SPIRV17SPIRVInstTemplateINS_11SPIRVBinaryELN3spv2OpE167ELb1ELj5ELb0ELj4294967295ELj4294967295ELj4294967295EED1Ev@Base 0
 (optional=templinst)_ZN5SPIRV17SPIRVInstTemplateINS_11SPIRVBinaryELN3spv2OpE167ELb1ELj5ELb0ELj4294967295ELj4294967295ELj4294967295EED2Ev@Base 0
 (optional=templinst)_ZN5SPIRV17SPIRVInstTemplateINS_11SPIRVBinaryELN3spv2OpE194ELb1ELj5ELb0ELj4294967295ELj4294967295ELj4294967295EE4initEv@Base 0
 (optional=templinst)_ZN5SPIRV17SPIRVInstTemplateINS_11SPIRVBinaryELN3spv2OpE194ELb1ELj5ELb0ELj4294967295ELj4294967295ELj4294967295EED0Ev@Base 0
 (optional=templinst)_ZN5SPIRV17SPIRVInstTemplateINS_11SPIRVBinaryELN3spv2OpE194ELb1ELj5ELb0ELj4294967295ELj4294967295ELj4294967295EED1Ev@Base 0
 (optional=templinst)_ZN5SPIRV17SPIRVInstTemplateINS_11SPIRVBinaryELN3spv2OpE194ELb1ELj5ELb0ELj4294967295ELj4294967295ELj4294967295EED2Ev@Base 0
 (optional=templinst)_ZN5SPIRV17SPIRVInstTemplateINS_11SPIRVBinaryELN3spv2OpE195ELb1ELj5ELb0ELj4294967295ELj4294967295ELj4294967295EE4initEv@Base 0
 (optional=templinst)_ZN5SPIRV17SPIRVInstTemplateINS_11SPIRVBinaryELN3spv2OpE195ELb1ELj5ELb0ELj4294967295ELj4294967295ELj4294967295EED0Ev@Base 0
 (optional=templinst)_ZN5SPIRV17SPIRVInstTemplateINS_11SPIRVBinaryELN3spv2OpE195ELb1ELj5ELb0ELj4294967295ELj4294967295ELj4294967295EED1Ev@Base 0
 (optional=templinst)_ZN5SPIRV17SPIRVInstTemplateINS_11SPIRVBinaryELN3spv2OpE195ELb1ELj5ELb0ELj4294967295ELj4294967295ELj4294967295EED2Ev@Base 0
 (optional=templinst)_ZN5SPIRV17SPIRVInstTemplateINS_11SPIRVBinaryELN3spv2OpE196ELb1ELj5ELb0ELj4294967295ELj4294967295ELj4294967295EE4initEv@Base 0
 (optional=templinst)_ZN5SPIRV17SPIRVInstTemplateINS_11SPIRVBinaryELN3spv2OpE196ELb1ELj5ELb0ELj4294967295ELj4294967295ELj4294967295EED0Ev@Base 0
 (optional=templinst)_ZN5SPIRV17SPIRVInstTemplateINS_11SPIRVBinaryELN3spv2OpE196ELb1ELj5ELb0ELj4294967295ELj4294967295ELj4294967295EED1Ev@Base 0
 (optional=templinst)_ZN5SPIRV17SPIRVInstTemplateINS_11SPIRVBinaryELN3spv2OpE196ELb1ELj5ELb0ELj4294967295ELj4294967295ELj4294967295EED2Ev@Base 0
 (optional=templinst)_ZN5SPIRV17SPIRVInstTemplateINS_11SPIRVBinaryELN3spv2OpE197ELb1ELj5ELb0ELj4294967295ELj4294967295ELj4294967295EE4initEv@Base 0
 (optional=templinst)_ZN5SPIRV17SPIRVInstTemplateINS_11SPIRVBinaryELN3spv2OpE197ELb1ELj5ELb0ELj4294967295ELj4294967295ELj4294967295EED0Ev@Base 0
 (optional=templinst)_ZN5SPIRV17SPIRVInstTemplateINS_11SPIRVBinaryELN3spv2OpE197ELb1ELj5ELb0ELj4294967295ELj4294967295ELj4294967295EED1Ev@Base 0
 (optional=templinst)_ZN5SPIRV17SPIRVInstTemplateINS_11SPIRVBinaryELN3spv2OpE197ELb1ELj5ELb0ELj4294967295ELj4294967295ELj4294967295EED2Ev@Base 0
 (optional=templinst)_ZN5SPIRV17SPIRVInstTemplateINS_11SPIRVBinaryELN3spv2OpE198ELb1ELj5ELb0ELj4294967295ELj4294967295ELj4294967295EE4initEv@Base 0
 (optional=templinst)_ZN5SPIRV17SPIRVInstTemplateINS_11SPIRVBinaryELN3spv2OpE198ELb1ELj5ELb0ELj4294967295ELj4294967295ELj4294967295EED0Ev@Base 0
 (optional=templinst)_ZN5SPIRV17SPIRVInstTemplateINS_11SPIRVBinaryELN3spv2OpE198ELb1ELj5ELb0ELj4294967295ELj4294967295ELj4294967295EED1Ev@Base 0
 (optional=templinst)_ZN5SPIRV17SPIRVInstTemplateINS_11SPIRVBinaryELN3spv2OpE198ELb1ELj5ELb0ELj4294967295ELj4294967295ELj4294967295EED2Ev@Base 0
 (optional=templinst)_ZN5SPIRV17SPIRVInstTemplateINS_11SPIRVBinaryELN3spv2OpE199ELb1ELj5ELb0ELj4294967295ELj4294967295ELj4294967295EE4initEv@Base 0
 (optional=templinst)_ZN5SPIRV17SPIRVInstTemplateINS_11SPIRVBinaryELN3spv2OpE199ELb1ELj5ELb0ELj4294967295ELj4294967295ELj4294967295EED0Ev@Base 0
 (optional=templinst)_ZN5SPIRV17SPIRVInstTemplateINS_11SPIRVBinaryELN3spv2OpE199ELb1ELj5ELb0ELj4294967295ELj4294967295ELj4294967295EED1Ev@Base 0
 (optional=templinst)_ZN5SPIRV17SPIRVInstTemplateINS_11SPIRVBinaryELN3spv2OpE199ELb1ELj5ELb0ELj4294967295ELj4294967295ELj4294967295EED2Ev@Base 0
 (optional=templinst)_ZN5SPIRV17SPIRVInstTemplateINS_12SPIRVCompareELN3spv2OpE161ELb1ELj5ELb0ELj4294967295ELj4294967295ELj4294967295EE4initEv@Base 0
 (optional=templinst)_ZN5SPIRV17SPIRVInstTemplateINS_12SPIRVCompareELN3spv2OpE161ELb1ELj5ELb0ELj4294967295ELj4294967295ELj4294967295EED0Ev@Base 0
 (optional=templinst)_ZN5SPIRV17SPIRVInstTemplateINS_12SPIRVCompareELN3spv2OpE161ELb1ELj5ELb0ELj4294967295ELj4294967295ELj4294967295EED1Ev@Base 0
 (optional=templinst)_ZN5SPIRV17SPIRVInstTemplateINS_12SPIRVCompareELN3spv2OpE161ELb1ELj5ELb0ELj4294967295ELj4294967295ELj4294967295EED2Ev@Base 0
 (optional=templinst)_ZN5SPIRV17SPIRVInstTemplateINS_12SPIRVCompareELN3spv2OpE162ELb1ELj5ELb0ELj4294967295ELj4294967295ELj4294967295EE4initEv@Base 0
 (optional=templinst)_ZN5SPIRV17SPIRVInstTemplateINS_12SPIRVCompareELN3spv2OpE162ELb1ELj5ELb0ELj4294967295ELj4294967295ELj4294967295EED0Ev@Base 0
 (optional=templinst)_ZN5SPIRV17SPIRVInstTemplateINS_12SPIRVCompareELN3spv2OpE162ELb1ELj5ELb0ELj4294967295ELj4294967295ELj4294967295EED1Ev@Base 0
 (optional=templinst)_ZN5SPIRV17SPIRVInstTemplateINS_12SPIRVCompareELN3spv2OpE162ELb1ELj5ELb0ELj4294967295ELj4294967295ELj4294967295EED2Ev@Base 0
 (optional=templinst)_ZN5SPIRV17SPIRVInstTemplateINS_12SPIRVCompareELN3spv2OpE163ELb1ELj5ELb0ELj4294967295ELj4294967295ELj4294967295EE4initEv@Base 0
 (optional=templinst)_ZN5SPIRV17SPIRVInstTemplateINS_12SPIRVCompareELN3spv2OpE163ELb1ELj5ELb0ELj4294967295ELj4294967295ELj4294967295EED0Ev@Base 0
 (optional=templinst)_ZN5SPIRV17SPIRVInstTemplateINS_12SPIRVCompareELN3spv2OpE163ELb1ELj5ELb0ELj4294967295ELj4294967295ELj4294967295EED1Ev@Base 0
 (optional=templinst)_ZN5SPIRV17SPIRVInstTemplateINS_12SPIRVCompareELN3spv2OpE163ELb1ELj5ELb0ELj4294967295ELj4294967295ELj4294967295EED2Ev@Base 0
 (optional=templinst)_ZN5SPIRV17SPIRVInstTemplateINS_12SPIRVCompareELN3spv2OpE170ELb1ELj5ELb0ELj4294967295ELj4294967295ELj4294967295EE4initEv@Base 0
 (optional=templinst)_ZN5SPIRV17SPIRVInstTemplateINS_12SPIRVCompareELN3spv2OpE170ELb1ELj5ELb0ELj4294967295ELj4294967295ELj4294967295EED0Ev@Base 0
 (optional=templinst)_ZN5SPIRV17SPIRVInstTemplateINS_12SPIRVCompareELN3spv2OpE170ELb1ELj5ELb0ELj4294967295ELj4294967295ELj4294967295EED1Ev@Base 0
 (optional=templinst)_ZN5SPIRV17SPIRVInstTemplateINS_12SPIRVCompareELN3spv2OpE170ELb1ELj5ELb0ELj4294967295ELj4294967295ELj4294967295EED2Ev@Base 0
 (optional=templinst)_ZN5SPIRV17SPIRVInstTemplateINS_12SPIRVCompareELN3spv2OpE171ELb1ELj5ELb0ELj4294967295ELj4294967295ELj4294967295EE4initEv@Base 0
 (optional=templinst)_ZN5SPIRV17SPIRVInstTemplateINS_12SPIRVCompareELN3spv2OpE171ELb1ELj5ELb0ELj4294967295ELj4294967295ELj4294967295EED0Ev@Base 0
 (optional=templinst)_ZN5SPIRV17SPIRVInstTemplateINS_12SPIRVCompareELN3spv2OpE171ELb1ELj5ELb0ELj4294967295ELj4294967295ELj4294967295EED1Ev@Base 0
 (optional=templinst)_ZN5SPIRV17SPIRVInstTemplateINS_12SPIRVCompareELN3spv2OpE171ELb1ELj5ELb0ELj4294967295ELj4294967295ELj4294967295EED2Ev@Base 0
 (optional=templinst)_ZN5SPIRV17SPIRVInstTemplateINS_12SPIRVCompareELN3spv2OpE172ELb1ELj5ELb0ELj4294967295ELj4294967295ELj4294967295EE4initEv@Base 0
 (optional=templinst)_ZN5SPIRV17SPIRVInstTemplateINS_12SPIRVCompareELN3spv2OpE172ELb1ELj5ELb0ELj4294967295ELj4294967295ELj4294967295EED0Ev@Base 0
 (optional=templinst)_ZN5SPIRV17SPIRVInstTemplateINS_12SPIRVCompareELN3spv2OpE172ELb1ELj5ELb0ELj4294967295ELj4294967295ELj4294967295EED1Ev@Base 0
 (optional=templinst)_ZN5SPIRV17SPIRVInstTemplateINS_12SPIRVCompareELN3spv2OpE172ELb1ELj5ELb0ELj4294967295ELj4294967295ELj4294967295EED2Ev@Base 0
 (optional=templinst)_ZN5SPIRV17SPIRVInstTemplateINS_12SPIRVCompareELN3spv2OpE173ELb1ELj5ELb0ELj4294967295ELj4294967295ELj4294967295EE4initEv@Base 0
 (optional=templinst)_ZN5SPIRV17SPIRVInstTemplateINS_12SPIRVCompareELN3spv2OpE173ELb1ELj5ELb0ELj4294967295ELj4294967295ELj4294967295EED0Ev@Base 0
 (optional=templinst)_ZN5SPIRV17SPIRVInstTemplateINS_12SPIRVCompareELN3spv2OpE173ELb1ELj5ELb0ELj4294967295ELj4294967295ELj4294967295EED1Ev@Base 0
 (optional=templinst)_ZN5SPIRV17SPIRVInstTemplateINS_12SPIRVCompareELN3spv2OpE173ELb1ELj5ELb0ELj4294967295ELj4294967295ELj4294967295EED2Ev@Base 0
 (optional=templinst)_ZN5SPIRV17SPIRVInstTemplateINS_12SPIRVCompareELN3spv2OpE174ELb1ELj5ELb0ELj4294967295ELj4294967295ELj4294967295EE4initEv@Base 0
 (optional=templinst)_ZN5SPIRV17SPIRVInstTemplateINS_12SPIRVCompareELN3spv2OpE174ELb1ELj5ELb0ELj4294967295ELj4294967295ELj4294967295EED0Ev@Base 0
 (optional=templinst)_ZN5SPIRV17SPIRVInstTemplateINS_12SPIRVCompareELN3spv2OpE174ELb1ELj5ELb0ELj4294967295ELj4294967295ELj4294967295EED1Ev@Base 0
 (optional=templinst)_ZN5SPIRV17SPIRVInstTemplateINS_12SPIRVCompareELN3spv2OpE174ELb1ELj5ELb0ELj4294967295ELj4294967295ELj4294967295EED2Ev@Base 0
 (optional=templinst)_ZN5SPIRV17SPIRVInstTemplateINS_12SPIRVCompareELN3spv2OpE175ELb1ELj5ELb0ELj4294967295ELj4294967295ELj4294967295EE4initEv@Base 0
 (optional=templinst)_ZN5SPIRV17SPIRVInstTemplateINS_12SPIRVCompareELN3spv2OpE175ELb1ELj5ELb0ELj4294967295ELj4294967295ELj4294967295EED0Ev@Base 0
 (optional=templinst)_ZN5SPIRV17SPIRVInstTemplateINS_12SPIRVCompareELN3spv2OpE175ELb1ELj5ELb0ELj4294967295ELj4294967295ELj4294967295EED1Ev@Base 0
 (optional=templinst)_ZN5SPIRV17SPIRVInstTemplateINS_12SPIRVCompareELN3spv2OpE175ELb1ELj5ELb0ELj4294967295ELj4294967295ELj4294967295EED2Ev@Base 0
 (optional=templinst)_ZN5SPIRV17SPIRVInstTemplateINS_12SPIRVCompareELN3spv2OpE176ELb1ELj5ELb0ELj4294967295ELj4294967295ELj4294967295EE4initEv@Base 0
 (optional=templinst)_ZN5SPIRV17SPIRVInstTemplateINS_12SPIRVCompareELN3spv2OpE176ELb1ELj5ELb0ELj4294967295ELj4294967295ELj4294967295EED0Ev@Base 0
 (optional=templinst)_ZN5SPIRV17SPIRVInstTemplateINS_12SPIRVCompareELN3spv2OpE176ELb1ELj5ELb0ELj4294967295ELj4294967295ELj4294967295EED1Ev@Base 0
 (optional=templinst)_ZN5SPIRV17SPIRVInstTemplateINS_12SPIRVCompareELN3spv2OpE176ELb1ELj5ELb0ELj4294967295ELj4294967295ELj4294967295EED2Ev@Base 0
 (optional=templinst)_ZN5SPIRV17SPIRVInstTemplateINS_12SPIRVCompareELN3spv2OpE177ELb1ELj5ELb0ELj4294967295ELj4294967295ELj4294967295EE4initEv@Base 0
 (optional=templinst)_ZN5SPIRV17SPIRVInstTemplateINS_12SPIRVCompareELN3spv2OpE177ELb1ELj5ELb0ELj4294967295ELj4294967295ELj4294967295EED0Ev@Base 0
 (optional=templinst)_ZN5SPIRV17SPIRVInstTemplateINS_12SPIRVCompareELN3spv2OpE177ELb1ELj5ELb0ELj4294967295ELj4294967295ELj4294967295EED1Ev@Base 0
 (optional=templinst)_ZN5SPIRV17SPIRVInstTemplateINS_12SPIRVCompareELN3spv2OpE177ELb1ELj5ELb0ELj4294967295ELj4294967295ELj4294967295EED2Ev@Base 0
 (optional=templinst)_ZN5SPIRV17SPIRVInstTemplateINS_12SPIRVCompareELN3spv2OpE178ELb1ELj5ELb0ELj4294967295ELj4294967295ELj4294967295EE4initEv@Base 0
 (optional=templinst)_ZN5SPIRV17SPIRVInstTemplateINS_12SPIRVCompareELN3spv2OpE178ELb1ELj5ELb0ELj4294967295ELj4294967295ELj4294967295EED0Ev@Base 0
 (optional=templinst)_ZN5SPIRV17SPIRVInstTemplateINS_12SPIRVCompareELN3spv2OpE178ELb1ELj5ELb0ELj4294967295ELj4294967295ELj4294967295EED1Ev@Base 0
 (optional=templinst)_ZN5SPIRV17SPIRVInstTemplateINS_12SPIRVCompareELN3spv2OpE178ELb1ELj5ELb0ELj4294967295ELj4294967295ELj4294967295EED2Ev@Base 0
 (optional=templinst)_ZN5SPIRV17SPIRVInstTemplateINS_12SPIRVCompareELN3spv2OpE179ELb1ELj5ELb0ELj4294967295ELj4294967295ELj4294967295EE4initEv@Base 0
 (optional=templinst)_ZN5SPIRV17SPIRVInstTemplateINS_12SPIRVCompareELN3spv2OpE179ELb1ELj5ELb0ELj4294967295ELj4294967295ELj4294967295EED0Ev@Base 0
 (optional=templinst)_ZN5SPIRV17SPIRVInstTemplateINS_12SPIRVCompareELN3spv2OpE179ELb1ELj5ELb0ELj4294967295ELj4294967295ELj4294967295EED1Ev@Base 0
 (optional=templinst)_ZN5SPIRV17SPIRVInstTemplateINS_12SPIRVCompareELN3spv2OpE179ELb1ELj5ELb0ELj4294967295ELj4294967295ELj4294967295EED2Ev@Base 0
 (optional=templinst)_ZN5SPIRV17SPIRVInstTemplateINS_12SPIRVCompareELN3spv2OpE180ELb1ELj5ELb0ELj4294967295ELj4294967295ELj4294967295EE4initEv@Base 0
 (optional=templinst)_ZN5SPIRV17SPIRVInstTemplateINS_12SPIRVCompareELN3spv2OpE180ELb1ELj5ELb0ELj4294967295ELj4294967295ELj4294967295EED0Ev@Base 0
 (optional=templinst)_ZN5SPIRV17SPIRVInstTemplateINS_12SPIRVCompareELN3spv2OpE180ELb1ELj5ELb0ELj4294967295ELj4294967295ELj4294967295EED1Ev@Base 0
 (optional=templinst)_ZN5SPIRV17SPIRVInstTemplateINS_12SPIRVCompareELN3spv2OpE180ELb1ELj5ELb0ELj4294967295ELj4294967295ELj4294967295EED2Ev@Base 0
 (optional=templinst)_ZN5SPIRV17SPIRVInstTemplateINS_12SPIRVCompareELN3spv2OpE181ELb1ELj5ELb0ELj4294967295ELj4294967295ELj4294967295EE4initEv@Base 0
 (optional=templinst)_ZN5SPIRV17SPIRVInstTemplateINS_12SPIRVCompareELN3spv2OpE181ELb1ELj5ELb0ELj4294967295ELj4294967295ELj4294967295EED0Ev@Base 0
 (optional=templinst)_ZN5SPIRV17SPIRVInstTemplateINS_12SPIRVCompareELN3spv2OpE181ELb1ELj5ELb0ELj4294967295ELj4294967295ELj4294967295EED1Ev@Base 0
 (optional=templinst)_ZN5SPIRV17SPIRVInstTemplateINS_12SPIRVCompareELN3spv2OpE181ELb1ELj5ELb0ELj4294967295ELj4294967295ELj4294967295EED2Ev@Base 0
 (optional=templinst)_ZN5SPIRV17SPIRVInstTemplateINS_12SPIRVCompareELN3spv2OpE182ELb1ELj5ELb0ELj4294967295ELj4294967295ELj4294967295EE4initEv@Base 0
 (optional=templinst)_ZN5SPIRV17SPIRVInstTemplateINS_12SPIRVCompareELN3spv2OpE182ELb1ELj5ELb0ELj4294967295ELj4294967295ELj4294967295EED0Ev@Base 0
 (optional=templinst)_ZN5SPIRV17SPIRVInstTemplateINS_12SPIRVCompareELN3spv2OpE182ELb1ELj5ELb0ELj4294967295ELj4294967295ELj4294967295EED1Ev@Base 0
 (optional=templinst)_ZN5SPIRV17SPIRVInstTemplateINS_12SPIRVCompareELN3spv2OpE182ELb1ELj5ELb0ELj4294967295ELj4294967295ELj4294967295EED2Ev@Base 0
 (optional=templinst)_ZN5SPIRV17SPIRVInstTemplateINS_12SPIRVCompareELN3spv2OpE183ELb1ELj5ELb0ELj4294967295ELj4294967295ELj4294967295EE4initEv@Base 0
 (optional=templinst)_ZN5SPIRV17SPIRVInstTemplateINS_12SPIRVCompareELN3spv2OpE183ELb1ELj5ELb0ELj4294967295ELj4294967295ELj4294967295EED0Ev@Base 0
 (optional=templinst)_ZN5SPIRV17SPIRVInstTemplateINS_12SPIRVCompareELN3spv2OpE183ELb1ELj5ELb0ELj4294967295ELj4294967295ELj4294967295EED1Ev@Base 0
 (optional=templinst)_ZN5SPIRV17SPIRVInstTemplateINS_12SPIRVCompareELN3spv2OpE183ELb1ELj5ELb0ELj4294967295ELj4294967295ELj4294967295EED2Ev@Base 0
 (optional=templinst)_ZN5SPIRV17SPIRVInstTemplateINS_12SPIRVCompareELN3spv2OpE184ELb1ELj5ELb0ELj4294967295ELj4294967295ELj4294967295EE4initEv@Base 0
 (optional=templinst)_ZN5SPIRV17SPIRVInstTemplateINS_12SPIRVCompareELN3spv2OpE184ELb1ELj5ELb0ELj4294967295ELj4294967295ELj4294967295EED0Ev@Base 0
 (optional=templinst)_ZN5SPIRV17SPIRVInstTemplateINS_12SPIRVCompareELN3spv2OpE184ELb1ELj5ELb0ELj4294967295ELj4294967295ELj4294967295EED1Ev@Base 0
 (optional=templinst)_ZN5SPIRV17SPIRVInstTemplateINS_12SPIRVCompareELN3spv2OpE184ELb1ELj5ELb0ELj4294967295ELj4294967295ELj4294967295EED2Ev@Base 0
 (optional=templinst)_ZN5SPIRV17SPIRVInstTemplateINS_12SPIRVCompareELN3spv2OpE185ELb1ELj5ELb0ELj4294967295ELj4294967295ELj4294967295EE4initEv@Base 0
 (optional=templinst)_ZN5SPIRV17SPIRVInstTemplateINS_12SPIRVCompareELN3spv2OpE185ELb1ELj5ELb0ELj4294967295ELj4294967295ELj4294967295EED0Ev@Base 0
 (optional=templinst)_ZN5SPIRV17SPIRVInstTemplateINS_12SPIRVCompareELN3spv2OpE185ELb1ELj5ELb0ELj4294967295ELj4294967295ELj4294967295EED1Ev@Base 0
 (optional=templinst)_ZN5SPIRV17SPIRVInstTemplateINS_12SPIRVCompareELN3spv2OpE185ELb1ELj5ELb0ELj4294967295ELj4294967295ELj4294967295EED2Ev@Base 0
 (optional=templinst)_ZN5SPIRV17SPIRVInstTemplateINS_12SPIRVCompareELN3spv2OpE186ELb1ELj5ELb0ELj4294967295ELj4294967295ELj4294967295EE4initEv@Base 0
 (optional=templinst)_ZN5SPIRV17SPIRVInstTemplateINS_12SPIRVCompareELN3spv2OpE186ELb1ELj5ELb0ELj4294967295ELj4294967295ELj4294967295EED0Ev@Base 0
 (optional=templinst)_ZN5SPIRV17SPIRVInstTemplateINS_12SPIRVCompareELN3spv2OpE186ELb1ELj5ELb0ELj4294967295ELj4294967295ELj4294967295EED1Ev@Base 0
 (optional=templinst)_ZN5SPIRV17SPIRVInstTemplateINS_12SPIRVCompareELN3spv2OpE186ELb1ELj5ELb0ELj4294967295ELj4294967295ELj4294967295EED2Ev@Base 0
 (optional=templinst)_ZN5SPIRV17SPIRVInstTemplateINS_12SPIRVCompareELN3spv2OpE187ELb1ELj5ELb0ELj4294967295ELj4294967295ELj4294967295EE4initEv@Base 0
 (optional=templinst)_ZN5SPIRV17SPIRVInstTemplateINS_12SPIRVCompareELN3spv2OpE187ELb1ELj5ELb0ELj4294967295ELj4294967295ELj4294967295EED0Ev@Base 0
 (optional=templinst)_ZN5SPIRV17SPIRVInstTemplateINS_12SPIRVCompareELN3spv2OpE187ELb1ELj5ELb0ELj4294967295ELj4294967295ELj4294967295EED1Ev@Base 0
 (optional=templinst)_ZN5SPIRV17SPIRVInstTemplateINS_12SPIRVCompareELN3spv2OpE187ELb1ELj5ELb0ELj4294967295ELj4294967295ELj4294967295EED2Ev@Base 0
 (optional=templinst)_ZN5SPIRV17SPIRVInstTemplateINS_12SPIRVCompareELN3spv2OpE188ELb1ELj5ELb0ELj4294967295ELj4294967295ELj4294967295EE4initEv@Base 0
 (optional=templinst)_ZN5SPIRV17SPIRVInstTemplateINS_12SPIRVCompareELN3spv2OpE188ELb1ELj5ELb0ELj4294967295ELj4294967295ELj4294967295EED0Ev@Base 0
 (optional=templinst)_ZN5SPIRV17SPIRVInstTemplateINS_12SPIRVCompareELN3spv2OpE188ELb1ELj5ELb0ELj4294967295ELj4294967295ELj4294967295EED1Ev@Base 0
 (optional=templinst)_ZN5SPIRV17SPIRVInstTemplateINS_12SPIRVCompareELN3spv2OpE188ELb1ELj5ELb0ELj4294967295ELj4294967295ELj4294967295EED2Ev@Base 0
 (optional=templinst)_ZN5SPIRV17SPIRVInstTemplateINS_12SPIRVCompareELN3spv2OpE189ELb1ELj5ELb0ELj4294967295ELj4294967295ELj4294967295EE4initEv@Base 0
 (optional=templinst)_ZN5SPIRV17SPIRVInstTemplateINS_12SPIRVCompareELN3spv2OpE189ELb1ELj5ELb0ELj4294967295ELj4294967295ELj4294967295EED0Ev@Base 0
 (optional=templinst)_ZN5SPIRV17SPIRVInstTemplateINS_12SPIRVCompareELN3spv2OpE189ELb1ELj5ELb0ELj4294967295ELj4294967295ELj4294967295EED1Ev@Base 0
 (optional=templinst)_ZN5SPIRV17SPIRVInstTemplateINS_12SPIRVCompareELN3spv2OpE189ELb1ELj5ELb0ELj4294967295ELj4294967295ELj4294967295EED2Ev@Base 0
 (optional=templinst)_ZN5SPIRV17SPIRVInstTemplateINS_12SPIRVCompareELN3spv2OpE190ELb1ELj5ELb0ELj4294967295ELj4294967295ELj4294967295EE4initEv@Base 0
 (optional=templinst)_ZN5SPIRV17SPIRVInstTemplateINS_12SPIRVCompareELN3spv2OpE190ELb1ELj5ELb0ELj4294967295ELj4294967295ELj4294967295EED0Ev@Base 0
 (optional=templinst)_ZN5SPIRV17SPIRVInstTemplateINS_12SPIRVCompareELN3spv2OpE190ELb1ELj5ELb0ELj4294967295ELj4294967295ELj4294967295EED1Ev@Base 0
 (optional=templinst)_ZN5SPIRV17SPIRVInstTemplateINS_12SPIRVCompareELN3spv2OpE190ELb1ELj5ELb0ELj4294967295ELj4294967295ELj4294967295EED2Ev@Base 0
 (optional=templinst)_ZN5SPIRV17SPIRVInstTemplateINS_12SPIRVCompareELN3spv2OpE191ELb1ELj5ELb0ELj4294967295ELj4294967295ELj4294967295EE4initEv@Base 0
 (optional=templinst)_ZN5SPIRV17SPIRVInstTemplateINS_12SPIRVCompareELN3spv2OpE191ELb1ELj5ELb0ELj4294967295ELj4294967295ELj4294967295EED0Ev@Base 0
 (optional=templinst)_ZN5SPIRV17SPIRVInstTemplateINS_12SPIRVCompareELN3spv2OpE191ELb1ELj5ELb0ELj4294967295ELj4294967295ELj4294967295EED1Ev@Base 0
 (optional=templinst)_ZN5SPIRV17SPIRVInstTemplateINS_12SPIRVCompareELN3spv2OpE191ELb1ELj5ELb0ELj4294967295ELj4294967295ELj4294967295EED2Ev@Base 0
 (optional=templinst)_ZN5SPIRV17SPIRVInstTemplateINS_17SPIRVPipeInstBaseELN3spv2OpE274ELb1ELj7ELb0ELj4294967295ELj4294967295ELj4294967295EE4initEv@Base 0
 (optional=templinst)_ZN5SPIRV17SPIRVInstTemplateINS_17SPIRVPipeInstBaseELN3spv2OpE274ELb1ELj7ELb0ELj4294967295ELj4294967295ELj4294967295EED0Ev@Base 0
 (optional=templinst)_ZN5SPIRV17SPIRVInstTemplateINS_17SPIRVPipeInstBaseELN3spv2OpE274ELb1ELj7ELb0ELj4294967295ELj4294967295ELj4294967295EED1Ev@Base 0
 (optional=templinst)_ZN5SPIRV17SPIRVInstTemplateINS_17SPIRVPipeInstBaseELN3spv2OpE274ELb1ELj7ELb0ELj4294967295ELj4294967295ELj4294967295EED2Ev@Base 0
 (optional=templinst)_ZN5SPIRV17SPIRVInstTemplateINS_17SPIRVPipeInstBaseELN3spv2OpE275ELb1ELj7ELb0ELj4294967295ELj4294967295ELj4294967295EE4initEv@Base 0
 (optional=templinst)_ZN5SPIRV17SPIRVInstTemplateINS_17SPIRVPipeInstBaseELN3spv2OpE275ELb1ELj7ELb0ELj4294967295ELj4294967295ELj4294967295EED0Ev@Base 0
 (optional=templinst)_ZN5SPIRV17SPIRVInstTemplateINS_17SPIRVPipeInstBaseELN3spv2OpE275ELb1ELj7ELb0ELj4294967295ELj4294967295ELj4294967295EED1Ev@Base 0
 (optional=templinst)_ZN5SPIRV17SPIRVInstTemplateINS_17SPIRVPipeInstBaseELN3spv2OpE275ELb1ELj7ELb0ELj4294967295ELj4294967295ELj4294967295EED2Ev@Base 0
 (optional=templinst)_ZN5SPIRV17SPIRVInstTemplateINS_17SPIRVPipeInstBaseELN3spv2OpE276ELb1ELj9ELb0ELj4294967295ELj4294967295ELj4294967295EE4initEv@Base 0
 (optional=templinst)_ZN5SPIRV17SPIRVInstTemplateINS_17SPIRVPipeInstBaseELN3spv2OpE276ELb1ELj9ELb0ELj4294967295ELj4294967295ELj4294967295EED0Ev@Base 0
 (optional=templinst)_ZN5SPIRV17SPIRVInstTemplateINS_17SPIRVPipeInstBaseELN3spv2OpE276ELb1ELj9ELb0ELj4294967295ELj4294967295ELj4294967295EED1Ev@Base 0
 (optional=templinst)_ZN5SPIRV17SPIRVInstTemplateINS_17SPIRVPipeInstBaseELN3spv2OpE276ELb1ELj9ELb0ELj4294967295ELj4294967295ELj4294967295EED2Ev@Base 0
 (optional=templinst)_ZN5SPIRV17SPIRVInstTemplateINS_17SPIRVPipeInstBaseELN3spv2OpE277ELb1ELj9ELb0ELj4294967295ELj4294967295ELj4294967295EE4initEv@Base 0
 (optional=templinst)_ZN5SPIRV17SPIRVInstTemplateINS_17SPIRVPipeInstBaseELN3spv2OpE277ELb1ELj9ELb0ELj4294967295ELj4294967295ELj4294967295EED0Ev@Base 0
 (optional=templinst)_ZN5SPIRV17SPIRVInstTemplateINS_17SPIRVPipeInstBaseELN3spv2OpE277ELb1ELj9ELb0ELj4294967295ELj4294967295ELj4294967295EED1Ev@Base 0
 (optional=templinst)_ZN5SPIRV17SPIRVInstTemplateINS_17SPIRVPipeInstBaseELN3spv2OpE277ELb1ELj9ELb0ELj4294967295ELj4294967295ELj4294967295EED2Ev@Base 0
 (optional=templinst)_ZN5SPIRV17SPIRVInstTemplateINS_17SPIRVPipeInstBaseELN3spv2OpE278ELb1ELj7ELb0ELj4294967295ELj4294967295ELj4294967295EE4initEv@Base 0
 (optional=templinst)_ZN5SPIRV17SPIRVInstTemplateINS_17SPIRVPipeInstBaseELN3spv2OpE278ELb1ELj7ELb0ELj4294967295ELj4294967295ELj4294967295EED0Ev@Base 0
 (optional=templinst)_ZN5SPIRV17SPIRVInstTemplateINS_17SPIRVPipeInstBaseELN3spv2OpE278ELb1ELj7ELb0ELj4294967295ELj4294967295ELj4294967295EED1Ev@Base 0
 (optional=templinst)_ZN5SPIRV17SPIRVInstTemplateINS_17SPIRVPipeInstBaseELN3spv2OpE278ELb1ELj7ELb0ELj4294967295ELj4294967295ELj4294967295EED2Ev@Base 0
 (optional=templinst)_ZN5SPIRV17SPIRVInstTemplateINS_17SPIRVPipeInstBaseELN3spv2OpE279ELb1ELj7ELb0ELj4294967295ELj4294967295ELj4294967295EE4initEv@Base 0
 (optional=templinst)_ZN5SPIRV17SPIRVInstTemplateINS_17SPIRVPipeInstBaseELN3spv2OpE279ELb1ELj7ELb0ELj4294967295ELj4294967295ELj4294967295EED0Ev@Base 0
 (optional=templinst)_ZN5SPIRV17SPIRVInstTemplateINS_17SPIRVPipeInstBaseELN3spv2OpE279ELb1ELj7ELb0ELj4294967295ELj4294967295ELj4294967295EED1Ev@Base 0
 (optional=templinst)_ZN5SPIRV17SPIRVInstTemplateINS_17SPIRVPipeInstBaseELN3spv2OpE279ELb1ELj7ELb0ELj4294967295ELj4294967295ELj4294967295EED2Ev@Base 0
 (optional=templinst)_ZN5SPIRV17SPIRVInstTemplateINS_17SPIRVPipeInstBaseELN3spv2OpE280ELb0ELj5ELb0ELj4294967295ELj4294967295ELj4294967295EE4initEv@Base 0
 (optional=templinst)_ZN5SPIRV17SPIRVInstTemplateINS_17SPIRVPipeInstBaseELN3spv2OpE280ELb0ELj5ELb0ELj4294967295ELj4294967295ELj4294967295EED0Ev@Base 0
 (optional=templinst)_ZN5SPIRV17SPIRVInstTemplateINS_17SPIRVPipeInstBaseELN3spv2OpE280ELb0ELj5ELb0ELj4294967295ELj4294967295ELj4294967295EED1Ev@Base 0
 (optional=templinst)_ZN5SPIRV17SPIRVInstTemplateINS_17SPIRVPipeInstBaseELN3spv2OpE280ELb0ELj5ELb0ELj4294967295ELj4294967295ELj4294967295EED2Ev@Base 0
 (optional=templinst)_ZN5SPIRV17SPIRVInstTemplateINS_17SPIRVPipeInstBaseELN3spv2OpE281ELb0ELj5ELb0ELj4294967295ELj4294967295ELj4294967295EE4initEv@Base 0
 (optional=templinst)_ZN5SPIRV17SPIRVInstTemplateINS_17SPIRVPipeInstBaseELN3spv2OpE281ELb0ELj5ELb0ELj4294967295ELj4294967295ELj4294967295EED0Ev@Base 0
 (optional=templinst)_ZN5SPIRV17SPIRVInstTemplateINS_17SPIRVPipeInstBaseELN3spv2OpE281ELb0ELj5ELb0ELj4294967295ELj4294967295ELj4294967295EED1Ev@Base 0
 (optional=templinst)_ZN5SPIRV17SPIRVInstTemplateINS_17SPIRVPipeInstBaseELN3spv2OpE281ELb0ELj5ELb0ELj4294967295ELj4294967295ELj4294967295EED2Ev@Base 0
 (optional=templinst)_ZN5SPIRV17SPIRVInstTemplateINS_17SPIRVPipeInstBaseELN3spv2OpE282ELb1ELj4ELb0ELj4294967295ELj4294967295ELj4294967295EE4initEv@Base 0
 (optional=templinst)_ZN5SPIRV17SPIRVInstTemplateINS_17SPIRVPipeInstBaseELN3spv2OpE282ELb1ELj4ELb0ELj4294967295ELj4294967295ELj4294967295EED0Ev@Base 0
 (optional=templinst)_ZN5SPIRV17SPIRVInstTemplateINS_17SPIRVPipeInstBaseELN3spv2OpE282ELb1ELj4ELb0ELj4294967295ELj4294967295ELj4294967295EED1Ev@Base 0
 (optional=templinst)_ZN5SPIRV17SPIRVInstTemplateINS_17SPIRVPipeInstBaseELN3spv2OpE282ELb1ELj4ELb0ELj4294967295ELj4294967295ELj4294967295EED2Ev@Base 0
 (optional=templinst)_ZN5SPIRV17SPIRVInstTemplateINS_17SPIRVPipeInstBaseELN3spv2OpE283ELb1ELj6ELb0ELj4294967295ELj4294967295ELj4294967295EE4initEv@Base 0
 (optional=templinst)_ZN5SPIRV17SPIRVInstTemplateINS_17SPIRVPipeInstBaseELN3spv2OpE283ELb1ELj6ELb0ELj4294967295ELj4294967295ELj4294967295EED0Ev@Base 0
 (optional=templinst)_ZN5SPIRV17SPIRVInstTemplateINS_17SPIRVPipeInstBaseELN3spv2OpE283ELb1ELj6ELb0ELj4294967295ELj4294967295ELj4294967295EED1Ev@Base 0
 (optional=templinst)_ZN5SPIRV17SPIRVInstTemplateINS_17SPIRVPipeInstBaseELN3spv2OpE283ELb1ELj6ELb0ELj4294967295ELj4294967295ELj4294967295EED2Ev@Base 0
 (optional=templinst)_ZN5SPIRV17SPIRVInstTemplateINS_17SPIRVPipeInstBaseELN3spv2OpE284ELb1ELj6ELb0ELj4294967295ELj4294967295ELj4294967295EE4initEv@Base 0
 (optional=templinst)_ZN5SPIRV17SPIRVInstTemplateINS_17SPIRVPipeInstBaseELN3spv2OpE284ELb1ELj6ELb0ELj4294967295ELj4294967295ELj4294967295EED0Ev@Base 0
 (optional=templinst)_ZN5SPIRV17SPIRVInstTemplateINS_17SPIRVPipeInstBaseELN3spv2OpE284ELb1ELj6ELb0ELj4294967295ELj4294967295ELj4294967295EED1Ev@Base 0
 (optional=templinst)_ZN5SPIRV17SPIRVInstTemplateINS_17SPIRVPipeInstBaseELN3spv2OpE284ELb1ELj6ELb0ELj4294967295ELj4294967295ELj4294967295EED2Ev@Base 0
 (optional=templinst)_ZN5SPIRV17SPIRVInstTemplateINS_18SPIRVGroupInstBaseELN3spv2OpE260ELb0ELj4ELb0ELj4294967295ELj4294967295ELj4294967295EE4initEv@Base 0
 (optional=templinst)_ZN5SPIRV17SPIRVInstTemplateINS_18SPIRVGroupInstBaseELN3spv2OpE260ELb0ELj4ELb0ELj4294967295ELj4294967295ELj4294967295EED0Ev@Base 0
 (optional=templinst)_ZN5SPIRV17SPIRVInstTemplateINS_18SPIRVGroupInstBaseELN3spv2OpE260ELb0ELj4ELb0ELj4294967295ELj4294967295ELj4294967295EED1Ev@Base 0
 (optional=templinst)_ZN5SPIRV17SPIRVInstTemplateINS_18SPIRVGroupInstBaseELN3spv2OpE260ELb0ELj4ELb0ELj4294967295ELj4294967295ELj4294967295EED2Ev@Base 0
 (optional=templinst)_ZN5SPIRV17SPIRVInstTemplateINS_18SPIRVGroupInstBaseELN3spv2OpE261ELb1ELj5ELb0ELj4294967295ELj4294967295ELj4294967295EE4initEv@Base 0
 (optional=templinst)_ZN5SPIRV17SPIRVInstTemplateINS_18SPIRVGroupInstBaseELN3spv2OpE261ELb1ELj5ELb0ELj4294967295ELj4294967295ELj4294967295EED0Ev@Base 0
 (optional=templinst)_ZN5SPIRV17SPIRVInstTemplateINS_18SPIRVGroupInstBaseELN3spv2OpE261ELb1ELj5ELb0ELj4294967295ELj4294967295ELj4294967295EED1Ev@Base 0
 (optional=templinst)_ZN5SPIRV17SPIRVInstTemplateINS_18SPIRVGroupInstBaseELN3spv2OpE261ELb1ELj5ELb0ELj4294967295ELj4294967295ELj4294967295EED2Ev@Base 0
 (optional=templinst)_ZN5SPIRV17SPIRVInstTemplateINS_18SPIRVGroupInstBaseELN3spv2OpE262ELb1ELj5ELb0ELj4294967295ELj4294967295ELj4294967295EE4initEv@Base 0
 (optional=templinst)_ZN5SPIRV17SPIRVInstTemplateINS_18SPIRVGroupInstBaseELN3spv2OpE262ELb1ELj5ELb0ELj4294967295ELj4294967295ELj4294967295EED0Ev@Base 0
 (optional=templinst)_ZN5SPIRV17SPIRVInstTemplateINS_18SPIRVGroupInstBaseELN3spv2OpE262ELb1ELj5ELb0ELj4294967295ELj4294967295ELj4294967295EED1Ev@Base 0
 (optional=templinst)_ZN5SPIRV17SPIRVInstTemplateINS_18SPIRVGroupInstBaseELN3spv2OpE262ELb1ELj5ELb0ELj4294967295ELj4294967295ELj4294967295EED2Ev@Base 0
 (optional=templinst)_ZN5SPIRV17SPIRVInstTemplateINS_18SPIRVGroupInstBaseELN3spv2OpE263ELb1ELj6ELb0ELj4294967295ELj4294967295ELj4294967295EE4initEv@Base 0
 (optional=templinst)_ZN5SPIRV17SPIRVInstTemplateINS_18SPIRVGroupInstBaseELN3spv2OpE263ELb1ELj6ELb0ELj4294967295ELj4294967295ELj4294967295EED0Ev@Base 0
 (optional=templinst)_ZN5SPIRV17SPIRVInstTemplateINS_18SPIRVGroupInstBaseELN3spv2OpE263ELb1ELj6ELb0ELj4294967295ELj4294967295ELj4294967295EED1Ev@Base 0
 (optional=templinst)_ZN5SPIRV17SPIRVInstTemplateINS_18SPIRVGroupInstBaseELN3spv2OpE263ELb1ELj6ELb0ELj4294967295ELj4294967295ELj4294967295EED2Ev@Base 0
 (optional=templinst)_ZN5SPIRV17SPIRVInstTemplateINS_18SPIRVGroupInstBaseELN3spv2OpE264ELb1ELj6ELb0ELj1ELj4294967295ELj4294967295EE4initEv@Base 0
 (optional=templinst)_ZN5SPIRV17SPIRVInstTemplateINS_18SPIRVGroupInstBaseELN3spv2OpE264ELb1ELj6ELb0ELj1ELj4294967295ELj4294967295EED0Ev@Base 0
 (optional=templinst)_ZN5SPIRV17SPIRVInstTemplateINS_18SPIRVGroupInstBaseELN3spv2OpE264ELb1ELj6ELb0ELj1ELj4294967295ELj4294967295EED1Ev@Base 0
 (optional=templinst)_ZN5SPIRV17SPIRVInstTemplateINS_18SPIRVGroupInstBaseELN3spv2OpE264ELb1ELj6ELb0ELj1ELj4294967295ELj4294967295EED2Ev@Base 0
 (optional=templinst)_ZN5SPIRV17SPIRVInstTemplateINS_18SPIRVGroupInstBaseELN3spv2OpE265ELb1ELj6ELb0ELj1ELj4294967295ELj4294967295EE4initEv@Base 0
 (optional=templinst)_ZN5SPIRV17SPIRVInstTemplateINS_18SPIRVGroupInstBaseELN3spv2OpE265ELb1ELj6ELb0ELj1ELj4294967295ELj4294967295EED0Ev@Base 0
 (optional=templinst)_ZN5SPIRV17SPIRVInstTemplateINS_18SPIRVGroupInstBaseELN3spv2OpE265ELb1ELj6ELb0ELj1ELj4294967295ELj4294967295EED1Ev@Base 0
 (optional=templinst)_ZN5SPIRV17SPIRVInstTemplateINS_18SPIRVGroupInstBaseELN3spv2OpE265ELb1ELj6ELb0ELj1ELj4294967295ELj4294967295EED2Ev@Base 0
 (optional=templinst)_ZN5SPIRV17SPIRVInstTemplateINS_18SPIRVGroupInstBaseELN3spv2OpE266ELb1ELj6ELb0ELj1ELj4294967295ELj4294967295EE4initEv@Base 0
 (optional=templinst)_ZN5SPIRV17SPIRVInstTemplateINS_18SPIRVGroupInstBaseELN3spv2OpE266ELb1ELj6ELb0ELj1ELj4294967295ELj4294967295EED0Ev@Base 0
 (optional=templinst)_ZN5SPIRV17SPIRVInstTemplateINS_18SPIRVGroupInstBaseELN3spv2OpE266ELb1ELj6ELb0ELj1ELj4294967295ELj4294967295EED1Ev@Base 0
 (optional=templinst)_ZN5SPIRV17SPIRVInstTemplateINS_18SPIRVGroupInstBaseELN3spv2OpE266ELb1ELj6ELb0ELj1ELj4294967295ELj4294967295EED2Ev@Base 0
 (optional=templinst)_ZN5SPIRV17SPIRVInstTemplateINS_18SPIRVGroupInstBaseELN3spv2OpE267ELb1ELj6ELb0ELj1ELj4294967295ELj4294967295EE4initEv@Base 0
 (optional=templinst)_ZN5SPIRV17SPIRVInstTemplateINS_18SPIRVGroupInstBaseELN3spv2OpE267ELb1ELj6ELb0ELj1ELj4294967295ELj4294967295EED0Ev@Base 0
 (optional=templinst)_ZN5SPIRV17SPIRVInstTemplateINS_18SPIRVGroupInstBaseELN3spv2OpE267ELb1ELj6ELb0ELj1ELj4294967295ELj4294967295EED1Ev@Base 0
 (optional=templinst)_ZN5SPIRV17SPIRVInstTemplateINS_18SPIRVGroupInstBaseELN3spv2OpE267ELb1ELj6ELb0ELj1ELj4294967295ELj4294967295EED2Ev@Base 0
 (optional=templinst)_ZN5SPIRV17SPIRVInstTemplateINS_18SPIRVGroupInstBaseELN3spv2OpE268ELb1ELj6ELb0ELj1ELj4294967295ELj4294967295EE4initEv@Base 0
 (optional=templinst)_ZN5SPIRV17SPIRVInstTemplateINS_18SPIRVGroupInstBaseELN3spv2OpE268ELb1ELj6ELb0ELj1ELj4294967295ELj4294967295EED0Ev@Base 0
 (optional=templinst)_ZN5SPIRV17SPIRVInstTemplateINS_18SPIRVGroupInstBaseELN3spv2OpE268ELb1ELj6ELb0ELj1ELj4294967295ELj4294967295EED1Ev@Base 0
 (optional=templinst)_ZN5SPIRV17SPIRVInstTemplateINS_18SPIRVGroupInstBaseELN3spv2OpE268ELb1ELj6ELb0ELj1ELj4294967295ELj4294967295EED2Ev@Base 0
 (optional=templinst)_ZN5SPIRV17SPIRVInstTemplateINS_18SPIRVGroupInstBaseELN3spv2OpE269ELb1ELj6ELb0ELj1ELj4294967295ELj4294967295EE4initEv@Base 0
 (optional=templinst)_ZN5SPIRV17SPIRVInstTemplateINS_18SPIRVGroupInstBaseELN3spv2OpE269ELb1ELj6ELb0ELj1ELj4294967295ELj4294967295EED0Ev@Base 0
 (optional=templinst)_ZN5SPIRV17SPIRVInstTemplateINS_18SPIRVGroupInstBaseELN3spv2OpE269ELb1ELj6ELb0ELj1ELj4294967295ELj4294967295EED1Ev@Base 0
 (optional=templinst)_ZN5SPIRV17SPIRVInstTemplateINS_18SPIRVGroupInstBaseELN3spv2OpE269ELb1ELj6ELb0ELj1ELj4294967295ELj4294967295EED2Ev@Base 0
 (optional=templinst)_ZN5SPIRV17SPIRVInstTemplateINS_18SPIRVGroupInstBaseELN3spv2OpE270ELb1ELj6ELb0ELj1ELj4294967295ELj4294967295EE4initEv@Base 0
 (optional=templinst)_ZN5SPIRV17SPIRVInstTemplateINS_18SPIRVGroupInstBaseELN3spv2OpE270ELb1ELj6ELb0ELj1ELj4294967295ELj4294967295EED0Ev@Base 0
 (optional=templinst)_ZN5SPIRV17SPIRVInstTemplateINS_18SPIRVGroupInstBaseELN3spv2OpE270ELb1ELj6ELb0ELj1ELj4294967295ELj4294967295EED1Ev@Base 0
 (optional=templinst)_ZN5SPIRV17SPIRVInstTemplateINS_18SPIRVGroupInstBaseELN3spv2OpE270ELb1ELj6ELb0ELj1ELj4294967295ELj4294967295EED2Ev@Base 0
 (optional=templinst)_ZN5SPIRV17SPIRVInstTemplateINS_18SPIRVGroupInstBaseELN3spv2OpE271ELb1ELj6ELb0ELj1ELj4294967295ELj4294967295EE4initEv@Base 0
 (optional=templinst)_ZN5SPIRV17SPIRVInstTemplateINS_18SPIRVGroupInstBaseELN3spv2OpE271ELb1ELj6ELb0ELj1ELj4294967295ELj4294967295EED0Ev@Base 0
 (optional=templinst)_ZN5SPIRV17SPIRVInstTemplateINS_18SPIRVGroupInstBaseELN3spv2OpE271ELb1ELj6ELb0ELj1ELj4294967295ELj4294967295EED1Ev@Base 0
 (optional=templinst)_ZN5SPIRV17SPIRVInstTemplateINS_18SPIRVGroupInstBaseELN3spv2OpE271ELb1ELj6ELb0ELj1ELj4294967295ELj4294967295EED2Ev@Base 0
 (optional=templinst)_ZN5SPIRV17SPIRVInstTemplateINS_18SPIRVGroupInstBaseELN3spv2OpE285ELb1ELj8ELb0ELj4294967295ELj4294967295ELj4294967295EE4initEv@Base 0
 (optional=templinst)_ZN5SPIRV17SPIRVInstTemplateINS_18SPIRVGroupInstBaseELN3spv2OpE285ELb1ELj8ELb0ELj4294967295ELj4294967295ELj4294967295EED0Ev@Base 0
 (optional=templinst)_ZN5SPIRV17SPIRVInstTemplateINS_18SPIRVGroupInstBaseELN3spv2OpE285ELb1ELj8ELb0ELj4294967295ELj4294967295ELj4294967295EED1Ev@Base 0
 (optional=templinst)_ZN5SPIRV17SPIRVInstTemplateINS_18SPIRVGroupInstBaseELN3spv2OpE285ELb1ELj8ELb0ELj4294967295ELj4294967295ELj4294967295EED2Ev@Base 0
 (optional=templinst)_ZN5SPIRV17SPIRVInstTemplateINS_18SPIRVGroupInstBaseELN3spv2OpE286ELb1ELj8ELb0ELj4294967295ELj4294967295ELj4294967295EE4initEv@Base 0
 (optional=templinst)_ZN5SPIRV17SPIRVInstTemplateINS_18SPIRVGroupInstBaseELN3spv2OpE286ELb1ELj8ELb0ELj4294967295ELj4294967295ELj4294967295EED0Ev@Base 0
 (optional=templinst)_ZN5SPIRV17SPIRVInstTemplateINS_18SPIRVGroupInstBaseELN3spv2OpE286ELb1ELj8ELb0ELj4294967295ELj4294967295ELj4294967295EED1Ev@Base 0
 (optional=templinst)_ZN5SPIRV17SPIRVInstTemplateINS_18SPIRVGroupInstBaseELN3spv2OpE286ELb1ELj8ELb0ELj4294967295ELj4294967295ELj4294967295EED2Ev@Base 0
 (optional=templinst)_ZN5SPIRV17SPIRVInstTemplateINS_18SPIRVGroupInstBaseELN3spv2OpE287ELb0ELj6ELb0ELj4294967295ELj4294967295ELj4294967295EE4initEv@Base 0
 (optional=templinst)_ZN5SPIRV17SPIRVInstTemplateINS_18SPIRVGroupInstBaseELN3spv2OpE287ELb0ELj6ELb0ELj4294967295ELj4294967295ELj4294967295EED0Ev@Base 0
 (optional=templinst)_ZN5SPIRV17SPIRVInstTemplateINS_18SPIRVGroupInstBaseELN3spv2OpE287ELb0ELj6ELb0ELj4294967295ELj4294967295ELj4294967295EED1Ev@Base 0
 (optional=templinst)_ZN5SPIRV17SPIRVInstTemplateINS_18SPIRVGroupInstBaseELN3spv2OpE287ELb0ELj6ELb0ELj4294967295ELj4294967295ELj4294967295EED2Ev@Base 0
 (optional=templinst)_ZN5SPIRV17SPIRVInstTemplateINS_18SPIRVGroupInstBaseELN3spv2OpE288ELb0ELj6ELb0ELj4294967295ELj4294967295ELj4294967295EE4initEv@Base 0
 (optional=templinst)_ZN5SPIRV17SPIRVInstTemplateINS_18SPIRVGroupInstBaseELN3spv2OpE288ELb0ELj6ELb0ELj4294967295ELj4294967295ELj4294967295EED0Ev@Base 0
 (optional=templinst)_ZN5SPIRV17SPIRVInstTemplateINS_18SPIRVGroupInstBaseELN3spv2OpE288ELb0ELj6ELb0ELj4294967295ELj4294967295ELj4294967295EED1Ev@Base 0
 (optional=templinst)_ZN5SPIRV17SPIRVInstTemplateINS_18SPIRVGroupInstBaseELN3spv2OpE288ELb0ELj6ELb0ELj4294967295ELj4294967295ELj4294967295EED2Ev@Base 0
 (optional=templinst)_ZN5SPIRV17SPIRVInstTemplateINS_18SPIRVImageInstBaseELN3spv2OpE101ELb1ELj4ELb0ELj4294967295ELj4294967295ELj4294967295EE4initEv@Base 0
 (optional=templinst)_ZN5SPIRV17SPIRVInstTemplateINS_18SPIRVImageInstBaseELN3spv2OpE101ELb1ELj4ELb0ELj4294967295ELj4294967295ELj4294967295EED0Ev@Base 0
 (optional=templinst)_ZN5SPIRV17SPIRVInstTemplateINS_18SPIRVImageInstBaseELN3spv2OpE101ELb1ELj4ELb0ELj4294967295ELj4294967295ELj4294967295EED1Ev@Base 0
 (optional=templinst)_ZN5SPIRV17SPIRVInstTemplateINS_18SPIRVImageInstBaseELN3spv2OpE101ELb1ELj4ELb0ELj4294967295ELj4294967295ELj4294967295EED2Ev@Base 0
 (optional=templinst)_ZN5SPIRV17SPIRVInstTemplateINS_18SPIRVImageInstBaseELN3spv2OpE102ELb1ELj4ELb0ELj4294967295ELj4294967295ELj4294967295EE4initEv@Base 0
 (optional=templinst)_ZN5SPIRV17SPIRVInstTemplateINS_18SPIRVImageInstBaseELN3spv2OpE102ELb1ELj4ELb0ELj4294967295ELj4294967295ELj4294967295EED0Ev@Base 0
 (optional=templinst)_ZN5SPIRV17SPIRVInstTemplateINS_18SPIRVImageInstBaseELN3spv2OpE102ELb1ELj4ELb0ELj4294967295ELj4294967295ELj4294967295EED1Ev@Base 0
 (optional=templinst)_ZN5SPIRV17SPIRVInstTemplateINS_18SPIRVImageInstBaseELN3spv2OpE102ELb1ELj4ELb0ELj4294967295ELj4294967295ELj4294967295EED2Ev@Base 0
 (optional=templinst)_ZN5SPIRV17SPIRVInstTemplateINS_18SPIRVImageInstBaseELN3spv2OpE103ELb1ELj5ELb0ELj4294967295ELj4294967295ELj4294967295EE4initEv@Base 0
 (optional=templinst)_ZN5SPIRV17SPIRVInstTemplateINS_18SPIRVImageInstBaseELN3spv2OpE103ELb1ELj5ELb0ELj4294967295ELj4294967295ELj4294967295EED0Ev@Base 0
 (optional=templinst)_ZN5SPIRV17SPIRVInstTemplateINS_18SPIRVImageInstBaseELN3spv2OpE103ELb1ELj5ELb0ELj4294967295ELj4294967295ELj4294967295EED1Ev@Base 0
 (optional=templinst)_ZN5SPIRV17SPIRVInstTemplateINS_18SPIRVImageInstBaseELN3spv2OpE103ELb1ELj5ELb0ELj4294967295ELj4294967295ELj4294967295EED2Ev@Base 0
 (optional=templinst)_ZN5SPIRV17SPIRVInstTemplateINS_18SPIRVImageInstBaseELN3spv2OpE104ELb1ELj4ELb0ELj4294967295ELj4294967295ELj4294967295EE4initEv@Base 0
 (optional=templinst)_ZN5SPIRV17SPIRVInstTemplateINS_18SPIRVImageInstBaseELN3spv2OpE104ELb1ELj4ELb0ELj4294967295ELj4294967295ELj4294967295EED0Ev@Base 0
 (optional=templinst)_ZN5SPIRV17SPIRVInstTemplateINS_18SPIRVImageInstBaseELN3spv2OpE104ELb1ELj4ELb0ELj4294967295ELj4294967295ELj4294967295EED1Ev@Base 0
 (optional=templinst)_ZN5SPIRV17SPIRVInstTemplateINS_18SPIRVImageInstBaseELN3spv2OpE104ELb1ELj4ELb0ELj4294967295ELj4294967295ELj4294967295EED2Ev@Base 0
 (optional=templinst)_ZN5SPIRV17SPIRVInstTemplateINS_18SPIRVImageInstBaseELN3spv2OpE105ELb1ELj5ELb0ELj4294967295ELj4294967295ELj4294967295EE4initEv@Base 0
 (optional=templinst)_ZN5SPIRV17SPIRVInstTemplateINS_18SPIRVImageInstBaseELN3spv2OpE105ELb1ELj5ELb0ELj4294967295ELj4294967295ELj4294967295EED0Ev@Base 0
 (optional=templinst)_ZN5SPIRV17SPIRVInstTemplateINS_18SPIRVImageInstBaseELN3spv2OpE105ELb1ELj5ELb0ELj4294967295ELj4294967295ELj4294967295EED1Ev@Base 0
 (optional=templinst)_ZN5SPIRV17SPIRVInstTemplateINS_18SPIRVImageInstBaseELN3spv2OpE105ELb1ELj5ELb0ELj4294967295ELj4294967295ELj4294967295EED2Ev@Base 0
 (optional=templinst)_ZN5SPIRV17SPIRVInstTemplateINS_18SPIRVImageInstBaseELN3spv2OpE106ELb1ELj4ELb0ELj4294967295ELj4294967295ELj4294967295EE4initEv@Base 0
 (optional=templinst)_ZN5SPIRV17SPIRVInstTemplateINS_18SPIRVImageInstBaseELN3spv2OpE106ELb1ELj4ELb0ELj4294967295ELj4294967295ELj4294967295EED0Ev@Base 0
 (optional=templinst)_ZN5SPIRV17SPIRVInstTemplateINS_18SPIRVImageInstBaseELN3spv2OpE106ELb1ELj4ELb0ELj4294967295ELj4294967295ELj4294967295EED1Ev@Base 0
 (optional=templinst)_ZN5SPIRV17SPIRVInstTemplateINS_18SPIRVImageInstBaseELN3spv2OpE106ELb1ELj4ELb0ELj4294967295ELj4294967295ELj4294967295EED2Ev@Base 0
 (optional=templinst)_ZN5SPIRV17SPIRVInstTemplateINS_18SPIRVImageInstBaseELN3spv2OpE107ELb1ELj4ELb0ELj4294967295ELj4294967295ELj4294967295EE4initEv@Base 0
 (optional=templinst)_ZN5SPIRV17SPIRVInstTemplateINS_18SPIRVImageInstBaseELN3spv2OpE107ELb1ELj4ELb0ELj4294967295ELj4294967295ELj4294967295EED0Ev@Base 0
 (optional=templinst)_ZN5SPIRV17SPIRVInstTemplateINS_18SPIRVImageInstBaseELN3spv2OpE107ELb1ELj4ELb0ELj4294967295ELj4294967295ELj4294967295EED1Ev@Base 0
 (optional=templinst)_ZN5SPIRV17SPIRVInstTemplateINS_18SPIRVImageInstBaseELN3spv2OpE107ELb1ELj4ELb0ELj4294967295ELj4294967295ELj4294967295EED2Ev@Base 0
 (optional=templinst)_ZN5SPIRV17SPIRVInstTemplateINS_18SPIRVImageInstBaseELN3spv2OpE86ELb1ELj5ELb0ELj4294967295ELj4294967295ELj4294967295EE4initEv@Base 0
 (optional=templinst)_ZN5SPIRV17SPIRVInstTemplateINS_18SPIRVImageInstBaseELN3spv2OpE86ELb1ELj5ELb0ELj4294967295ELj4294967295ELj4294967295EED0Ev@Base 0
 (optional=templinst)_ZN5SPIRV17SPIRVInstTemplateINS_18SPIRVImageInstBaseELN3spv2OpE86ELb1ELj5ELb0ELj4294967295ELj4294967295ELj4294967295EED1Ev@Base 0
 (optional=templinst)_ZN5SPIRV17SPIRVInstTemplateINS_18SPIRVImageInstBaseELN3spv2OpE86ELb1ELj5ELb0ELj4294967295ELj4294967295ELj4294967295EED2Ev@Base 0
 (optional=templinst)_ZN5SPIRV17SPIRVInstTemplateINS_18SPIRVImageInstBaseELN3spv2OpE87ELb1ELj5ELb1ELj4294967295ELj4294967295ELj4294967295EE4initEv@Base 0
 (optional=templinst)_ZN5SPIRV17SPIRVInstTemplateINS_18SPIRVImageInstBaseELN3spv2OpE87ELb1ELj5ELb1ELj4294967295ELj4294967295ELj4294967295EED0Ev@Base 0
 (optional=templinst)_ZN5SPIRV17SPIRVInstTemplateINS_18SPIRVImageInstBaseELN3spv2OpE87ELb1ELj5ELb1ELj4294967295ELj4294967295ELj4294967295EED1Ev@Base 0
 (optional=templinst)_ZN5SPIRV17SPIRVInstTemplateINS_18SPIRVImageInstBaseELN3spv2OpE87ELb1ELj5ELb1ELj4294967295ELj4294967295ELj4294967295EED2Ev@Base 0
 (optional=templinst)_ZN5SPIRV17SPIRVInstTemplateINS_18SPIRVImageInstBaseELN3spv2OpE88ELb1ELj7ELb1ELj2ELj4294967295ELj4294967295EE4initEv@Base 0
 (optional=templinst)_ZN5SPIRV17SPIRVInstTemplateINS_18SPIRVImageInstBaseELN3spv2OpE88ELb1ELj7ELb1ELj2ELj4294967295ELj4294967295EED0Ev@Base 0
 (optional=templinst)_ZN5SPIRV17SPIRVInstTemplateINS_18SPIRVImageInstBaseELN3spv2OpE88ELb1ELj7ELb1ELj2ELj4294967295ELj4294967295EED1Ev@Base 0
 (optional=templinst)_ZN5SPIRV17SPIRVInstTemplateINS_18SPIRVImageInstBaseELN3spv2OpE88ELb1ELj7ELb1ELj2ELj4294967295ELj4294967295EED2Ev@Base 0
 (optional=templinst)_ZN5SPIRV17SPIRVInstTemplateINS_18SPIRVImageInstBaseELN3spv2OpE98ELb1ELj5ELb1ELj2ELj4294967295ELj4294967295EE4initEv@Base 0
 (optional=templinst)_ZN5SPIRV17SPIRVInstTemplateINS_18SPIRVImageInstBaseELN3spv2OpE98ELb1ELj5ELb1ELj2ELj4294967295ELj4294967295EED0Ev@Base 0
 (optional=templinst)_ZN5SPIRV17SPIRVInstTemplateINS_18SPIRVImageInstBaseELN3spv2OpE98ELb1ELj5ELb1ELj2ELj4294967295ELj4294967295EED1Ev@Base 0
 (optional=templinst)_ZN5SPIRV17SPIRVInstTemplateINS_18SPIRVImageInstBaseELN3spv2OpE98ELb1ELj5ELb1ELj2ELj4294967295ELj4294967295EED2Ev@Base 0
 (optional=templinst)_ZN5SPIRV17SPIRVInstTemplateINS_18SPIRVImageInstBaseELN3spv2OpE99ELb0ELj4ELb1ELj3ELj4294967295ELj4294967295EE4initEv@Base 0
 (optional=templinst)_ZN5SPIRV17SPIRVInstTemplateINS_18SPIRVImageInstBaseELN3spv2OpE99ELb0ELj4ELb1ELj3ELj4294967295ELj4294967295EED0Ev@Base 0
 (optional=templinst)_ZN5SPIRV17SPIRVInstTemplateINS_18SPIRVImageInstBaseELN3spv2OpE99ELb0ELj4ELb1ELj3ELj4294967295ELj4294967295EED1Ev@Base 0
 (optional=templinst)_ZN5SPIRV17SPIRVInstTemplateINS_18SPIRVImageInstBaseELN3spv2OpE99ELb0ELj4ELb1ELj3ELj4294967295ELj4294967295EED2Ev@Base 0
 (optional=templinst)_ZN5SPIRV17SPIRVInstTemplateINS_19SPIRVAtomicInstBaseELN3spv2OpE225ELb0ELj3ELb0ELj4294967295ELj4294967295ELj4294967295EE4initEv@Base 0
 (optional=templinst)_ZN5SPIRV17SPIRVInstTemplateINS_19SPIRVAtomicInstBaseELN3spv2OpE225ELb0ELj3ELb0ELj4294967295ELj4294967295ELj4294967295EED0Ev@Base 0
 (optional=templinst)_ZN5SPIRV17SPIRVInstTemplateINS_19SPIRVAtomicInstBaseELN3spv2OpE225ELb0ELj3ELb0ELj4294967295ELj4294967295ELj4294967295EED1Ev@Base 0
 (optional=templinst)_ZN5SPIRV17SPIRVInstTemplateINS_19SPIRVAtomicInstBaseELN3spv2OpE225ELb0ELj3ELb0ELj4294967295ELj4294967295ELj4294967295EED2Ev@Base 0
 (optional=templinst)_ZN5SPIRV17SPIRVInstTemplateINS_19SPIRVAtomicInstBaseELN3spv2OpE227ELb1ELj6ELb0ELj4294967295ELj4294967295ELj4294967295EE4initEv@Base 0
 (optional=templinst)_ZN5SPIRV17SPIRVInstTemplateINS_19SPIRVAtomicInstBaseELN3spv2OpE227ELb1ELj6ELb0ELj4294967295ELj4294967295ELj4294967295EED0Ev@Base 0
 (optional=templinst)_ZN5SPIRV17SPIRVInstTemplateINS_19SPIRVAtomicInstBaseELN3spv2OpE227ELb1ELj6ELb0ELj4294967295ELj4294967295ELj4294967295EED1Ev@Base 0
 (optional=templinst)_ZN5SPIRV17SPIRVInstTemplateINS_19SPIRVAtomicInstBaseELN3spv2OpE227ELb1ELj6ELb0ELj4294967295ELj4294967295ELj4294967295EED2Ev@Base 0
 (optional=templinst)_ZN5SPIRV17SPIRVInstTemplateINS_19SPIRVAtomicInstBaseELN3spv2OpE228ELb0ELj5ELb0ELj4294967295ELj4294967295ELj4294967295EE4initEv@Base 0
 (optional=templinst)_ZN5SPIRV17SPIRVInstTemplateINS_19SPIRVAtomicInstBaseELN3spv2OpE228ELb0ELj5ELb0ELj4294967295ELj4294967295ELj4294967295EED0Ev@Base 0
 (optional=templinst)_ZN5SPIRV17SPIRVInstTemplateINS_19SPIRVAtomicInstBaseELN3spv2OpE228ELb0ELj5ELb0ELj4294967295ELj4294967295ELj4294967295EED1Ev@Base 0
 (optional=templinst)_ZN5SPIRV17SPIRVInstTemplateINS_19SPIRVAtomicInstBaseELN3spv2OpE228ELb0ELj5ELb0ELj4294967295ELj4294967295ELj4294967295EED2Ev@Base 0
 (optional=templinst)_ZN5SPIRV17SPIRVInstTemplateINS_19SPIRVAtomicInstBaseELN3spv2OpE229ELb1ELj7ELb0ELj4294967295ELj4294967295ELj4294967295EE4initEv@Base 0
 (optional=templinst)_ZN5SPIRV17SPIRVInstTemplateINS_19SPIRVAtomicInstBaseELN3spv2OpE229ELb1ELj7ELb0ELj4294967295ELj4294967295ELj4294967295EED0Ev@Base 0
 (optional=templinst)_ZN5SPIRV17SPIRVInstTemplateINS_19SPIRVAtomicInstBaseELN3spv2OpE229ELb1ELj7ELb0ELj4294967295ELj4294967295ELj4294967295EED1Ev@Base 0
 (optional=templinst)_ZN5SPIRV17SPIRVInstTemplateINS_19SPIRVAtomicInstBaseELN3spv2OpE229ELb1ELj7ELb0ELj4294967295ELj4294967295ELj4294967295EED2Ev@Base 0
 (optional=templinst)_ZN5SPIRV17SPIRVInstTemplateINS_19SPIRVAtomicInstBaseELN3spv2OpE230ELb1ELj9ELb0ELj4294967295ELj4294967295ELj4294967295EE4initEv@Base 0
 (optional=templinst)_ZN5SPIRV17SPIRVInstTemplateINS_19SPIRVAtomicInstBaseELN3spv2OpE230ELb1ELj9ELb0ELj4294967295ELj4294967295ELj4294967295EED0Ev@Base 0
 (optional=templinst)_ZN5SPIRV17SPIRVInstTemplateINS_19SPIRVAtomicInstBaseELN3spv2OpE230ELb1ELj9ELb0ELj4294967295ELj4294967295ELj4294967295EED1Ev@Base 0
 (optional=templinst)_ZN5SPIRV17SPIRVInstTemplateINS_19SPIRVAtomicInstBaseELN3spv2OpE230ELb1ELj9ELb0ELj4294967295ELj4294967295ELj4294967295EED2Ev@Base 0
 (optional=templinst)_ZN5SPIRV17SPIRVInstTemplateINS_19SPIRVAtomicInstBaseELN3spv2OpE231ELb1ELj9ELb0ELj4294967295ELj4294967295ELj4294967295EE4initEv@Base 0
 (optional=templinst)_ZN5SPIRV17SPIRVInstTemplateINS_19SPIRVAtomicInstBaseELN3spv2OpE231ELb1ELj9ELb0ELj4294967295ELj4294967295ELj4294967295EED0Ev@Base 0
 (optional=templinst)_ZN5SPIRV17SPIRVInstTemplateINS_19SPIRVAtomicInstBaseELN3spv2OpE231ELb1ELj9ELb0ELj4294967295ELj4294967295ELj4294967295EED1Ev@Base 0
 (optional=templinst)_ZN5SPIRV17SPIRVInstTemplateINS_19SPIRVAtomicInstBaseELN3spv2OpE231ELb1ELj9ELb0ELj4294967295ELj4294967295ELj4294967295EED2Ev@Base 0
 (optional=templinst)_ZN5SPIRV17SPIRVInstTemplateINS_19SPIRVAtomicInstBaseELN3spv2OpE232ELb1ELj6ELb0ELj4294967295ELj4294967295ELj4294967295EE4initEv@Base 0
 (optional=templinst)_ZN5SPIRV17SPIRVInstTemplateINS_19SPIRVAtomicInstBaseELN3spv2OpE232ELb1ELj6ELb0ELj4294967295ELj4294967295ELj4294967295EED0Ev@Base 0
 (optional=templinst)_ZN5SPIRV17SPIRVInstTemplateINS_19SPIRVAtomicInstBaseELN3spv2OpE232ELb1ELj6ELb0ELj4294967295ELj4294967295ELj4294967295EED1Ev@Base 0
 (optional=templinst)_ZN5SPIRV17SPIRVInstTemplateINS_19SPIRVAtomicInstBaseELN3spv2OpE232ELb1ELj6ELb0ELj4294967295ELj4294967295ELj4294967295EED2Ev@Base 0
 (optional=templinst)_ZN5SPIRV17SPIRVInstTemplateINS_19SPIRVAtomicInstBaseELN3spv2OpE233ELb1ELj6ELb0ELj4294967295ELj4294967295ELj4294967295EE4initEv@Base 0
 (optional=templinst)_ZN5SPIRV17SPIRVInstTemplateINS_19SPIRVAtomicInstBaseELN3spv2OpE233ELb1ELj6ELb0ELj4294967295ELj4294967295ELj4294967295EED0Ev@Base 0
 (optional=templinst)_ZN5SPIRV17SPIRVInstTemplateINS_19SPIRVAtomicInstBaseELN3spv2OpE233ELb1ELj6ELb0ELj4294967295ELj4294967295ELj4294967295EED1Ev@Base 0
 (optional=templinst)_ZN5SPIRV17SPIRVInstTemplateINS_19SPIRVAtomicInstBaseELN3spv2OpE233ELb1ELj6ELb0ELj4294967295ELj4294967295ELj4294967295EED2Ev@Base 0
 (optional=templinst)_ZN5SPIRV17SPIRVInstTemplateINS_19SPIRVAtomicInstBaseELN3spv2OpE234ELb1ELj7ELb0ELj4294967295ELj4294967295ELj4294967295EE4initEv@Base 0
 (optional=templinst)_ZN5SPIRV17SPIRVInstTemplateINS_19SPIRVAtomicInstBaseELN3spv2OpE234ELb1ELj7ELb0ELj4294967295ELj4294967295ELj4294967295EED0Ev@Base 0
 (optional=templinst)_ZN5SPIRV17SPIRVInstTemplateINS_19SPIRVAtomicInstBaseELN3spv2OpE234ELb1ELj7ELb0ELj4294967295ELj4294967295ELj4294967295EED1Ev@Base 0
 (optional=templinst)_ZN5SPIRV17SPIRVInstTemplateINS_19SPIRVAtomicInstBaseELN3spv2OpE234ELb1ELj7ELb0ELj4294967295ELj4294967295ELj4294967295EED2Ev@Base 0
 (optional=templinst)_ZN5SPIRV17SPIRVInstTemplateINS_19SPIRVAtomicInstBaseELN3spv2OpE235ELb1ELj7ELb0ELj4294967295ELj4294967295ELj4294967295EE4initEv@Base 0
 (optional=templinst)_ZN5SPIRV17SPIRVInstTemplateINS_19SPIRVAtomicInstBaseELN3spv2OpE235ELb1ELj7ELb0ELj4294967295ELj4294967295ELj4294967295EED0Ev@Base 0
 (optional=templinst)_ZN5SPIRV17SPIRVInstTemplateINS_19SPIRVAtomicInstBaseELN3spv2OpE235ELb1ELj7ELb0ELj4294967295ELj4294967295ELj4294967295EED1Ev@Base 0
 (optional=templinst)_ZN5SPIRV17SPIRVInstTemplateINS_19SPIRVAtomicInstBaseELN3spv2OpE235ELb1ELj7ELb0ELj4294967295ELj4294967295ELj4294967295EED2Ev@Base 0
 (optional=templinst)_ZN5SPIRV17SPIRVInstTemplateINS_19SPIRVAtomicInstBaseELN3spv2OpE236ELb1ELj7ELb0ELj4294967295ELj4294967295ELj4294967295EE4initEv@Base 0
 (optional=templinst)_ZN5SPIRV17SPIRVInstTemplateINS_19SPIRVAtomicInstBaseELN3spv2OpE236ELb1ELj7ELb0ELj4294967295ELj4294967295ELj4294967295EED0Ev@Base 0
 (optional=templinst)_ZN5SPIRV17SPIRVInstTemplateINS_19SPIRVAtomicInstBaseELN3spv2OpE236ELb1ELj7ELb0ELj4294967295ELj4294967295ELj4294967295EED1Ev@Base 0
 (optional=templinst)_ZN5SPIRV17SPIRVInstTemplateINS_19SPIRVAtomicInstBaseELN3spv2OpE236ELb1ELj7ELb0ELj4294967295ELj4294967295ELj4294967295EED2Ev@Base 0
 (optional=templinst)_ZN5SPIRV17SPIRVInstTemplateINS_19SPIRVAtomicInstBaseELN3spv2OpE237ELb1ELj7ELb0ELj4294967295ELj4294967295ELj4294967295EE4initEv@Base 0
 (optional=templinst)_ZN5SPIRV17SPIRVInstTemplateINS_19SPIRVAtomicInstBaseELN3spv2OpE237ELb1ELj7ELb0ELj4294967295ELj4294967295ELj4294967295EED0Ev@Base 0
 (optional=templinst)_ZN5SPIRV17SPIRVInstTemplateINS_19SPIRVAtomicInstBaseELN3spv2OpE237ELb1ELj7ELb0ELj4294967295ELj4294967295ELj4294967295EED1Ev@Base 0
 (optional=templinst)_ZN5SPIRV17SPIRVInstTemplateINS_19SPIRVAtomicInstBaseELN3spv2OpE237ELb1ELj7ELb0ELj4294967295ELj4294967295ELj4294967295EED2Ev@Base 0
 (optional=templinst)_ZN5SPIRV17SPIRVInstTemplateINS_19SPIRVAtomicInstBaseELN3spv2OpE238ELb1ELj7ELb0ELj4294967295ELj4294967295ELj4294967295EE4initEv@Base 0
 (optional=templinst)_ZN5SPIRV17SPIRVInstTemplateINS_19SPIRVAtomicInstBaseELN3spv2OpE238ELb1ELj7ELb0ELj4294967295ELj4294967295ELj4294967295EED0Ev@Base 0
 (optional=templinst)_ZN5SPIRV17SPIRVInstTemplateINS_19SPIRVAtomicInstBaseELN3spv2OpE238ELb1ELj7ELb0ELj4294967295ELj4294967295ELj4294967295EED1Ev@Base 0
 (optional=templinst)_ZN5SPIRV17SPIRVInstTemplateINS_19SPIRVAtomicInstBaseELN3spv2OpE238ELb1ELj7ELb0ELj4294967295ELj4294967295ELj4294967295EED2Ev@Base 0
 (optional=templinst)_ZN5SPIRV17SPIRVInstTemplateINS_19SPIRVAtomicInstBaseELN3spv2OpE239ELb1ELj7ELb0ELj4294967295ELj4294967295ELj4294967295EE4initEv@Base 0
 (optional=templinst)_ZN5SPIRV17SPIRVInstTemplateINS_19SPIRVAtomicInstBaseELN3spv2OpE239ELb1ELj7ELb0ELj4294967295ELj4294967295ELj4294967295EED0Ev@Base 0
 (optional=templinst)_ZN5SPIRV17SPIRVInstTemplateINS_19SPIRVAtomicInstBaseELN3spv2OpE239ELb1ELj7ELb0ELj4294967295ELj4294967295ELj4294967295EED1Ev@Base 0
 (optional=templinst)_ZN5SPIRV17SPIRVInstTemplateINS_19SPIRVAtomicInstBaseELN3spv2OpE239ELb1ELj7ELb0ELj4294967295ELj4294967295ELj4294967295EED2Ev@Base 0
 (optional=templinst)_ZN5SPIRV17SPIRVInstTemplateINS_19SPIRVAtomicInstBaseELN3spv2OpE240ELb1ELj7ELb0ELj4294967295ELj4294967295ELj4294967295EE4initEv@Base 0
 (optional=templinst)_ZN5SPIRV17SPIRVInstTemplateINS_19SPIRVAtomicInstBaseELN3spv2OpE240ELb1ELj7ELb0ELj4294967295ELj4294967295ELj4294967295EED0Ev@Base 0
 (optional=templinst)_ZN5SPIRV17SPIRVInstTemplateINS_19SPIRVAtomicInstBaseELN3spv2OpE240ELb1ELj7ELb0ELj4294967295ELj4294967295ELj4294967295EED1Ev@Base 0
 (optional=templinst)_ZN5SPIRV17SPIRVInstTemplateINS_19SPIRVAtomicInstBaseELN3spv2OpE240ELb1ELj7ELb0ELj4294967295ELj4294967295ELj4294967295EED2Ev@Base 0
 (optional=templinst)_ZN5SPIRV17SPIRVInstTemplateINS_19SPIRVAtomicInstBaseELN3spv2OpE241ELb1ELj7ELb0ELj4294967295ELj4294967295ELj4294967295EE4initEv@Base 0
 (optional=templinst)_ZN5SPIRV17SPIRVInstTemplateINS_19SPIRVAtomicInstBaseELN3spv2OpE241ELb1ELj7ELb0ELj4294967295ELj4294967295ELj4294967295EED0Ev@Base 0
 (optional=templinst)_ZN5SPIRV17SPIRVInstTemplateINS_19SPIRVAtomicInstBaseELN3spv2OpE241ELb1ELj7ELb0ELj4294967295ELj4294967295ELj4294967295EED1Ev@Base 0
 (optional=templinst)_ZN5SPIRV17SPIRVInstTemplateINS_19SPIRVAtomicInstBaseELN3spv2OpE241ELb1ELj7ELb0ELj4294967295ELj4294967295ELj4294967295EED2Ev@Base 0
 (optional=templinst)_ZN5SPIRV17SPIRVInstTemplateINS_19SPIRVAtomicInstBaseELN3spv2OpE242ELb1ELj7ELb0ELj4294967295ELj4294967295ELj4294967295EE4initEv@Base 0
 (optional=templinst)_ZN5SPIRV17SPIRVInstTemplateINS_19SPIRVAtomicInstBaseELN3spv2OpE242ELb1ELj7ELb0ELj4294967295ELj4294967295ELj4294967295EED0Ev@Base 0
 (optional=templinst)_ZN5SPIRV17SPIRVInstTemplateINS_19SPIRVAtomicInstBaseELN3spv2OpE242ELb1ELj7ELb0ELj4294967295ELj4294967295ELj4294967295EED1Ev@Base 0
 (optional=templinst)_ZN5SPIRV17SPIRVInstTemplateINS_19SPIRVAtomicInstBaseELN3spv2OpE242ELb1ELj7ELb0ELj4294967295ELj4294967295ELj4294967295EED2Ev@Base 0
 (optional=templinst)_ZN5SPIRV17SPIRVInstTemplateINS_19SPIRVAtomicInstBaseELN3spv2OpE318ELb1ELj6ELb0ELj4294967295ELj4294967295ELj4294967295EE4initEv@Base 0
 (optional=templinst)_ZN5SPIRV17SPIRVInstTemplateINS_19SPIRVAtomicInstBaseELN3spv2OpE318ELb1ELj6ELb0ELj4294967295ELj4294967295ELj4294967295EED0Ev@Base 0
 (optional=templinst)_ZN5SPIRV17SPIRVInstTemplateINS_19SPIRVAtomicInstBaseELN3spv2OpE318ELb1ELj6ELb0ELj4294967295ELj4294967295ELj4294967295EED1Ev@Base 0
 (optional=templinst)_ZN5SPIRV17SPIRVInstTemplateINS_19SPIRVAtomicInstBaseELN3spv2OpE318ELb1ELj6ELb0ELj4294967295ELj4294967295ELj4294967295EED2Ev@Base 0
 (optional=templinst)_ZN5SPIRV17SPIRVInstTemplateINS_19SPIRVAtomicInstBaseELN3spv2OpE319ELb0ELj4ELb0ELj4294967295ELj4294967295ELj4294967295EE4initEv@Base 0
 (optional=templinst)_ZN5SPIRV17SPIRVInstTemplateINS_19SPIRVAtomicInstBaseELN3spv2OpE319ELb0ELj4ELb0ELj4294967295ELj4294967295ELj4294967295EED0Ev@Base 0
 (optional=templinst)_ZN5SPIRV17SPIRVInstTemplateINS_19SPIRVAtomicInstBaseELN3spv2OpE319ELb0ELj4ELb0ELj4294967295ELj4294967295ELj4294967295EED1Ev@Base 0
 (optional=templinst)_ZN5SPIRV17SPIRVInstTemplateINS_19SPIRVAtomicInstBaseELN3spv2OpE319ELb0ELj4ELb0ELj4294967295ELj4294967295ELj4294967295EED2Ev@Base 0
 (optional=templinst)_ZN5SPIRV17SPIRVInstTemplateINS_19SPIRVDevEnqInstBaseELN3spv2OpE291ELb1ELj7ELb0ELj4294967295ELj4294967295ELj4294967295EE4initEv@Base 0
 (optional=templinst)_ZN5SPIRV17SPIRVInstTemplateINS_19SPIRVDevEnqInstBaseELN3spv2OpE291ELb1ELj7ELb0ELj4294967295ELj4294967295ELj4294967295EED0Ev@Base 0
 (optional=templinst)_ZN5SPIRV17SPIRVInstTemplateINS_19SPIRVDevEnqInstBaseELN3spv2OpE291ELb1ELj7ELb0ELj4294967295ELj4294967295ELj4294967295EED1Ev@Base 0
 (optional=templinst)_ZN5SPIRV17SPIRVInstTemplateINS_19SPIRVDevEnqInstBaseELN3spv2OpE291ELb1ELj7ELb0ELj4294967295ELj4294967295ELj4294967295EED2Ev@Base 0
 (optional=templinst)_ZN5SPIRV17SPIRVInstTemplateINS_19SPIRVDevEnqInstBaseELN3spv2OpE292ELb1ELj13ELb1ELj4294967295ELj4294967295ELj4294967295EE4initEv@Base 0
 (optional=templinst)_ZN5SPIRV17SPIRVInstTemplateINS_19SPIRVDevEnqInstBaseELN3spv2OpE292ELb1ELj13ELb1ELj4294967295ELj4294967295ELj4294967295EED0Ev@Base 0
 (optional=templinst)_ZN5SPIRV17SPIRVInstTemplateINS_19SPIRVDevEnqInstBaseELN3spv2OpE292ELb1ELj13ELb1ELj4294967295ELj4294967295ELj4294967295EED1Ev@Base 0
 (optional=templinst)_ZN5SPIRV17SPIRVInstTemplateINS_19SPIRVDevEnqInstBaseELN3spv2OpE292ELb1ELj13ELb1ELj4294967295ELj4294967295ELj4294967295EED2Ev@Base 0
 (optional=templinst)_ZN5SPIRV17SPIRVInstTemplateINS_19SPIRVDevEnqInstBaseELN3spv2OpE293ELb1ELj8ELb0ELj4294967295ELj4294967295ELj4294967295EE4initEv@Base 0
 (optional=templinst)_ZN5SPIRV17SPIRVInstTemplateINS_19SPIRVDevEnqInstBaseELN3spv2OpE293ELb1ELj8ELb0ELj4294967295ELj4294967295ELj4294967295EED0Ev@Base 0
 (optional=templinst)_ZN5SPIRV17SPIRVInstTemplateINS_19SPIRVDevEnqInstBaseELN3spv2OpE293ELb1ELj8ELb0ELj4294967295ELj4294967295ELj4294967295EED1Ev@Base 0
 (optional=templinst)_ZN5SPIRV17SPIRVInstTemplateINS_19SPIRVDevEnqInstBaseELN3spv2OpE293ELb1ELj8ELb0ELj4294967295ELj4294967295ELj4294967295EED2Ev@Base 0
 (optional=templinst)_ZN5SPIRV17SPIRVInstTemplateINS_19SPIRVDevEnqInstBaseELN3spv2OpE294ELb1ELj8ELb0ELj4294967295ELj4294967295ELj4294967295EE4initEv@Base 0
 (optional=templinst)_ZN5SPIRV17SPIRVInstTemplateINS_19SPIRVDevEnqInstBaseELN3spv2OpE294ELb1ELj8ELb0ELj4294967295ELj4294967295ELj4294967295EED0Ev@Base 0
 (optional=templinst)_ZN5SPIRV17SPIRVInstTemplateINS_19SPIRVDevEnqInstBaseELN3spv2OpE294ELb1ELj8ELb0ELj4294967295ELj4294967295ELj4294967295EED1Ev@Base 0
 (optional=templinst)_ZN5SPIRV17SPIRVInstTemplateINS_19SPIRVDevEnqInstBaseELN3spv2OpE294ELb1ELj8ELb0ELj4294967295ELj4294967295ELj4294967295EED2Ev@Base 0
 (optional=templinst)_ZN5SPIRV17SPIRVInstTemplateINS_19SPIRVDevEnqInstBaseELN3spv2OpE295ELb1ELj7ELb0ELj4294967295ELj4294967295ELj4294967295EE4initEv@Base 0
 (optional=templinst)_ZN5SPIRV17SPIRVInstTemplateINS_19SPIRVDevEnqInstBaseELN3spv2OpE295ELb1ELj7ELb0ELj4294967295ELj4294967295ELj4294967295EED0Ev@Base 0
 (optional=templinst)_ZN5SPIRV17SPIRVInstTemplateINS_19SPIRVDevEnqInstBaseELN3spv2OpE295ELb1ELj7ELb0ELj4294967295ELj4294967295ELj4294967295EED1Ev@Base 0
 (optional=templinst)_ZN5SPIRV17SPIRVInstTemplateINS_19SPIRVDevEnqInstBaseELN3spv2OpE295ELb1ELj7ELb0ELj4294967295ELj4294967295ELj4294967295EED2Ev@Base 0
 (optional=templinst)_ZN5SPIRV17SPIRVInstTemplateINS_19SPIRVDevEnqInstBaseELN3spv2OpE296ELb1ELj7ELb0ELj4294967295ELj4294967295ELj4294967295EE4initEv@Base 0
 (optional=templinst)_ZN5SPIRV17SPIRVInstTemplateINS_19SPIRVDevEnqInstBaseELN3spv2OpE296ELb1ELj7ELb0ELj4294967295ELj4294967295ELj4294967295EED0Ev@Base 0
 (optional=templinst)_ZN5SPIRV17SPIRVInstTemplateINS_19SPIRVDevEnqInstBaseELN3spv2OpE296ELb1ELj7ELb0ELj4294967295ELj4294967295ELj4294967295EED1Ev@Base 0
 (optional=templinst)_ZN5SPIRV17SPIRVInstTemplateINS_19SPIRVDevEnqInstBaseELN3spv2OpE296ELb1ELj7ELb0ELj4294967295ELj4294967295ELj4294967295EED2Ev@Base 0
 (optional=templinst)_ZN5SPIRV17SPIRVInstTemplateINS_19SPIRVDevEnqInstBaseELN3spv2OpE297ELb0ELj2ELb0ELj4294967295ELj4294967295ELj4294967295EE4initEv@Base 0
 (optional=templinst)_ZN5SPIRV17SPIRVInstTemplateINS_19SPIRVDevEnqInstBaseELN3spv2OpE297ELb0ELj2ELb0ELj4294967295ELj4294967295ELj4294967295EED0Ev@Base 0
 (optional=templinst)_ZN5SPIRV17SPIRVInstTemplateINS_19SPIRVDevEnqInstBaseELN3spv2OpE297ELb0ELj2ELb0ELj4294967295ELj4294967295ELj4294967295EED1Ev@Base 0
 (optional=templinst)_ZN5SPIRV17SPIRVInstTemplateINS_19SPIRVDevEnqInstBaseELN3spv2OpE297ELb0ELj2ELb0ELj4294967295ELj4294967295ELj4294967295EED2Ev@Base 0
 (optional=templinst)_ZN5SPIRV17SPIRVInstTemplateINS_19SPIRVDevEnqInstBaseELN3spv2OpE298ELb0ELj2ELb0ELj4294967295ELj4294967295ELj4294967295EE4initEv@Base 0
 (optional=templinst)_ZN5SPIRV17SPIRVInstTemplateINS_19SPIRVDevEnqInstBaseELN3spv2OpE298ELb0ELj2ELb0ELj4294967295ELj4294967295ELj4294967295EED0Ev@Base 0
 (optional=templinst)_ZN5SPIRV17SPIRVInstTemplateINS_19SPIRVDevEnqInstBaseELN3spv2OpE298ELb0ELj2ELb0ELj4294967295ELj4294967295ELj4294967295EED1Ev@Base 0
 (optional=templinst)_ZN5SPIRV17SPIRVInstTemplateINS_19SPIRVDevEnqInstBaseELN3spv2OpE298ELb0ELj2ELb0ELj4294967295ELj4294967295ELj4294967295EED2Ev@Base 0
 (optional=templinst)_ZN5SPIRV17SPIRVInstTemplateINS_19SPIRVDevEnqInstBaseELN3spv2OpE299ELb1ELj3ELb0ELj4294967295ELj4294967295ELj4294967295EE4initEv@Base 0
 (optional=templinst)_ZN5SPIRV17SPIRVInstTemplateINS_19SPIRVDevEnqInstBaseELN3spv2OpE299ELb1ELj3ELb0ELj4294967295ELj4294967295ELj4294967295EED0Ev@Base 0
 (optional=templinst)_ZN5SPIRV17SPIRVInstTemplateINS_19SPIRVDevEnqInstBaseELN3spv2OpE299ELb1ELj3ELb0ELj4294967295ELj4294967295ELj4294967295EED1Ev@Base 0
 (optional=templinst)_ZN5SPIRV17SPIRVInstTemplateINS_19SPIRVDevEnqInstBaseELN3spv2OpE299ELb1ELj3ELb0ELj4294967295ELj4294967295ELj4294967295EED2Ev@Base 0
 (optional=templinst)_ZN5SPIRV17SPIRVInstTemplateINS_19SPIRVDevEnqInstBaseELN3spv2OpE300ELb1ELj4ELb0ELj4294967295ELj4294967295ELj4294967295EE4initEv@Base 0
 (optional=templinst)_ZN5SPIRV17SPIRVInstTemplateINS_19SPIRVDevEnqInstBaseELN3spv2OpE300ELb1ELj4ELb0ELj4294967295ELj4294967295ELj4294967295EED0Ev@Base 0
 (optional=templinst)_ZN5SPIRV17SPIRVInstTemplateINS_19SPIRVDevEnqInstBaseELN3spv2OpE300ELb1ELj4ELb0ELj4294967295ELj4294967295ELj4294967295EED1Ev@Base 0
 (optional=templinst)_ZN5SPIRV17SPIRVInstTemplateINS_19SPIRVDevEnqInstBaseELN3spv2OpE300ELb1ELj4ELb0ELj4294967295ELj4294967295ELj4294967295EED2Ev@Base 0
 (optional=templinst)_ZN5SPIRV17SPIRVInstTemplateINS_19SPIRVDevEnqInstBaseELN3spv2OpE301ELb0ELj3ELb0ELj4294967295ELj4294967295ELj4294967295EE4initEv@Base 0
 (optional=templinst)_ZN5SPIRV17SPIRVInstTemplateINS_19SPIRVDevEnqInstBaseELN3spv2OpE301ELb0ELj3ELb0ELj4294967295ELj4294967295ELj4294967295EED0Ev@Base 0
 (optional=templinst)_ZN5SPIRV17SPIRVInstTemplateINS_19SPIRVDevEnqInstBaseELN3spv2OpE301ELb0ELj3ELb0ELj4294967295ELj4294967295ELj4294967295EED1Ev@Base 0
 (optional=templinst)_ZN5SPIRV17SPIRVInstTemplateINS_19SPIRVDevEnqInstBaseELN3spv2OpE301ELb0ELj3ELb0ELj4294967295ELj4294967295ELj4294967295EED2Ev@Base 0
 (optional=templinst)_ZN5SPIRV17SPIRVInstTemplateINS_19SPIRVDevEnqInstBaseELN3spv2OpE302ELb0ELj4ELb0ELj4294967295ELj4294967295ELj4294967295EE4initEv@Base 0
 (optional=templinst)_ZN5SPIRV17SPIRVInstTemplateINS_19SPIRVDevEnqInstBaseELN3spv2OpE302ELb0ELj4ELb0ELj4294967295ELj4294967295ELj4294967295EED0Ev@Base 0
 (optional=templinst)_ZN5SPIRV17SPIRVInstTemplateINS_19SPIRVDevEnqInstBaseELN3spv2OpE302ELb0ELj4ELb0ELj4294967295ELj4294967295ELj4294967295EED1Ev@Base 0
 (optional=templinst)_ZN5SPIRV17SPIRVInstTemplateINS_19SPIRVDevEnqInstBaseELN3spv2OpE302ELb0ELj4ELb0ELj4294967295ELj4294967295ELj4294967295EED2Ev@Base 0
 (optional=templinst)_ZN5SPIRV17SPIRVInstTemplateINS_19SPIRVDevEnqInstBaseELN3spv2OpE303ELb1ELj3ELb0ELj4294967295ELj4294967295ELj4294967295EE4initEv@Base 0
 (optional=templinst)_ZN5SPIRV17SPIRVInstTemplateINS_19SPIRVDevEnqInstBaseELN3spv2OpE303ELb1ELj3ELb0ELj4294967295ELj4294967295ELj4294967295EED0Ev@Base 0
 (optional=templinst)_ZN5SPIRV17SPIRVInstTemplateINS_19SPIRVDevEnqInstBaseELN3spv2OpE303ELb1ELj3ELb0ELj4294967295ELj4294967295ELj4294967295EED1Ev@Base 0
 (optional=templinst)_ZN5SPIRV17SPIRVInstTemplateINS_19SPIRVDevEnqInstBaseELN3spv2OpE303ELb1ELj3ELb0ELj4294967295ELj4294967295ELj4294967295EED2Ev@Base 0
 (optional=templinst)_ZN5SPIRV17SPIRVInstTemplateINS_19SPIRVDevEnqInstBaseELN3spv2OpE304ELb1ELj6ELb0ELj4294967295ELj4294967295ELj4294967295EE4initEv@Base 0
 (optional=templinst)_ZN5SPIRV17SPIRVInstTemplateINS_19SPIRVDevEnqInstBaseELN3spv2OpE304ELb1ELj6ELb0ELj4294967295ELj4294967295ELj4294967295EED0Ev@Base 0
 (optional=templinst)_ZN5SPIRV17SPIRVInstTemplateINS_19SPIRVDevEnqInstBaseELN3spv2OpE304ELb1ELj6ELb0ELj4294967295ELj4294967295ELj4294967295EED1Ev@Base 0
 (optional=templinst)_ZN5SPIRV17SPIRVInstTemplateINS_19SPIRVDevEnqInstBaseELN3spv2OpE304ELb1ELj6ELb0ELj4294967295ELj4294967295ELj4294967295EED2Ev@Base 0
 (optional=templinst)_ZN5SPIRV17SPIRVInstTemplateINS_20SPIRVAccessChainBaseELN3spv2OpE65ELb1ELj4ELb1ELj4294967295ELj4294967295ELj4294967295EE4initEv@Base 0
 (optional=templinst)_ZN5SPIRV17SPIRVInstTemplateINS_20SPIRVAccessChainBaseELN3spv2OpE65ELb1ELj4ELb1ELj4294967295ELj4294967295ELj4294967295EED0Ev@Base 0
 (optional=templinst)_ZN5SPIRV17SPIRVInstTemplateINS_20SPIRVAccessChainBaseELN3spv2OpE65ELb1ELj4ELb1ELj4294967295ELj4294967295ELj4294967295EED1Ev@Base 0
 (optional=templinst)_ZN5SPIRV17SPIRVInstTemplateINS_20SPIRVAccessChainBaseELN3spv2OpE65ELb1ELj4ELb1ELj4294967295ELj4294967295ELj4294967295EED2Ev@Base 0
 (optional=templinst)_ZN5SPIRV17SPIRVInstTemplateINS_20SPIRVAccessChainBaseELN3spv2OpE66ELb1ELj4ELb1ELj4294967295ELj4294967295ELj4294967295EE4initEv@Base 0
 (optional=templinst)_ZN5SPIRV17SPIRVInstTemplateINS_20SPIRVAccessChainBaseELN3spv2OpE66ELb1ELj4ELb1ELj4294967295ELj4294967295ELj4294967295EED0Ev@Base 0
 (optional=templinst)_ZN5SPIRV17SPIRVInstTemplateINS_20SPIRVAccessChainBaseELN3spv2OpE66ELb1ELj4ELb1ELj4294967295ELj4294967295ELj4294967295EED1Ev@Base 0
 (optional=templinst)_ZN5SPIRV17SPIRVInstTemplateINS_20SPIRVAccessChainBaseELN3spv2OpE66ELb1ELj4ELb1ELj4294967295ELj4294967295ELj4294967295EED2Ev@Base 0
 (optional=templinst)_ZN5SPIRV17SPIRVInstTemplateINS_20SPIRVAccessChainBaseELN3spv2OpE67ELb1ELj5ELb1ELj4294967295ELj4294967295ELj4294967295EE4initEv@Base 0
 (optional=templinst)_ZN5SPIRV17SPIRVInstTemplateINS_20SPIRVAccessChainBaseELN3spv2OpE67ELb1ELj5ELb1ELj4294967295ELj4294967295ELj4294967295EED0Ev@Base 0
 (optional=templinst)_ZN5SPIRV17SPIRVInstTemplateINS_20SPIRVAccessChainBaseELN3spv2OpE67ELb1ELj5ELb1ELj4294967295ELj4294967295ELj4294967295EED1Ev@Base 0
 (optional=templinst)_ZN5SPIRV17SPIRVInstTemplateINS_20SPIRVAccessChainBaseELN3spv2OpE67ELb1ELj5ELb1ELj4294967295ELj4294967295ELj4294967295EED2Ev@Base 0
 (optional=templinst)_ZN5SPIRV17SPIRVInstTemplateINS_20SPIRVAccessChainBaseELN3spv2OpE70ELb1ELj5ELb1ELj4294967295ELj4294967295ELj4294967295EE4initEv@Base 0
 (optional=templinst)_ZN5SPIRV17SPIRVInstTemplateINS_20SPIRVAccessChainBaseELN3spv2OpE70ELb1ELj5ELb1ELj4294967295ELj4294967295ELj4294967295EED0Ev@Base 0
 (optional=templinst)_ZN5SPIRV17SPIRVInstTemplateINS_20SPIRVAccessChainBaseELN3spv2OpE70ELb1ELj5ELb1ELj4294967295ELj4294967295ELj4294967295EED1Ev@Base 0
 (optional=templinst)_ZN5SPIRV17SPIRVInstTemplateINS_20SPIRVAccessChainBaseELN3spv2OpE70ELb1ELj5ELb1ELj4294967295ELj4294967295ELj4294967295EED2Ev@Base 0
 (optional=templinst)_ZN5SPIRV17SPIRVInstTemplateINS_21SPIRVInstTemplateBaseELN3spv2OpE123ELb1ELj5ELb0ELj1ELj4294967295ELj4294967295EE4initEv@Base 0
 (optional=templinst)_ZN5SPIRV17SPIRVInstTemplateINS_21SPIRVInstTemplateBaseELN3spv2OpE123ELb1ELj5ELb0ELj1ELj4294967295ELj4294967295EED0Ev@Base 0
 (optional=templinst)_ZN5SPIRV17SPIRVInstTemplateINS_21SPIRVInstTemplateBaseELN3spv2OpE123ELb1ELj5ELb0ELj1ELj4294967295ELj4294967295EED1Ev@Base 0
 (optional=templinst)_ZN5SPIRV17SPIRVInstTemplateINS_21SPIRVInstTemplateBaseELN3spv2OpE123ELb1ELj5ELb0ELj1ELj4294967295ELj4294967295EED2Ev@Base 0
 (optional=templinst)_ZN5SPIRV17SPIRVInstTemplateINS_21SPIRVInstTemplateBaseELN3spv2OpE52ELb1ELj4ELb1ELj0ELj4294967295ELj4294967295EE4initEv@Base 0
 (optional=templinst)_ZN5SPIRV17SPIRVInstTemplateINS_21SPIRVInstTemplateBaseELN3spv2OpE52ELb1ELj4ELb1ELj0ELj4294967295ELj4294967295EED0Ev@Base 0
 (optional=templinst)_ZN5SPIRV17SPIRVInstTemplateINS_21SPIRVInstTemplateBaseELN3spv2OpE52ELb1ELj4ELb1ELj0ELj4294967295ELj4294967295EED1Ev@Base 0
 (optional=templinst)_ZN5SPIRV17SPIRVInstTemplateINS_21SPIRVInstTemplateBaseELN3spv2OpE52ELb1ELj4ELb1ELj0ELj4294967295ELj4294967295EED2Ev@Base 0
 (optional=templinst)_ZN5SPIRV17SPIRVInstTemplateINS_21SPIRVInstTemplateBaseELN3spv2OpE69ELb1ELj4ELb0ELj4294967295ELj4294967295ELj4294967295EE4initEv@Base 0
 (optional=templinst)_ZN5SPIRV17SPIRVInstTemplateINS_21SPIRVInstTemplateBaseELN3spv2OpE69ELb1ELj4ELb0ELj4294967295ELj4294967295ELj4294967295EED0Ev@Base 0
 (optional=templinst)_ZN5SPIRV17SPIRVInstTemplateINS_21SPIRVInstTemplateBaseELN3spv2OpE69ELb1ELj4ELb0ELj4294967295ELj4294967295ELj4294967295EED1Ev@Base 0
 (optional=templinst)_ZN5SPIRV17SPIRVInstTemplateINS_21SPIRVInstTemplateBaseELN3spv2OpE69ELb1ELj4ELb0ELj4294967295ELj4294967295ELj4294967295EED2Ev@Base 0
 (optional=templinst)_ZN5SPIRV17SPIRVInstTemplateINS_22SPIRVArbFloatIntelInstELN3spv2OpE5840ELb1ELj9ELb0ELj4294967295ELj4294967295ELj4294967295EE4initEv@Base 0
 (optional=templinst)_ZN5SPIRV17SPIRVInstTemplateINS_22SPIRVArbFloatIntelInstELN3spv2OpE5840ELb1ELj9ELb0ELj4294967295ELj4294967295ELj4294967295EED0Ev@Base 0
 (optional=templinst)_ZN5SPIRV17SPIRVInstTemplateINS_22SPIRVArbFloatIntelInstELN3spv2OpE5840ELb1ELj9ELb0ELj4294967295ELj4294967295ELj4294967295EED1Ev@Base 0
 (optional=templinst)_ZN5SPIRV17SPIRVInstTemplateINS_22SPIRVArbFloatIntelInstELN3spv2OpE5840ELb1ELj9ELb0ELj4294967295ELj4294967295ELj4294967295EED2Ev@Base 0
 (optional=templinst)_ZN5SPIRV17SPIRVInstTemplateINS_22SPIRVArbFloatIntelInstELN3spv2OpE5841ELb1ELj9ELb0ELj4294967295ELj4294967295ELj4294967295EE4initEv@Base 0
 (optional=templinst)_ZN5SPIRV17SPIRVInstTemplateINS_22SPIRVArbFloatIntelInstELN3spv2OpE5841ELb1ELj9ELb0ELj4294967295ELj4294967295ELj4294967295EED0Ev@Base 0
 (optional=templinst)_ZN5SPIRV17SPIRVInstTemplateINS_22SPIRVArbFloatIntelInstELN3spv2OpE5841ELb1ELj9ELb0ELj4294967295ELj4294967295ELj4294967295EED1Ev@Base 0
 (optional=templinst)_ZN5SPIRV17SPIRVInstTemplateINS_22SPIRVArbFloatIntelInstELN3spv2OpE5841ELb1ELj9ELb0ELj4294967295ELj4294967295ELj4294967295EED2Ev@Base 0
 (optional=templinst)_ZN5SPIRV17SPIRVInstTemplateINS_22SPIRVArbFloatIntelInstELN3spv2OpE5842ELb1ELj8ELb0ELj4294967295ELj4294967295ELj4294967295EE4initEv@Base 0
 (optional=templinst)_ZN5SPIRV17SPIRVInstTemplateINS_22SPIRVArbFloatIntelInstELN3spv2OpE5842ELb1ELj8ELb0ELj4294967295ELj4294967295ELj4294967295EED0Ev@Base 0
 (optional=templinst)_ZN5SPIRV17SPIRVInstTemplateINS_22SPIRVArbFloatIntelInstELN3spv2OpE5842ELb1ELj8ELb0ELj4294967295ELj4294967295ELj4294967295EED1Ev@Base 0
 (optional=templinst)_ZN5SPIRV17SPIRVInstTemplateINS_22SPIRVArbFloatIntelInstELN3spv2OpE5842ELb1ELj8ELb0ELj4294967295ELj4294967295ELj4294967295EED2Ev@Base 0
 (optional=templinst)_ZN5SPIRV17SPIRVInstTemplateINS_22SPIRVArbFloatIntelInstELN3spv2OpE5843ELb1ELj8ELb0ELj4294967295ELj4294967295ELj4294967295EE4initEv@Base 0
 (optional=templinst)_ZN5SPIRV17SPIRVInstTemplateINS_22SPIRVArbFloatIntelInstELN3spv2OpE5843ELb1ELj8ELb0ELj4294967295ELj4294967295ELj4294967295EED0Ev@Base 0
 (optional=templinst)_ZN5SPIRV17SPIRVInstTemplateINS_22SPIRVArbFloatIntelInstELN3spv2OpE5843ELb1ELj8ELb0ELj4294967295ELj4294967295ELj4294967295EED1Ev@Base 0
 (optional=templinst)_ZN5SPIRV17SPIRVInstTemplateINS_22SPIRVArbFloatIntelInstELN3spv2OpE5843ELb1ELj8ELb0ELj4294967295ELj4294967295ELj4294967295EED2Ev@Base 0
 (optional=templinst)_ZN5SPIRV17SPIRVInstTemplateINS_22SPIRVArbFloatIntelInstELN3spv2OpE5846ELb1ELj11ELb0ELj4294967295ELj4294967295ELj4294967295EE4initEv@Base 0
 (optional=templinst)_ZN5SPIRV17SPIRVInstTemplateINS_22SPIRVArbFloatIntelInstELN3spv2OpE5846ELb1ELj11ELb0ELj4294967295ELj4294967295ELj4294967295EED0Ev@Base 0
 (optional=templinst)_ZN5SPIRV17SPIRVInstTemplateINS_22SPIRVArbFloatIntelInstELN3spv2OpE5846ELb1ELj11ELb0ELj4294967295ELj4294967295ELj4294967295EED1Ev@Base 0
 (optional=templinst)_ZN5SPIRV17SPIRVInstTemplateINS_22SPIRVArbFloatIntelInstELN3spv2OpE5846ELb1ELj11ELb0ELj4294967295ELj4294967295ELj4294967295EED2Ev@Base 0
 (optional=templinst)_ZN5SPIRV17SPIRVInstTemplateINS_22SPIRVArbFloatIntelInstELN3spv2OpE5847ELb1ELj11ELb0ELj4294967295ELj4294967295ELj4294967295EE4initEv@Base 0
 (optional=templinst)_ZN5SPIRV17SPIRVInstTemplateINS_22SPIRVArbFloatIntelInstELN3spv2OpE5847ELb1ELj11ELb0ELj4294967295ELj4294967295ELj4294967295EED0Ev@Base 0
 (optional=templinst)_ZN5SPIRV17SPIRVInstTemplateINS_22SPIRVArbFloatIntelInstELN3spv2OpE5847ELb1ELj11ELb0ELj4294967295ELj4294967295ELj4294967295EED1Ev@Base 0
 (optional=templinst)_ZN5SPIRV17SPIRVInstTemplateINS_22SPIRVArbFloatIntelInstELN3spv2OpE5847ELb1ELj11ELb0ELj4294967295ELj4294967295ELj4294967295EED2Ev@Base 0
 (optional=templinst)_ZN5SPIRV17SPIRVInstTemplateINS_22SPIRVArbFloatIntelInstELN3spv2OpE5848ELb1ELj11ELb0ELj4294967295ELj4294967295ELj4294967295EE4initEv@Base 0
 (optional=templinst)_ZN5SPIRV17SPIRVInstTemplateINS_22SPIRVArbFloatIntelInstELN3spv2OpE5848ELb1ELj11ELb0ELj4294967295ELj4294967295ELj4294967295EED0Ev@Base 0
 (optional=templinst)_ZN5SPIRV17SPIRVInstTemplateINS_22SPIRVArbFloatIntelInstELN3spv2OpE5848ELb1ELj11ELb0ELj4294967295ELj4294967295ELj4294967295EED1Ev@Base 0
 (optional=templinst)_ZN5SPIRV17SPIRVInstTemplateINS_22SPIRVArbFloatIntelInstELN3spv2OpE5848ELb1ELj11ELb0ELj4294967295ELj4294967295ELj4294967295EED2Ev@Base 0
 (optional=templinst)_ZN5SPIRV17SPIRVInstTemplateINS_22SPIRVArbFloatIntelInstELN3spv2OpE5849ELb1ELj11ELb0ELj4294967295ELj4294967295ELj4294967295EE4initEv@Base 0
 (optional=templinst)_ZN5SPIRV17SPIRVInstTemplateINS_22SPIRVArbFloatIntelInstELN3spv2OpE5849ELb1ELj11ELb0ELj4294967295ELj4294967295ELj4294967295EED0Ev@Base 0
 (optional=templinst)_ZN5SPIRV17SPIRVInstTemplateINS_22SPIRVArbFloatIntelInstELN3spv2OpE5849ELb1ELj11ELb0ELj4294967295ELj4294967295ELj4294967295EED1Ev@Base 0
 (optional=templinst)_ZN5SPIRV17SPIRVInstTemplateINS_22SPIRVArbFloatIntelInstELN3spv2OpE5849ELb1ELj11ELb0ELj4294967295ELj4294967295ELj4294967295EED2Ev@Base 0
 (optional=templinst)_ZN5SPIRV17SPIRVInstTemplateINS_22SPIRVArbFloatIntelInstELN3spv2OpE5850ELb1ELj7ELb0ELj4294967295ELj4294967295ELj4294967295EE4initEv@Base 0
 (optional=templinst)_ZN5SPIRV17SPIRVInstTemplateINS_22SPIRVArbFloatIntelInstELN3spv2OpE5850ELb1ELj7ELb0ELj4294967295ELj4294967295ELj4294967295EED0Ev@Base 0
 (optional=templinst)_ZN5SPIRV17SPIRVInstTemplateINS_22SPIRVArbFloatIntelInstELN3spv2OpE5850ELb1ELj7ELb0ELj4294967295ELj4294967295ELj4294967295EED1Ev@Base 0
 (optional=templinst)_ZN5SPIRV17SPIRVInstTemplateINS_22SPIRVArbFloatIntelInstELN3spv2OpE5850ELb1ELj7ELb0ELj4294967295ELj4294967295ELj4294967295EED2Ev@Base 0
 (optional=templinst)_ZN5SPIRV17SPIRVInstTemplateINS_22SPIRVArbFloatIntelInstELN3spv2OpE5851ELb1ELj7ELb0ELj4294967295ELj4294967295ELj4294967295EE4initEv@Base 0
 (optional=templinst)_ZN5SPIRV17SPIRVInstTemplateINS_22SPIRVArbFloatIntelInstELN3spv2OpE5851ELb1ELj7ELb0ELj4294967295ELj4294967295ELj4294967295EED0Ev@Base 0
 (optional=templinst)_ZN5SPIRV17SPIRVInstTemplateINS_22SPIRVArbFloatIntelInstELN3spv2OpE5851ELb1ELj7ELb0ELj4294967295ELj4294967295ELj4294967295EED1Ev@Base 0
 (optional=templinst)_ZN5SPIRV17SPIRVInstTemplateINS_22SPIRVArbFloatIntelInstELN3spv2OpE5851ELb1ELj7ELb0ELj4294967295ELj4294967295ELj4294967295EED2Ev@Base 0
 (optional=templinst)_ZN5SPIRV17SPIRVInstTemplateINS_22SPIRVArbFloatIntelInstELN3spv2OpE5852ELb1ELj7ELb0ELj4294967295ELj4294967295ELj4294967295EE4initEv@Base 0
 (optional=templinst)_ZN5SPIRV17SPIRVInstTemplateINS_22SPIRVArbFloatIntelInstELN3spv2OpE5852ELb1ELj7ELb0ELj4294967295ELj4294967295ELj4294967295EED0Ev@Base 0
 (optional=templinst)_ZN5SPIRV17SPIRVInstTemplateINS_22SPIRVArbFloatIntelInstELN3spv2OpE5852ELb1ELj7ELb0ELj4294967295ELj4294967295ELj4294967295EED1Ev@Base 0
 (optional=templinst)_ZN5SPIRV17SPIRVInstTemplateINS_22SPIRVArbFloatIntelInstELN3spv2OpE5852ELb1ELj7ELb0ELj4294967295ELj4294967295ELj4294967295EED2Ev@Base 0
 (optional=templinst)_ZN5SPIRV17SPIRVInstTemplateINS_22SPIRVArbFloatIntelInstELN3spv2OpE5853ELb1ELj7ELb0ELj4294967295ELj4294967295ELj4294967295EE4initEv@Base 0
 (optional=templinst)_ZN5SPIRV17SPIRVInstTemplateINS_22SPIRVArbFloatIntelInstELN3spv2OpE5853ELb1ELj7ELb0ELj4294967295ELj4294967295ELj4294967295EED0Ev@Base 0
 (optional=templinst)_ZN5SPIRV17SPIRVInstTemplateINS_22SPIRVArbFloatIntelInstELN3spv2OpE5853ELb1ELj7ELb0ELj4294967295ELj4294967295ELj4294967295EED1Ev@Base 0
 (optional=templinst)_ZN5SPIRV17SPIRVInstTemplateINS_22SPIRVArbFloatIntelInstELN3spv2OpE5853ELb1ELj7ELb0ELj4294967295ELj4294967295ELj4294967295EED2Ev@Base 0
 (optional=templinst)_ZN5SPIRV17SPIRVInstTemplateINS_22SPIRVArbFloatIntelInstELN3spv2OpE5854ELb1ELj7ELb0ELj4294967295ELj4294967295ELj4294967295EE4initEv@Base 0
 (optional=templinst)_ZN5SPIRV17SPIRVInstTemplateINS_22SPIRVArbFloatIntelInstELN3spv2OpE5854ELb1ELj7ELb0ELj4294967295ELj4294967295ELj4294967295EED0Ev@Base 0
 (optional=templinst)_ZN5SPIRV17SPIRVInstTemplateINS_22SPIRVArbFloatIntelInstELN3spv2OpE5854ELb1ELj7ELb0ELj4294967295ELj4294967295ELj4294967295EED1Ev@Base 0
 (optional=templinst)_ZN5SPIRV17SPIRVInstTemplateINS_22SPIRVArbFloatIntelInstELN3spv2OpE5854ELb1ELj7ELb0ELj4294967295ELj4294967295ELj4294967295EED2Ev@Base 0
 (optional=templinst)_ZN5SPIRV17SPIRVInstTemplateINS_22SPIRVArbFloatIntelInstELN3spv2OpE5855ELb1ELj9ELb0ELj4294967295ELj4294967295ELj4294967295EE4initEv@Base 0
 (optional=templinst)_ZN5SPIRV17SPIRVInstTemplateINS_22SPIRVArbFloatIntelInstELN3spv2OpE5855ELb1ELj9ELb0ELj4294967295ELj4294967295ELj4294967295EED0Ev@Base 0
 (optional=templinst)_ZN5SPIRV17SPIRVInstTemplateINS_22SPIRVArbFloatIntelInstELN3spv2OpE5855ELb1ELj9ELb0ELj4294967295ELj4294967295ELj4294967295EED1Ev@Base 0
 (optional=templinst)_ZN5SPIRV17SPIRVInstTemplateINS_22SPIRVArbFloatIntelInstELN3spv2OpE5855ELb1ELj9ELb0ELj4294967295ELj4294967295ELj4294967295EED2Ev@Base 0
 (optional=templinst)_ZN5SPIRV17SPIRVInstTemplateINS_22SPIRVArbFloatIntelInstELN3spv2OpE5856ELb1ELj9ELb0ELj4294967295ELj4294967295ELj4294967295EE4initEv@Base 0
 (optional=templinst)_ZN5SPIRV17SPIRVInstTemplateINS_22SPIRVArbFloatIntelInstELN3spv2OpE5856ELb1ELj9ELb0ELj4294967295ELj4294967295ELj4294967295EED0Ev@Base 0
 (optional=templinst)_ZN5SPIRV17SPIRVInstTemplateINS_22SPIRVArbFloatIntelInstELN3spv2OpE5856ELb1ELj9ELb0ELj4294967295ELj4294967295ELj4294967295EED1Ev@Base 0
 (optional=templinst)_ZN5SPIRV17SPIRVInstTemplateINS_22SPIRVArbFloatIntelInstELN3spv2OpE5856ELb1ELj9ELb0ELj4294967295ELj4294967295ELj4294967295EED2Ev@Base 0
 (optional=templinst)_ZN5SPIRV17SPIRVInstTemplateINS_22SPIRVArbFloatIntelInstELN3spv2OpE5857ELb1ELj9ELb0ELj4294967295ELj4294967295ELj4294967295EE4initEv@Base 0
 (optional=templinst)_ZN5SPIRV17SPIRVInstTemplateINS_22SPIRVArbFloatIntelInstELN3spv2OpE5857ELb1ELj9ELb0ELj4294967295ELj4294967295ELj4294967295EED0Ev@Base 0
 (optional=templinst)_ZN5SPIRV17SPIRVInstTemplateINS_22SPIRVArbFloatIntelInstELN3spv2OpE5857ELb1ELj9ELb0ELj4294967295ELj4294967295ELj4294967295EED1Ev@Base 0
 (optional=templinst)_ZN5SPIRV17SPIRVInstTemplateINS_22SPIRVArbFloatIntelInstELN3spv2OpE5857ELb1ELj9ELb0ELj4294967295ELj4294967295ELj4294967295EED2Ev@Base 0
 (optional=templinst)_ZN5SPIRV17SPIRVInstTemplateINS_22SPIRVArbFloatIntelInstELN3spv2OpE5858ELb1ELj11ELb0ELj4294967295ELj4294967295ELj4294967295EE4initEv@Base 0
 (optional=templinst)_ZN5SPIRV17SPIRVInstTemplateINS_22SPIRVArbFloatIntelInstELN3spv2OpE5858ELb1ELj11ELb0ELj4294967295ELj4294967295ELj4294967295EED0Ev@Base 0
 (optional=templinst)_ZN5SPIRV17SPIRVInstTemplateINS_22SPIRVArbFloatIntelInstELN3spv2OpE5858ELb1ELj11ELb0ELj4294967295ELj4294967295ELj4294967295EED1Ev@Base 0
 (optional=templinst)_ZN5SPIRV17SPIRVInstTemplateINS_22SPIRVArbFloatIntelInstELN3spv2OpE5858ELb1ELj11ELb0ELj4294967295ELj4294967295ELj4294967295EED2Ev@Base 0
 (optional=templinst)_ZN5SPIRV17SPIRVInstTemplateINS_22SPIRVArbFloatIntelInstELN3spv2OpE5859ELb1ELj9ELb0ELj4294967295ELj4294967295ELj4294967295EE4initEv@Base 0
 (optional=templinst)_ZN5SPIRV17SPIRVInstTemplateINS_22SPIRVArbFloatIntelInstELN3spv2OpE5859ELb1ELj9ELb0ELj4294967295ELj4294967295ELj4294967295EED0Ev@Base 0
 (optional=templinst)_ZN5SPIRV17SPIRVInstTemplateINS_22SPIRVArbFloatIntelInstELN3spv2OpE5859ELb1ELj9ELb0ELj4294967295ELj4294967295ELj4294967295EED1Ev@Base 0
 (optional=templinst)_ZN5SPIRV17SPIRVInstTemplateINS_22SPIRVArbFloatIntelInstELN3spv2OpE5859ELb1ELj9ELb0ELj4294967295ELj4294967295ELj4294967295EED2Ev@Base 0
 (optional=templinst)_ZN5SPIRV17SPIRVInstTemplateINS_22SPIRVArbFloatIntelInstELN3spv2OpE5860ELb1ELj9ELb0ELj4294967295ELj4294967295ELj4294967295EE4initEv@Base 0
 (optional=templinst)_ZN5SPIRV17SPIRVInstTemplateINS_22SPIRVArbFloatIntelInstELN3spv2OpE5860ELb1ELj9ELb0ELj4294967295ELj4294967295ELj4294967295EED0Ev@Base 0
 (optional=templinst)_ZN5SPIRV17SPIRVInstTemplateINS_22SPIRVArbFloatIntelInstELN3spv2OpE5860ELb1ELj9ELb0ELj4294967295ELj4294967295ELj4294967295EED1Ev@Base 0
 (optional=templinst)_ZN5SPIRV17SPIRVInstTemplateINS_22SPIRVArbFloatIntelInstELN3spv2OpE5860ELb1ELj9ELb0ELj4294967295ELj4294967295ELj4294967295EED2Ev@Base 0
 (optional=templinst)_ZN5SPIRV17SPIRVInstTemplateINS_22SPIRVArbFloatIntelInstELN3spv2OpE5861ELb1ELj9ELb0ELj4294967295ELj4294967295ELj4294967295EE4initEv@Base 0
 (optional=templinst)_ZN5SPIRV17SPIRVInstTemplateINS_22SPIRVArbFloatIntelInstELN3spv2OpE5861ELb1ELj9ELb0ELj4294967295ELj4294967295ELj4294967295EED0Ev@Base 0
 (optional=templinst)_ZN5SPIRV17SPIRVInstTemplateINS_22SPIRVArbFloatIntelInstELN3spv2OpE5861ELb1ELj9ELb0ELj4294967295ELj4294967295ELj4294967295EED1Ev@Base 0
 (optional=templinst)_ZN5SPIRV17SPIRVInstTemplateINS_22SPIRVArbFloatIntelInstELN3spv2OpE5861ELb1ELj9ELb0ELj4294967295ELj4294967295ELj4294967295EED2Ev@Base 0
 (optional=templinst)_ZN5SPIRV17SPIRVInstTemplateINS_22SPIRVArbFloatIntelInstELN3spv2OpE5862ELb1ELj9ELb0ELj4294967295ELj4294967295ELj4294967295EE4initEv@Base 0
 (optional=templinst)_ZN5SPIRV17SPIRVInstTemplateINS_22SPIRVArbFloatIntelInstELN3spv2OpE5862ELb1ELj9ELb0ELj4294967295ELj4294967295ELj4294967295EED0Ev@Base 0
 (optional=templinst)_ZN5SPIRV17SPIRVInstTemplateINS_22SPIRVArbFloatIntelInstELN3spv2OpE5862ELb1ELj9ELb0ELj4294967295ELj4294967295ELj4294967295EED1Ev@Base 0
 (optional=templinst)_ZN5SPIRV17SPIRVInstTemplateINS_22SPIRVArbFloatIntelInstELN3spv2OpE5862ELb1ELj9ELb0ELj4294967295ELj4294967295ELj4294967295EED2Ev@Base 0
 (optional=templinst)_ZN5SPIRV17SPIRVInstTemplateINS_22SPIRVArbFloatIntelInstELN3spv2OpE5863ELb1ELj9ELb0ELj4294967295ELj4294967295ELj4294967295EE4initEv@Base 0
 (optional=templinst)_ZN5SPIRV17SPIRVInstTemplateINS_22SPIRVArbFloatIntelInstELN3spv2OpE5863ELb1ELj9ELb0ELj4294967295ELj4294967295ELj4294967295EED0Ev@Base 0
 (optional=templinst)_ZN5SPIRV17SPIRVInstTemplateINS_22SPIRVArbFloatIntelInstELN3spv2OpE5863ELb1ELj9ELb0ELj4294967295ELj4294967295ELj4294967295EED1Ev@Base 0
 (optional=templinst)_ZN5SPIRV17SPIRVInstTemplateINS_22SPIRVArbFloatIntelInstELN3spv2OpE5863ELb1ELj9ELb0ELj4294967295ELj4294967295ELj4294967295EED2Ev@Base 0
 (optional=templinst)_ZN5SPIRV17SPIRVInstTemplateINS_22SPIRVArbFloatIntelInstELN3spv2OpE5864ELb1ELj9ELb0ELj4294967295ELj4294967295ELj4294967295EE4initEv@Base 0
 (optional=templinst)_ZN5SPIRV17SPIRVInstTemplateINS_22SPIRVArbFloatIntelInstELN3spv2OpE5864ELb1ELj9ELb0ELj4294967295ELj4294967295ELj4294967295EED0Ev@Base 0
 (optional=templinst)_ZN5SPIRV17SPIRVInstTemplateINS_22SPIRVArbFloatIntelInstELN3spv2OpE5864ELb1ELj9ELb0ELj4294967295ELj4294967295ELj4294967295EED1Ev@Base 0
 (optional=templinst)_ZN5SPIRV17SPIRVInstTemplateINS_22SPIRVArbFloatIntelInstELN3spv2OpE5864ELb1ELj9ELb0ELj4294967295ELj4294967295ELj4294967295EED2Ev@Base 0
 (optional=templinst)_ZN5SPIRV17SPIRVInstTemplateINS_22SPIRVArbFloatIntelInstELN3spv2OpE5865ELb1ELj9ELb0ELj4294967295ELj4294967295ELj4294967295EE4initEv@Base 0
 (optional=templinst)_ZN5SPIRV17SPIRVInstTemplateINS_22SPIRVArbFloatIntelInstELN3spv2OpE5865ELb1ELj9ELb0ELj4294967295ELj4294967295ELj4294967295EED0Ev@Base 0
 (optional=templinst)_ZN5SPIRV17SPIRVInstTemplateINS_22SPIRVArbFloatIntelInstELN3spv2OpE5865ELb1ELj9ELb0ELj4294967295ELj4294967295ELj4294967295EED1Ev@Base 0
 (optional=templinst)_ZN5SPIRV17SPIRVInstTemplateINS_22SPIRVArbFloatIntelInstELN3spv2OpE5865ELb1ELj9ELb0ELj4294967295ELj4294967295ELj4294967295EED2Ev@Base 0
 (optional=templinst)_ZN5SPIRV17SPIRVInstTemplateINS_22SPIRVArbFloatIntelInstELN3spv2OpE5866ELb1ELj9ELb0ELj4294967295ELj4294967295ELj4294967295EE4initEv@Base 0
 (optional=templinst)_ZN5SPIRV17SPIRVInstTemplateINS_22SPIRVArbFloatIntelInstELN3spv2OpE5866ELb1ELj9ELb0ELj4294967295ELj4294967295ELj4294967295EED0Ev@Base 0
 (optional=templinst)_ZN5SPIRV17SPIRVInstTemplateINS_22SPIRVArbFloatIntelInstELN3spv2OpE5866ELb1ELj9ELb0ELj4294967295ELj4294967295ELj4294967295EED1Ev@Base 0
 (optional=templinst)_ZN5SPIRV17SPIRVInstTemplateINS_22SPIRVArbFloatIntelInstELN3spv2OpE5866ELb1ELj9ELb0ELj4294967295ELj4294967295ELj4294967295EED2Ev@Base 0
 (optional=templinst)_ZN5SPIRV17SPIRVInstTemplateINS_22SPIRVArbFloatIntelInstELN3spv2OpE5867ELb1ELj9ELb0ELj4294967295ELj4294967295ELj4294967295EE4initEv@Base 0
 (optional=templinst)_ZN5SPIRV17SPIRVInstTemplateINS_22SPIRVArbFloatIntelInstELN3spv2OpE5867ELb1ELj9ELb0ELj4294967295ELj4294967295ELj4294967295EED0Ev@Base 0
 (optional=templinst)_ZN5SPIRV17SPIRVInstTemplateINS_22SPIRVArbFloatIntelInstELN3spv2OpE5867ELb1ELj9ELb0ELj4294967295ELj4294967295ELj4294967295EED1Ev@Base 0
 (optional=templinst)_ZN5SPIRV17SPIRVInstTemplateINS_22SPIRVArbFloatIntelInstELN3spv2OpE5867ELb1ELj9ELb0ELj4294967295ELj4294967295ELj4294967295EED2Ev@Base 0
 (optional=templinst)_ZN5SPIRV17SPIRVInstTemplateINS_22SPIRVArbFloatIntelInstELN3spv2OpE5868ELb1ELj9ELb0ELj4294967295ELj4294967295ELj4294967295EE4initEv@Base 0
 (optional=templinst)_ZN5SPIRV17SPIRVInstTemplateINS_22SPIRVArbFloatIntelInstELN3spv2OpE5868ELb1ELj9ELb0ELj4294967295ELj4294967295ELj4294967295EED0Ev@Base 0
 (optional=templinst)_ZN5SPIRV17SPIRVInstTemplateINS_22SPIRVArbFloatIntelInstELN3spv2OpE5868ELb1ELj9ELb0ELj4294967295ELj4294967295ELj4294967295EED1Ev@Base 0
 (optional=templinst)_ZN5SPIRV17SPIRVInstTemplateINS_22SPIRVArbFloatIntelInstELN3spv2OpE5868ELb1ELj9ELb0ELj4294967295ELj4294967295ELj4294967295EED2Ev@Base 0
 (optional=templinst)_ZN5SPIRV17SPIRVInstTemplateINS_22SPIRVArbFloatIntelInstELN3spv2OpE5869ELb1ELj9ELb0ELj4294967295ELj4294967295ELj4294967295EE4initEv@Base 0
 (optional=templinst)_ZN5SPIRV17SPIRVInstTemplateINS_22SPIRVArbFloatIntelInstELN3spv2OpE5869ELb1ELj9ELb0ELj4294967295ELj4294967295ELj4294967295EED0Ev@Base 0
 (optional=templinst)_ZN5SPIRV17SPIRVInstTemplateINS_22SPIRVArbFloatIntelInstELN3spv2OpE5869ELb1ELj9ELb0ELj4294967295ELj4294967295ELj4294967295EED1Ev@Base 0
 (optional=templinst)_ZN5SPIRV17SPIRVInstTemplateINS_22SPIRVArbFloatIntelInstELN3spv2OpE5869ELb1ELj9ELb0ELj4294967295ELj4294967295ELj4294967295EED2Ev@Base 0
 (optional=templinst)_ZN5SPIRV17SPIRVInstTemplateINS_22SPIRVArbFloatIntelInstELN3spv2OpE5870ELb1ELj9ELb0ELj4294967295ELj4294967295ELj4294967295EE4initEv@Base 0
 (optional=templinst)_ZN5SPIRV17SPIRVInstTemplateINS_22SPIRVArbFloatIntelInstELN3spv2OpE5870ELb1ELj9ELb0ELj4294967295ELj4294967295ELj4294967295EED0Ev@Base 0
 (optional=templinst)_ZN5SPIRV17SPIRVInstTemplateINS_22SPIRVArbFloatIntelInstELN3spv2OpE5870ELb1ELj9ELb0ELj4294967295ELj4294967295ELj4294967295EED1Ev@Base 0
 (optional=templinst)_ZN5SPIRV17SPIRVInstTemplateINS_22SPIRVArbFloatIntelInstELN3spv2OpE5870ELb1ELj9ELb0ELj4294967295ELj4294967295ELj4294967295EED2Ev@Base 0
 (optional=templinst)_ZN5SPIRV17SPIRVInstTemplateINS_22SPIRVArbFloatIntelInstELN3spv2OpE5871ELb1ELj9ELb0ELj4294967295ELj4294967295ELj4294967295EE4initEv@Base 0
 (optional=templinst)_ZN5SPIRV17SPIRVInstTemplateINS_22SPIRVArbFloatIntelInstELN3spv2OpE5871ELb1ELj9ELb0ELj4294967295ELj4294967295ELj4294967295EED0Ev@Base 0
 (optional=templinst)_ZN5SPIRV17SPIRVInstTemplateINS_22SPIRVArbFloatIntelInstELN3spv2OpE5871ELb1ELj9ELb0ELj4294967295ELj4294967295ELj4294967295EED1Ev@Base 0
 (optional=templinst)_ZN5SPIRV17SPIRVInstTemplateINS_22SPIRVArbFloatIntelInstELN3spv2OpE5871ELb1ELj9ELb0ELj4294967295ELj4294967295ELj4294967295EED2Ev@Base 0
 (optional=templinst)_ZN5SPIRV17SPIRVInstTemplateINS_22SPIRVArbFloatIntelInstELN3spv2OpE5872ELb1ELj9ELb0ELj4294967295ELj4294967295ELj4294967295EE4initEv@Base 0
 (optional=templinst)_ZN5SPIRV17SPIRVInstTemplateINS_22SPIRVArbFloatIntelInstELN3spv2OpE5872ELb1ELj9ELb0ELj4294967295ELj4294967295ELj4294967295EED0Ev@Base 0
 (optional=templinst)_ZN5SPIRV17SPIRVInstTemplateINS_22SPIRVArbFloatIntelInstELN3spv2OpE5872ELb1ELj9ELb0ELj4294967295ELj4294967295ELj4294967295EED1Ev@Base 0
 (optional=templinst)_ZN5SPIRV17SPIRVInstTemplateINS_22SPIRVArbFloatIntelInstELN3spv2OpE5872ELb1ELj9ELb0ELj4294967295ELj4294967295ELj4294967295EED2Ev@Base 0
 (optional=templinst)_ZN5SPIRV17SPIRVInstTemplateINS_22SPIRVArbFloatIntelInstELN3spv2OpE5873ELb1ELj9ELb0ELj4294967295ELj4294967295ELj4294967295EE4initEv@Base 0
 (optional=templinst)_ZN5SPIRV17SPIRVInstTemplateINS_22SPIRVArbFloatIntelInstELN3spv2OpE5873ELb1ELj9ELb0ELj4294967295ELj4294967295ELj4294967295EED0Ev@Base 0
 (optional=templinst)_ZN5SPIRV17SPIRVInstTemplateINS_22SPIRVArbFloatIntelInstELN3spv2OpE5873ELb1ELj9ELb0ELj4294967295ELj4294967295ELj4294967295EED1Ev@Base 0
 (optional=templinst)_ZN5SPIRV17SPIRVInstTemplateINS_22SPIRVArbFloatIntelInstELN3spv2OpE5873ELb1ELj9ELb0ELj4294967295ELj4294967295ELj4294967295EED2Ev@Base 0
 (optional=templinst)_ZN5SPIRV17SPIRVInstTemplateINS_22SPIRVArbFloatIntelInstELN3spv2OpE5874ELb1ELj9ELb0ELj4294967295ELj4294967295ELj4294967295EE4initEv@Base 0
 (optional=templinst)_ZN5SPIRV17SPIRVInstTemplateINS_22SPIRVArbFloatIntelInstELN3spv2OpE5874ELb1ELj9ELb0ELj4294967295ELj4294967295ELj4294967295EED0Ev@Base 0
 (optional=templinst)_ZN5SPIRV17SPIRVInstTemplateINS_22SPIRVArbFloatIntelInstELN3spv2OpE5874ELb1ELj9ELb0ELj4294967295ELj4294967295ELj4294967295EED1Ev@Base 0
 (optional=templinst)_ZN5SPIRV17SPIRVInstTemplateINS_22SPIRVArbFloatIntelInstELN3spv2OpE5874ELb1ELj9ELb0ELj4294967295ELj4294967295ELj4294967295EED2Ev@Base 0
 (optional=templinst)_ZN5SPIRV17SPIRVInstTemplateINS_22SPIRVArbFloatIntelInstELN3spv2OpE5875ELb1ELj9ELb0ELj4294967295ELj4294967295ELj4294967295EE4initEv@Base 0
 (optional=templinst)_ZN5SPIRV17SPIRVInstTemplateINS_22SPIRVArbFloatIntelInstELN3spv2OpE5875ELb1ELj9ELb0ELj4294967295ELj4294967295ELj4294967295EED0Ev@Base 0
 (optional=templinst)_ZN5SPIRV17SPIRVInstTemplateINS_22SPIRVArbFloatIntelInstELN3spv2OpE5875ELb1ELj9ELb0ELj4294967295ELj4294967295ELj4294967295EED1Ev@Base 0
 (optional=templinst)_ZN5SPIRV17SPIRVInstTemplateINS_22SPIRVArbFloatIntelInstELN3spv2OpE5875ELb1ELj9ELb0ELj4294967295ELj4294967295ELj4294967295EED2Ev@Base 0
 (optional=templinst)_ZN5SPIRV17SPIRVInstTemplateINS_22SPIRVArbFloatIntelInstELN3spv2OpE5876ELb1ELj9ELb0ELj4294967295ELj4294967295ELj4294967295EE4initEv@Base 0
 (optional=templinst)_ZN5SPIRV17SPIRVInstTemplateINS_22SPIRVArbFloatIntelInstELN3spv2OpE5876ELb1ELj9ELb0ELj4294967295ELj4294967295ELj4294967295EED0Ev@Base 0
 (optional=templinst)_ZN5SPIRV17SPIRVInstTemplateINS_22SPIRVArbFloatIntelInstELN3spv2OpE5876ELb1ELj9ELb0ELj4294967295ELj4294967295ELj4294967295EED1Ev@Base 0
 (optional=templinst)_ZN5SPIRV17SPIRVInstTemplateINS_22SPIRVArbFloatIntelInstELN3spv2OpE5876ELb1ELj9ELb0ELj4294967295ELj4294967295ELj4294967295EED2Ev@Base 0
 (optional=templinst)_ZN5SPIRV17SPIRVInstTemplateINS_22SPIRVArbFloatIntelInstELN3spv2OpE5877ELb1ELj9ELb0ELj4294967295ELj4294967295ELj4294967295EE4initEv@Base 0
 (optional=templinst)_ZN5SPIRV17SPIRVInstTemplateINS_22SPIRVArbFloatIntelInstELN3spv2OpE5877ELb1ELj9ELb0ELj4294967295ELj4294967295ELj4294967295EED0Ev@Base 0
 (optional=templinst)_ZN5SPIRV17SPIRVInstTemplateINS_22SPIRVArbFloatIntelInstELN3spv2OpE5877ELb1ELj9ELb0ELj4294967295ELj4294967295ELj4294967295EED1Ev@Base 0
 (optional=templinst)_ZN5SPIRV17SPIRVInstTemplateINS_22SPIRVArbFloatIntelInstELN3spv2OpE5877ELb1ELj9ELb0ELj4294967295ELj4294967295ELj4294967295EED2Ev@Base 0
 (optional=templinst)_ZN5SPIRV17SPIRVInstTemplateINS_22SPIRVArbFloatIntelInstELN3spv2OpE5878ELb1ELj9ELb0ELj4294967295ELj4294967295ELj4294967295EE4initEv@Base 0
 (optional=templinst)_ZN5SPIRV17SPIRVInstTemplateINS_22SPIRVArbFloatIntelInstELN3spv2OpE5878ELb1ELj9ELb0ELj4294967295ELj4294967295ELj4294967295EED0Ev@Base 0
 (optional=templinst)_ZN5SPIRV17SPIRVInstTemplateINS_22SPIRVArbFloatIntelInstELN3spv2OpE5878ELb1ELj9ELb0ELj4294967295ELj4294967295ELj4294967295EED1Ev@Base 0
 (optional=templinst)_ZN5SPIRV17SPIRVInstTemplateINS_22SPIRVArbFloatIntelInstELN3spv2OpE5878ELb1ELj9ELb0ELj4294967295ELj4294967295ELj4294967295EED2Ev@Base 0
 (optional=templinst)_ZN5SPIRV17SPIRVInstTemplateINS_22SPIRVArbFloatIntelInstELN3spv2OpE5879ELb1ELj11ELb0ELj4294967295ELj4294967295ELj4294967295EE4initEv@Base 0
 (optional=templinst)_ZN5SPIRV17SPIRVInstTemplateINS_22SPIRVArbFloatIntelInstELN3spv2OpE5879ELb1ELj11ELb0ELj4294967295ELj4294967295ELj4294967295EED0Ev@Base 0
 (optional=templinst)_ZN5SPIRV17SPIRVInstTemplateINS_22SPIRVArbFloatIntelInstELN3spv2OpE5879ELb1ELj11ELb0ELj4294967295ELj4294967295ELj4294967295EED1Ev@Base 0
 (optional=templinst)_ZN5SPIRV17SPIRVInstTemplateINS_22SPIRVArbFloatIntelInstELN3spv2OpE5879ELb1ELj11ELb0ELj4294967295ELj4294967295ELj4294967295EED2Ev@Base 0
 (optional=templinst)_ZN5SPIRV17SPIRVInstTemplateINS_22SPIRVArbFloatIntelInstELN3spv2OpE5880ELb1ELj11ELb0ELj4294967295ELj4294967295ELj4294967295EE4initEv@Base 0
 (optional=templinst)_ZN5SPIRV17SPIRVInstTemplateINS_22SPIRVArbFloatIntelInstELN3spv2OpE5880ELb1ELj11ELb0ELj4294967295ELj4294967295ELj4294967295EED0Ev@Base 0
 (optional=templinst)_ZN5SPIRV17SPIRVInstTemplateINS_22SPIRVArbFloatIntelInstELN3spv2OpE5880ELb1ELj11ELb0ELj4294967295ELj4294967295ELj4294967295EED1Ev@Base 0
 (optional=templinst)_ZN5SPIRV17SPIRVInstTemplateINS_22SPIRVArbFloatIntelInstELN3spv2OpE5880ELb1ELj11ELb0ELj4294967295ELj4294967295ELj4294967295EED2Ev@Base 0
 (optional=templinst)_ZN5SPIRV17SPIRVInstTemplateINS_22SPIRVArbFloatIntelInstELN3spv2OpE5881ELb1ELj11ELb0ELj4294967295ELj4294967295ELj4294967295EE4initEv@Base 0
 (optional=templinst)_ZN5SPIRV17SPIRVInstTemplateINS_22SPIRVArbFloatIntelInstELN3spv2OpE5881ELb1ELj11ELb0ELj4294967295ELj4294967295ELj4294967295EED0Ev@Base 0
 (optional=templinst)_ZN5SPIRV17SPIRVInstTemplateINS_22SPIRVArbFloatIntelInstELN3spv2OpE5881ELb1ELj11ELb0ELj4294967295ELj4294967295ELj4294967295EED1Ev@Base 0
 (optional=templinst)_ZN5SPIRV17SPIRVInstTemplateINS_22SPIRVArbFloatIntelInstELN3spv2OpE5881ELb1ELj11ELb0ELj4294967295ELj4294967295ELj4294967295EED2Ev@Base 0
 (optional=templinst)_ZN5SPIRV17SPIRVInstTemplateINS_22SPIRVArbFloatIntelInstELN3spv2OpE5882ELb1ELj10ELb0ELj4294967295ELj4294967295ELj4294967295EE4initEv@Base 0
 (optional=templinst)_ZN5SPIRV17SPIRVInstTemplateINS_22SPIRVArbFloatIntelInstELN3spv2OpE5882ELb1ELj10ELb0ELj4294967295ELj4294967295ELj4294967295EED0Ev@Base 0
 (optional=templinst)_ZN5SPIRV17SPIRVInstTemplateINS_22SPIRVArbFloatIntelInstELN3spv2OpE5882ELb1ELj10ELb0ELj4294967295ELj4294967295ELj4294967295EED1Ev@Base 0
 (optional=templinst)_ZN5SPIRV17SPIRVInstTemplateINS_22SPIRVArbFloatIntelInstELN3spv2OpE5882ELb1ELj10ELb0ELj4294967295ELj4294967295ELj4294967295EED2Ev@Base 0
 (optional=templinst)_ZN5SPIRV17SPIRVInstTemplateINS_24SPIRVExpectINTELInstBaseELN3spv2OpE5631ELb1ELj5ELb0ELj4294967295ELj4294967295ELj4294967295EE4initEv@Base 0
 (optional=templinst)_ZN5SPIRV17SPIRVInstTemplateINS_24SPIRVExpectINTELInstBaseELN3spv2OpE5631ELb1ELj5ELb0ELj4294967295ELj4294967295ELj4294967295EED0Ev@Base 0
 (optional=templinst)_ZN5SPIRV17SPIRVInstTemplateINS_24SPIRVExpectINTELInstBaseELN3spv2OpE5631ELb1ELj5ELb0ELj4294967295ELj4294967295ELj4294967295EED1Ev@Base 0
 (optional=templinst)_ZN5SPIRV17SPIRVInstTemplateINS_24SPIRVExpectINTELInstBaseELN3spv2OpE5631ELb1ELj5ELb0ELj4294967295ELj4294967295ELj4294967295EED2Ev@Base 0
 (optional=templinst)_ZN5SPIRV17SPIRVInstTemplateINS_24SPIRVPipeStorageInstBaseELN3spv2OpE324ELb1ELj4ELb0ELj4294967295ELj4294967295ELj4294967295EE4initEv@Base 0
 (optional=templinst)_ZN5SPIRV17SPIRVInstTemplateINS_24SPIRVPipeStorageInstBaseELN3spv2OpE324ELb1ELj4ELb0ELj4294967295ELj4294967295ELj4294967295EED0Ev@Base 0
 (optional=templinst)_ZN5SPIRV17SPIRVInstTemplateINS_24SPIRVPipeStorageInstBaseELN3spv2OpE324ELb1ELj4ELb0ELj4294967295ELj4294967295ELj4294967295EED1Ev@Base 0
 (optional=templinst)_ZN5SPIRV17SPIRVInstTemplateINS_24SPIRVPipeStorageInstBaseELN3spv2OpE324ELb1ELj4ELb0ELj4294967295ELj4294967295ELj4294967295EED2Ev@Base 0
 (optional=templinst)_ZN5SPIRV17SPIRVInstTemplateINS_25SPIRVFPGARegINTELInstBaseELN3spv2OpE5949ELb1ELj4ELb0ELj4294967295ELj4294967295ELj4294967295EE4initEv@Base 0
 (optional=templinst)_ZN5SPIRV17SPIRVInstTemplateINS_25SPIRVFPGARegINTELInstBaseELN3spv2OpE5949ELb1ELj4ELb0ELj4294967295ELj4294967295ELj4294967295EED0Ev@Base 0
 (optional=templinst)_ZN5SPIRV17SPIRVInstTemplateINS_25SPIRVFPGARegINTELInstBaseELN3spv2OpE5949ELb1ELj4ELb0ELj4294967295ELj4294967295ELj4294967295EED1Ev@Base 0
 (optional=templinst)_ZN5SPIRV17SPIRVInstTemplateINS_25SPIRVFPGARegINTELInstBaseELN3spv2OpE5949ELb1ELj4ELb0ELj4294967295ELj4294967295ELj4294967295EED2Ev@Base 0
 (optional=templinst)_ZN5SPIRV17SPIRVInstTemplateINS_27SPIRVBlockingPipesIntelInstELN3spv2OpE5946ELb0ELj5ELb0ELj4294967295ELj4294967295ELj4294967295EE4initEv@Base 0
 (optional=templinst)_ZN5SPIRV17SPIRVInstTemplateINS_27SPIRVBlockingPipesIntelInstELN3spv2OpE5946ELb0ELj5ELb0ELj4294967295ELj4294967295ELj4294967295EED0Ev@Base 0
 (optional=templinst)_ZN5SPIRV17SPIRVInstTemplateINS_27SPIRVBlockingPipesIntelInstELN3spv2OpE5946ELb0ELj5ELb0ELj4294967295ELj4294967295ELj4294967295EED1Ev@Base 0
 (optional=templinst)_ZN5SPIRV17SPIRVInstTemplateINS_27SPIRVBlockingPipesIntelInstELN3spv2OpE5946ELb0ELj5ELb0ELj4294967295ELj4294967295ELj4294967295EED2Ev@Base 0
 (optional=templinst)_ZN5SPIRV17SPIRVInstTemplateINS_27SPIRVBlockingPipesIntelInstELN3spv2OpE5947ELb0ELj5ELb0ELj4294967295ELj4294967295ELj4294967295EE4initEv@Base 0
 (optional=templinst)_ZN5SPIRV17SPIRVInstTemplateINS_27SPIRVBlockingPipesIntelInstELN3spv2OpE5947ELb0ELj5ELb0ELj4294967295ELj4294967295ELj4294967295EED0Ev@Base 0
 (optional=templinst)_ZN5SPIRV17SPIRVInstTemplateINS_27SPIRVBlockingPipesIntelInstELN3spv2OpE5947ELb0ELj5ELb0ELj4294967295ELj4294967295ELj4294967295EED1Ev@Base 0
 (optional=templinst)_ZN5SPIRV17SPIRVInstTemplateINS_27SPIRVBlockingPipesIntelInstELN3spv2OpE5947ELb0ELj5ELb0ELj4294967295ELj4294967295ELj4294967295EED2Ev@Base 0
 (optional=templinst)_ZN5SPIRV17SPIRVInstTemplateINS_28SPIRVGroupNonUniformVoteInstELN3spv2OpE334ELb1ELj5ELb0ELj4294967295ELj4294967295ELj4294967295EE4initEv@Base 0
 (optional=templinst)_ZN5SPIRV17SPIRVInstTemplateINS_28SPIRVGroupNonUniformVoteInstELN3spv2OpE334ELb1ELj5ELb0ELj4294967295ELj4294967295ELj4294967295EED0Ev@Base 0
 (optional=templinst)_ZN5SPIRV17SPIRVInstTemplateINS_28SPIRVGroupNonUniformVoteInstELN3spv2OpE334ELb1ELj5ELb0ELj4294967295ELj4294967295ELj4294967295EED1Ev@Base 0
 (optional=templinst)_ZN5SPIRV17SPIRVInstTemplateINS_28SPIRVGroupNonUniformVoteInstELN3spv2OpE334ELb1ELj5ELb0ELj4294967295ELj4294967295ELj4294967295EED2Ev@Base 0
 (optional=templinst)_ZN5SPIRV17SPIRVInstTemplateINS_28SPIRVGroupNonUniformVoteInstELN3spv2OpE335ELb1ELj5ELb0ELj4294967295ELj4294967295ELj4294967295EE4initEv@Base 0
 (optional=templinst)_ZN5SPIRV17SPIRVInstTemplateINS_28SPIRVGroupNonUniformVoteInstELN3spv2OpE335ELb1ELj5ELb0ELj4294967295ELj4294967295ELj4294967295EED0Ev@Base 0
 (optional=templinst)_ZN5SPIRV17SPIRVInstTemplateINS_28SPIRVGroupNonUniformVoteInstELN3spv2OpE335ELb1ELj5ELb0ELj4294967295ELj4294967295ELj4294967295EED1Ev@Base 0
 (optional=templinst)_ZN5SPIRV17SPIRVInstTemplateINS_28SPIRVGroupNonUniformVoteInstELN3spv2OpE335ELb1ELj5ELb0ELj4294967295ELj4294967295ELj4294967295EED2Ev@Base 0
 (optional=templinst)_ZN5SPIRV17SPIRVInstTemplateINS_28SPIRVGroupNonUniformVoteInstELN3spv2OpE336ELb1ELj5ELb0ELj4294967295ELj4294967295ELj4294967295EE4initEv@Base 0
 (optional=templinst)_ZN5SPIRV17SPIRVInstTemplateINS_28SPIRVGroupNonUniformVoteInstELN3spv2OpE336ELb1ELj5ELb0ELj4294967295ELj4294967295ELj4294967295EED0Ev@Base 0
 (optional=templinst)_ZN5SPIRV17SPIRVInstTemplateINS_28SPIRVGroupNonUniformVoteInstELN3spv2OpE336ELb1ELj5ELb0ELj4294967295ELj4294967295ELj4294967295EED1Ev@Base 0
 (optional=templinst)_ZN5SPIRV17SPIRVInstTemplateINS_28SPIRVGroupNonUniformVoteInstELN3spv2OpE336ELb1ELj5ELb0ELj4294967295ELj4294967295ELj4294967295EED2Ev@Base 0
 (optional=templinst)_ZN5SPIRV17SPIRVInstTemplateINS_29SPIRVGroupNonUniformElectInstELN3spv2OpE333ELb1ELj4ELb0ELj4294967295ELj4294967295ELj4294967295EE4initEv@Base 0
 (optional=templinst)_ZN5SPIRV17SPIRVInstTemplateINS_29SPIRVGroupNonUniformElectInstELN3spv2OpE333ELb1ELj4ELb0ELj4294967295ELj4294967295ELj4294967295EED0Ev@Base 0
 (optional=templinst)_ZN5SPIRV17SPIRVInstTemplateINS_29SPIRVGroupNonUniformElectInstELN3spv2OpE333ELb1ELj4ELb0ELj4294967295ELj4294967295ELj4294967295EED1Ev@Base 0
 (optional=templinst)_ZN5SPIRV17SPIRVInstTemplateINS_29SPIRVGroupNonUniformElectInstELN3spv2OpE333ELb1ELj4ELb0ELj4294967295ELj4294967295ELj4294967295EED2Ev@Base 0
 (optional=templinst)_ZN5SPIRV17SPIRVInstTemplateINS_29SPIRVSubgroupAVCIntelInstBaseELN3spv2OpE5699ELb1ELj5ELb0ELj4294967295ELj4294967295ELj4294967295EE4initEv@Base 0
 (optional=templinst)_ZN5SPIRV17SPIRVInstTemplateINS_29SPIRVSubgroupAVCIntelInstBaseELN3spv2OpE5699ELb1ELj5ELb0ELj4294967295ELj4294967295ELj4294967295EED0Ev@Base 0
 (optional=templinst)_ZN5SPIRV17SPIRVInstTemplateINS_29SPIRVSubgroupAVCIntelInstBaseELN3spv2OpE5699ELb1ELj5ELb0ELj4294967295ELj4294967295ELj4294967295EED1Ev@Base 0
 (optional=templinst)_ZN5SPIRV17SPIRVInstTemplateINS_29SPIRVSubgroupAVCIntelInstBaseELN3spv2OpE5699ELb1ELj5ELb0ELj4294967295ELj4294967295ELj4294967295EED2Ev@Base 0
 (optional=templinst)_ZN5SPIRV17SPIRVInstTemplateINS_29SPIRVSubgroupAVCIntelInstBaseELN3spv2OpE5713ELb1ELj5ELb0ELj4294967295ELj4294967295ELj4294967295EE4initEv@Base 0
 (optional=templinst)_ZN5SPIRV17SPIRVInstTemplateINS_29SPIRVSubgroupAVCIntelInstBaseELN3spv2OpE5713ELb1ELj5ELb0ELj4294967295ELj4294967295ELj4294967295EED0Ev@Base 0
 (optional=templinst)_ZN5SPIRV17SPIRVInstTemplateINS_29SPIRVSubgroupAVCIntelInstBaseELN3spv2OpE5713ELb1ELj5ELb0ELj4294967295ELj4294967295ELj4294967295EED1Ev@Base 0
 (optional=templinst)_ZN5SPIRV17SPIRVInstTemplateINS_29SPIRVSubgroupAVCIntelInstBaseELN3spv2OpE5713ELb1ELj5ELb0ELj4294967295ELj4294967295ELj4294967295EED2Ev@Base 0
 (optional=templinst)_ZN5SPIRV17SPIRVInstTemplateINS_29SPIRVSubgroupAVCIntelInstBaseELN3spv2OpE5714ELb1ELj5ELb0ELj4294967295ELj4294967295ELj4294967295EE4initEv@Base 0
 (optional=templinst)_ZN5SPIRV17SPIRVInstTemplateINS_29SPIRVSubgroupAVCIntelInstBaseELN3spv2OpE5714ELb1ELj5ELb0ELj4294967295ELj4294967295ELj4294967295EED0Ev@Base 0
 (optional=templinst)_ZN5SPIRV17SPIRVInstTemplateINS_29SPIRVSubgroupAVCIntelInstBaseELN3spv2OpE5714ELb1ELj5ELb0ELj4294967295ELj4294967295ELj4294967295EED1Ev@Base 0
 (optional=templinst)_ZN5SPIRV17SPIRVInstTemplateINS_29SPIRVSubgroupAVCIntelInstBaseELN3spv2OpE5714ELb1ELj5ELb0ELj4294967295ELj4294967295ELj4294967295EED2Ev@Base 0
 (optional=templinst)_ZN5SPIRV17SPIRVInstTemplateINS_29SPIRVSubgroupAVCIntelInstBaseELN3spv2OpE5715ELb1ELj5ELb0ELj4294967295ELj4294967295ELj4294967295EE4initEv@Base 0
 (optional=templinst)_ZN5SPIRV17SPIRVInstTemplateINS_29SPIRVSubgroupAVCIntelInstBaseELN3spv2OpE5715ELb1ELj5ELb0ELj4294967295ELj4294967295ELj4294967295EED0Ev@Base 0
 (optional=templinst)_ZN5SPIRV17SPIRVInstTemplateINS_29SPIRVSubgroupAVCIntelInstBaseELN3spv2OpE5715ELb1ELj5ELb0ELj4294967295ELj4294967295ELj4294967295EED1Ev@Base 0
 (optional=templinst)_ZN5SPIRV17SPIRVInstTemplateINS_29SPIRVSubgroupAVCIntelInstBaseELN3spv2OpE5715ELb1ELj5ELb0ELj4294967295ELj4294967295ELj4294967295EED2Ev@Base 0
 (optional=templinst)_ZN5SPIRV17SPIRVInstTemplateINS_29SPIRVSubgroupAVCIntelInstBaseELN3spv2OpE5716ELb1ELj5ELb0ELj4294967295ELj4294967295ELj4294967295EE4initEv@Base 0
 (optional=templinst)_ZN5SPIRV17SPIRVInstTemplateINS_29SPIRVSubgroupAVCIntelInstBaseELN3spv2OpE5716ELb1ELj5ELb0ELj4294967295ELj4294967295ELj4294967295EED0Ev@Base 0
 (optional=templinst)_ZN5SPIRV17SPIRVInstTemplateINS_29SPIRVSubgroupAVCIntelInstBaseELN3spv2OpE5716ELb1ELj5ELb0ELj4294967295ELj4294967295ELj4294967295EED1Ev@Base 0
 (optional=templinst)_ZN5SPIRV17SPIRVInstTemplateINS_29SPIRVSubgroupAVCIntelInstBaseELN3spv2OpE5716ELb1ELj5ELb0ELj4294967295ELj4294967295ELj4294967295EED2Ev@Base 0
 (optional=templinst)_ZN5SPIRV17SPIRVInstTemplateINS_29SPIRVSubgroupAVCIntelInstBaseELN3spv2OpE5717ELb1ELj5ELb0ELj4294967295ELj4294967295ELj4294967295EE4initEv@Base 0
 (optional=templinst)_ZN5SPIRV17SPIRVInstTemplateINS_29SPIRVSubgroupAVCIntelInstBaseELN3spv2OpE5717ELb1ELj5ELb0ELj4294967295ELj4294967295ELj4294967295EED0Ev@Base 0
 (optional=templinst)_ZN5SPIRV17SPIRVInstTemplateINS_29SPIRVSubgroupAVCIntelInstBaseELN3spv2OpE5717ELb1ELj5ELb0ELj4294967295ELj4294967295ELj4294967295EED1Ev@Base 0
 (optional=templinst)_ZN5SPIRV17SPIRVInstTemplateINS_29SPIRVSubgroupAVCIntelInstBaseELN3spv2OpE5717ELb1ELj5ELb0ELj4294967295ELj4294967295ELj4294967295EED2Ev@Base 0
 (optional=templinst)_ZN5SPIRV17SPIRVInstTemplateINS_29SPIRVSubgroupAVCIntelInstBaseELN3spv2OpE5718ELb1ELj5ELb0ELj4294967295ELj4294967295ELj4294967295EE4initEv@Base 0
 (optional=templinst)_ZN5SPIRV17SPIRVInstTemplateINS_29SPIRVSubgroupAVCIntelInstBaseELN3spv2OpE5718ELb1ELj5ELb0ELj4294967295ELj4294967295ELj4294967295EED0Ev@Base 0
 (optional=templinst)_ZN5SPIRV17SPIRVInstTemplateINS_29SPIRVSubgroupAVCIntelInstBaseELN3spv2OpE5718ELb1ELj5ELb0ELj4294967295ELj4294967295ELj4294967295EED1Ev@Base 0
 (optional=templinst)_ZN5SPIRV17SPIRVInstTemplateINS_29SPIRVSubgroupAVCIntelInstBaseELN3spv2OpE5718ELb1ELj5ELb0ELj4294967295ELj4294967295ELj4294967295EED2Ev@Base 0
 (optional=templinst)_ZN5SPIRV17SPIRVInstTemplateINS_29SPIRVSubgroupAVCIntelInstBaseELN3spv2OpE5720ELb1ELj5ELb0ELj4294967295ELj4294967295ELj4294967295EE4initEv@Base 0
 (optional=templinst)_ZN5SPIRV17SPIRVInstTemplateINS_29SPIRVSubgroupAVCIntelInstBaseELN3spv2OpE5720ELb1ELj5ELb0ELj4294967295ELj4294967295ELj4294967295EED0Ev@Base 0
 (optional=templinst)_ZN5SPIRV17SPIRVInstTemplateINS_29SPIRVSubgroupAVCIntelInstBaseELN3spv2OpE5720ELb1ELj5ELb0ELj4294967295ELj4294967295ELj4294967295EED1Ev@Base 0
 (optional=templinst)_ZN5SPIRV17SPIRVInstTemplateINS_29SPIRVSubgroupAVCIntelInstBaseELN3spv2OpE5720ELb1ELj5ELb0ELj4294967295ELj4294967295ELj4294967295EED2Ev@Base 0
 (optional=templinst)_ZN5SPIRV17SPIRVInstTemplateINS_29SPIRVSubgroupAVCIntelInstBaseELN3spv2OpE5721ELb1ELj3ELb0ELj4294967295ELj4294967295ELj4294967295EE4initEv@Base 0
 (optional=templinst)_ZN5SPIRV17SPIRVInstTemplateINS_29SPIRVSubgroupAVCIntelInstBaseELN3spv2OpE5721ELb1ELj3ELb0ELj4294967295ELj4294967295ELj4294967295EED0Ev@Base 0
 (optional=templinst)_ZN5SPIRV17SPIRVInstTemplateINS_29SPIRVSubgroupAVCIntelInstBaseELN3spv2OpE5721ELb1ELj3ELb0ELj4294967295ELj4294967295ELj4294967295EED1Ev@Base 0
 (optional=templinst)_ZN5SPIRV17SPIRVInstTemplateINS_29SPIRVSubgroupAVCIntelInstBaseELN3spv2OpE5721ELb1ELj3ELb0ELj4294967295ELj4294967295ELj4294967295EED2Ev@Base 0
 (optional=templinst)_ZN5SPIRV17SPIRVInstTemplateINS_29SPIRVSubgroupAVCIntelInstBaseELN3spv2OpE5722ELb1ELj3ELb0ELj4294967295ELj4294967295ELj4294967295EE4initEv@Base 0
 (optional=templinst)_ZN5SPIRV17SPIRVInstTemplateINS_29SPIRVSubgroupAVCIntelInstBaseELN3spv2OpE5722ELb1ELj3ELb0ELj4294967295ELj4294967295ELj4294967295EED0Ev@Base 0
 (optional=templinst)_ZN5SPIRV17SPIRVInstTemplateINS_29SPIRVSubgroupAVCIntelInstBaseELN3spv2OpE5722ELb1ELj3ELb0ELj4294967295ELj4294967295ELj4294967295EED1Ev@Base 0
 (optional=templinst)_ZN5SPIRV17SPIRVInstTemplateINS_29SPIRVSubgroupAVCIntelInstBaseELN3spv2OpE5722ELb1ELj3ELb0ELj4294967295ELj4294967295ELj4294967295EED2Ev@Base 0
 (optional=templinst)_ZN5SPIRV17SPIRVInstTemplateINS_29SPIRVSubgroupAVCIntelInstBaseELN3spv2OpE5723ELb1ELj3ELb0ELj4294967295ELj4294967295ELj4294967295EE4initEv@Base 0
 (optional=templinst)_ZN5SPIRV17SPIRVInstTemplateINS_29SPIRVSubgroupAVCIntelInstBaseELN3spv2OpE5723ELb1ELj3ELb0ELj4294967295ELj4294967295ELj4294967295EED0Ev@Base 0
 (optional=templinst)_ZN5SPIRV17SPIRVInstTemplateINS_29SPIRVSubgroupAVCIntelInstBaseELN3spv2OpE5723ELb1ELj3ELb0ELj4294967295ELj4294967295ELj4294967295EED1Ev@Base 0
 (optional=templinst)_ZN5SPIRV17SPIRVInstTemplateINS_29SPIRVSubgroupAVCIntelInstBaseELN3spv2OpE5723ELb1ELj3ELb0ELj4294967295ELj4294967295ELj4294967295EED2Ev@Base 0
 (optional=templinst)_ZN5SPIRV17SPIRVInstTemplateINS_29SPIRVSubgroupAVCIntelInstBaseELN3spv2OpE5724ELb1ELj7ELb0ELj4294967295ELj4294967295ELj4294967295EE4initEv@Base 0
 (optional=templinst)_ZN5SPIRV17SPIRVInstTemplateINS_29SPIRVSubgroupAVCIntelInstBaseELN3spv2OpE5724ELb1ELj7ELb0ELj4294967295ELj4294967295ELj4294967295EED0Ev@Base 0
 (optional=templinst)_ZN5SPIRV17SPIRVInstTemplateINS_29SPIRVSubgroupAVCIntelInstBaseELN3spv2OpE5724ELb1ELj7ELb0ELj4294967295ELj4294967295ELj4294967295EED1Ev@Base 0
 (optional=templinst)_ZN5SPIRV17SPIRVInstTemplateINS_29SPIRVSubgroupAVCIntelInstBaseELN3spv2OpE5724ELb1ELj7ELb0ELj4294967295ELj4294967295ELj4294967295EED2Ev@Base 0
 (optional=templinst)_ZN5SPIRV17SPIRVInstTemplateINS_29SPIRVSubgroupAVCIntelInstBaseELN3spv2OpE5728ELb1ELj4ELb0ELj4294967295ELj4294967295ELj4294967295EE4initEv@Base 0
 (optional=templinst)_ZN5SPIRV17SPIRVInstTemplateINS_29SPIRVSubgroupAVCIntelInstBaseELN3spv2OpE5728ELb1ELj4ELb0ELj4294967295ELj4294967295ELj4294967295EED0Ev@Base 0
 (optional=templinst)_ZN5SPIRV17SPIRVInstTemplateINS_29SPIRVSubgroupAVCIntelInstBaseELN3spv2OpE5728ELb1ELj4ELb0ELj4294967295ELj4294967295ELj4294967295EED1Ev@Base 0
 (optional=templinst)_ZN5SPIRV17SPIRVInstTemplateINS_29SPIRVSubgroupAVCIntelInstBaseELN3spv2OpE5728ELb1ELj4ELb0ELj4294967295ELj4294967295ELj4294967295EED2Ev@Base 0
 (optional=templinst)_ZN5SPIRV17SPIRVInstTemplateINS_29SPIRVSubgroupAVCIntelInstBaseELN3spv2OpE5729ELb1ELj5ELb0ELj4294967295ELj4294967295ELj4294967295EE4initEv@Base 0
 (optional=templinst)_ZN5SPIRV17SPIRVInstTemplateINS_29SPIRVSubgroupAVCIntelInstBaseELN3spv2OpE5729ELb1ELj5ELb0ELj4294967295ELj4294967295ELj4294967295EED0Ev@Base 0
 (optional=templinst)_ZN5SPIRV17SPIRVInstTemplateINS_29SPIRVSubgroupAVCIntelInstBaseELN3spv2OpE5729ELb1ELj5ELb0ELj4294967295ELj4294967295ELj4294967295EED1Ev@Base 0
 (optional=templinst)_ZN5SPIRV17SPIRVInstTemplateINS_29SPIRVSubgroupAVCIntelInstBaseELN3spv2OpE5729ELb1ELj5ELb0ELj4294967295ELj4294967295ELj4294967295EED2Ev@Base 0
 (optional=templinst)_ZN5SPIRV17SPIRVInstTemplateINS_29SPIRVSubgroupAVCIntelInstBaseELN3spv2OpE5730ELb1ELj5ELb0ELj4294967295ELj4294967295ELj4294967295EE4initEv@Base 0
 (optional=templinst)_ZN5SPIRV17SPIRVInstTemplateINS_29SPIRVSubgroupAVCIntelInstBaseELN3spv2OpE5730ELb1ELj5ELb0ELj4294967295ELj4294967295ELj4294967295EED0Ev@Base 0
 (optional=templinst)_ZN5SPIRV17SPIRVInstTemplateINS_29SPIRVSubgroupAVCIntelInstBaseELN3spv2OpE5730ELb1ELj5ELb0ELj4294967295ELj4294967295ELj4294967295EED1Ev@Base 0
 (optional=templinst)_ZN5SPIRV17SPIRVInstTemplateINS_29SPIRVSubgroupAVCIntelInstBaseELN3spv2OpE5730ELb1ELj5ELb0ELj4294967295ELj4294967295ELj4294967295EED2Ev@Base 0
 (optional=templinst)_ZN5SPIRV17SPIRVInstTemplateINS_29SPIRVSubgroupAVCIntelInstBaseELN3spv2OpE5731ELb1ELj6ELb0ELj4294967295ELj4294967295ELj4294967295EE4initEv@Base 0
 (optional=templinst)_ZN5SPIRV17SPIRVInstTemplateINS_29SPIRVSubgroupAVCIntelInstBaseELN3spv2OpE5731ELb1ELj6ELb0ELj4294967295ELj4294967295ELj4294967295EED0Ev@Base 0
 (optional=templinst)_ZN5SPIRV17SPIRVInstTemplateINS_29SPIRVSubgroupAVCIntelInstBaseELN3spv2OpE5731ELb1ELj6ELb0ELj4294967295ELj4294967295ELj4294967295EED1Ev@Base 0
 (optional=templinst)_ZN5SPIRV17SPIRVInstTemplateINS_29SPIRVSubgroupAVCIntelInstBaseELN3spv2OpE5731ELb1ELj6ELb0ELj4294967295ELj4294967295ELj4294967295EED2Ev@Base 0
 (optional=templinst)_ZN5SPIRV17SPIRVInstTemplateINS_29SPIRVSubgroupAVCIntelInstBaseELN3spv2OpE5732ELb1ELj4ELb0ELj4294967295ELj4294967295ELj4294967295EE4initEv@Base 0
 (optional=templinst)_ZN5SPIRV17SPIRVInstTemplateINS_29SPIRVSubgroupAVCIntelInstBaseELN3spv2OpE5732ELb1ELj4ELb0ELj4294967295ELj4294967295ELj4294967295EED0Ev@Base 0
 (optional=templinst)_ZN5SPIRV17SPIRVInstTemplateINS_29SPIRVSubgroupAVCIntelInstBaseELN3spv2OpE5732ELb1ELj4ELb0ELj4294967295ELj4294967295ELj4294967295EED1Ev@Base 0
 (optional=templinst)_ZN5SPIRV17SPIRVInstTemplateINS_29SPIRVSubgroupAVCIntelInstBaseELN3spv2OpE5732ELb1ELj4ELb0ELj4294967295ELj4294967295ELj4294967295EED2Ev@Base 0
 (optional=templinst)_ZN5SPIRV17SPIRVInstTemplateINS_29SPIRVSubgroupAVCIntelInstBaseELN3spv2OpE5733ELb1ELj4ELb0ELj4294967295ELj4294967295ELj4294967295EE4initEv@Base 0
 (optional=templinst)_ZN5SPIRV17SPIRVInstTemplateINS_29SPIRVSubgroupAVCIntelInstBaseELN3spv2OpE5733ELb1ELj4ELb0ELj4294967295ELj4294967295ELj4294967295EED0Ev@Base 0
 (optional=templinst)_ZN5SPIRV17SPIRVInstTemplateINS_29SPIRVSubgroupAVCIntelInstBaseELN3spv2OpE5733ELb1ELj4ELb0ELj4294967295ELj4294967295ELj4294967295EED1Ev@Base 0
 (optional=templinst)_ZN5SPIRV17SPIRVInstTemplateINS_29SPIRVSubgroupAVCIntelInstBaseELN3spv2OpE5733ELb1ELj4ELb0ELj4294967295ELj4294967295ELj4294967295EED2Ev@Base 0
 (optional=templinst)_ZN5SPIRV17SPIRVInstTemplateINS_29SPIRVSubgroupAVCIntelInstBaseELN3spv2OpE5734ELb1ELj4ELb0ELj4294967295ELj4294967295ELj4294967295EE4initEv@Base 0
 (optional=templinst)_ZN5SPIRV17SPIRVInstTemplateINS_29SPIRVSubgroupAVCIntelInstBaseELN3spv2OpE5734ELb1ELj4ELb0ELj4294967295ELj4294967295ELj4294967295EED0Ev@Base 0
 (optional=templinst)_ZN5SPIRV17SPIRVInstTemplateINS_29SPIRVSubgroupAVCIntelInstBaseELN3spv2OpE5734ELb1ELj4ELb0ELj4294967295ELj4294967295ELj4294967295EED1Ev@Base 0
 (optional=templinst)_ZN5SPIRV17SPIRVInstTemplateINS_29SPIRVSubgroupAVCIntelInstBaseELN3spv2OpE5734ELb1ELj4ELb0ELj4294967295ELj4294967295ELj4294967295EED2Ev@Base 0
 (optional=templinst)_ZN5SPIRV17SPIRVInstTemplateINS_29SPIRVSubgroupAVCIntelInstBaseELN3spv2OpE5735ELb1ELj4ELb0ELj4294967295ELj4294967295ELj4294967295EE4initEv@Base 0
 (optional=templinst)_ZN5SPIRV17SPIRVInstTemplateINS_29SPIRVSubgroupAVCIntelInstBaseELN3spv2OpE5735ELb1ELj4ELb0ELj4294967295ELj4294967295ELj4294967295EED0Ev@Base 0
 (optional=templinst)_ZN5SPIRV17SPIRVInstTemplateINS_29SPIRVSubgroupAVCIntelInstBaseELN3spv2OpE5735ELb1ELj4ELb0ELj4294967295ELj4294967295ELj4294967295EED1Ev@Base 0
 (optional=templinst)_ZN5SPIRV17SPIRVInstTemplateINS_29SPIRVSubgroupAVCIntelInstBaseELN3spv2OpE5735ELb1ELj4ELb0ELj4294967295ELj4294967295ELj4294967295EED2Ev@Base 0
 (optional=templinst)_ZN5SPIRV17SPIRVInstTemplateINS_29SPIRVSubgroupAVCIntelInstBaseELN3spv2OpE5736ELb1ELj4ELb0ELj4294967295ELj4294967295ELj4294967295EE4initEv@Base 0
 (optional=templinst)_ZN5SPIRV17SPIRVInstTemplateINS_29SPIRVSubgroupAVCIntelInstBaseELN3spv2OpE5736ELb1ELj4ELb0ELj4294967295ELj4294967295ELj4294967295EED0Ev@Base 0
 (optional=templinst)_ZN5SPIRV17SPIRVInstTemplateINS_29SPIRVSubgroupAVCIntelInstBaseELN3spv2OpE5736ELb1ELj4ELb0ELj4294967295ELj4294967295ELj4294967295EED1Ev@Base 0
 (optional=templinst)_ZN5SPIRV17SPIRVInstTemplateINS_29SPIRVSubgroupAVCIntelInstBaseELN3spv2OpE5736ELb1ELj4ELb0ELj4294967295ELj4294967295ELj4294967295EED2Ev@Base 0
 (optional=templinst)_ZN5SPIRV17SPIRVInstTemplateINS_29SPIRVSubgroupAVCIntelInstBaseELN3spv2OpE5737ELb1ELj4ELb0ELj4294967295ELj4294967295ELj4294967295EE4initEv@Base 0
 (optional=templinst)_ZN5SPIRV17SPIRVInstTemplateINS_29SPIRVSubgroupAVCIntelInstBaseELN3spv2OpE5737ELb1ELj4ELb0ELj4294967295ELj4294967295ELj4294967295EED0Ev@Base 0
 (optional=templinst)_ZN5SPIRV17SPIRVInstTemplateINS_29SPIRVSubgroupAVCIntelInstBaseELN3spv2OpE5737ELb1ELj4ELb0ELj4294967295ELj4294967295ELj4294967295EED1Ev@Base 0
 (optional=templinst)_ZN5SPIRV17SPIRVInstTemplateINS_29SPIRVSubgroupAVCIntelInstBaseELN3spv2OpE5737ELb1ELj4ELb0ELj4294967295ELj4294967295ELj4294967295EED2Ev@Base 0
 (optional=templinst)_ZN5SPIRV17SPIRVInstTemplateINS_29SPIRVSubgroupAVCIntelInstBaseELN3spv2OpE5738ELb1ELj4ELb0ELj4294967295ELj4294967295ELj4294967295EE4initEv@Base 0
 (optional=templinst)_ZN5SPIRV17SPIRVInstTemplateINS_29SPIRVSubgroupAVCIntelInstBaseELN3spv2OpE5738ELb1ELj4ELb0ELj4294967295ELj4294967295ELj4294967295EED0Ev@Base 0
 (optional=templinst)_ZN5SPIRV17SPIRVInstTemplateINS_29SPIRVSubgroupAVCIntelInstBaseELN3spv2OpE5738ELb1ELj4ELb0ELj4294967295ELj4294967295ELj4294967295EED1Ev@Base 0
 (optional=templinst)_ZN5SPIRV17SPIRVInstTemplateINS_29SPIRVSubgroupAVCIntelInstBaseELN3spv2OpE5738ELb1ELj4ELb0ELj4294967295ELj4294967295ELj4294967295EED2Ev@Base 0
 (optional=templinst)_ZN5SPIRV17SPIRVInstTemplateINS_29SPIRVSubgroupAVCIntelInstBaseELN3spv2OpE5739ELb1ELj4ELb0ELj4294967295ELj4294967295ELj4294967295EE4initEv@Base 0
 (optional=templinst)_ZN5SPIRV17SPIRVInstTemplateINS_29SPIRVSubgroupAVCIntelInstBaseELN3spv2OpE5739ELb1ELj4ELb0ELj4294967295ELj4294967295ELj4294967295EED0Ev@Base 0
 (optional=templinst)_ZN5SPIRV17SPIRVInstTemplateINS_29SPIRVSubgroupAVCIntelInstBaseELN3spv2OpE5739ELb1ELj4ELb0ELj4294967295ELj4294967295ELj4294967295EED1Ev@Base 0
 (optional=templinst)_ZN5SPIRV17SPIRVInstTemplateINS_29SPIRVSubgroupAVCIntelInstBaseELN3spv2OpE5739ELb1ELj4ELb0ELj4294967295ELj4294967295ELj4294967295EED2Ev@Base 0
 (optional=templinst)_ZN5SPIRV17SPIRVInstTemplateINS_29SPIRVSubgroupAVCIntelInstBaseELN3spv2OpE5740ELb1ELj4ELb0ELj4294967295ELj4294967295ELj4294967295EE4initEv@Base 0
 (optional=templinst)_ZN5SPIRV17SPIRVInstTemplateINS_29SPIRVSubgroupAVCIntelInstBaseELN3spv2OpE5740ELb1ELj4ELb0ELj4294967295ELj4294967295ELj4294967295EED0Ev@Base 0
 (optional=templinst)_ZN5SPIRV17SPIRVInstTemplateINS_29SPIRVSubgroupAVCIntelInstBaseELN3spv2OpE5740ELb1ELj4ELb0ELj4294967295ELj4294967295ELj4294967295EED1Ev@Base 0
 (optional=templinst)_ZN5SPIRV17SPIRVInstTemplateINS_29SPIRVSubgroupAVCIntelInstBaseELN3spv2OpE5740ELb1ELj4ELb0ELj4294967295ELj4294967295ELj4294967295EED2Ev@Base 0
 (optional=templinst)_ZN5SPIRV17SPIRVInstTemplateINS_29SPIRVSubgroupAVCIntelInstBaseELN3spv2OpE5741ELb1ELj4ELb0ELj4294967295ELj4294967295ELj4294967295EE4initEv@Base 0
 (optional=templinst)_ZN5SPIRV17SPIRVInstTemplateINS_29SPIRVSubgroupAVCIntelInstBaseELN3spv2OpE5741ELb1ELj4ELb0ELj4294967295ELj4294967295ELj4294967295EED0Ev@Base 0
 (optional=templinst)_ZN5SPIRV17SPIRVInstTemplateINS_29SPIRVSubgroupAVCIntelInstBaseELN3spv2OpE5741ELb1ELj4ELb0ELj4294967295ELj4294967295ELj4294967295EED1Ev@Base 0
 (optional=templinst)_ZN5SPIRV17SPIRVInstTemplateINS_29SPIRVSubgroupAVCIntelInstBaseELN3spv2OpE5741ELb1ELj4ELb0ELj4294967295ELj4294967295ELj4294967295EED2Ev@Base 0
 (optional=templinst)_ZN5SPIRV17SPIRVInstTemplateINS_29SPIRVSubgroupAVCIntelInstBaseELN3spv2OpE5742ELb1ELj4ELb0ELj4294967295ELj4294967295ELj4294967295EE4initEv@Base 0
 (optional=templinst)_ZN5SPIRV17SPIRVInstTemplateINS_29SPIRVSubgroupAVCIntelInstBaseELN3spv2OpE5742ELb1ELj4ELb0ELj4294967295ELj4294967295ELj4294967295EED0Ev@Base 0
 (optional=templinst)_ZN5SPIRV17SPIRVInstTemplateINS_29SPIRVSubgroupAVCIntelInstBaseELN3spv2OpE5742ELb1ELj4ELb0ELj4294967295ELj4294967295ELj4294967295EED1Ev@Base 0
 (optional=templinst)_ZN5SPIRV17SPIRVInstTemplateINS_29SPIRVSubgroupAVCIntelInstBaseELN3spv2OpE5742ELb1ELj4ELb0ELj4294967295ELj4294967295ELj4294967295EED2Ev@Base 0
 (optional=templinst)_ZN5SPIRV17SPIRVInstTemplateINS_29SPIRVSubgroupAVCIntelInstBaseELN3spv2OpE5743ELb1ELj4ELb0ELj4294967295ELj4294967295ELj4294967295EE4initEv@Base 0
 (optional=templinst)_ZN5SPIRV17SPIRVInstTemplateINS_29SPIRVSubgroupAVCIntelInstBaseELN3spv2OpE5743ELb1ELj4ELb0ELj4294967295ELj4294967295ELj4294967295EED0Ev@Base 0
 (optional=templinst)_ZN5SPIRV17SPIRVInstTemplateINS_29SPIRVSubgroupAVCIntelInstBaseELN3spv2OpE5743ELb1ELj4ELb0ELj4294967295ELj4294967295ELj4294967295EED1Ev@Base 0
 (optional=templinst)_ZN5SPIRV17SPIRVInstTemplateINS_29SPIRVSubgroupAVCIntelInstBaseELN3spv2OpE5743ELb1ELj4ELb0ELj4294967295ELj4294967295ELj4294967295EED2Ev@Base 0
 (optional=templinst)_ZN5SPIRV17SPIRVInstTemplateINS_29SPIRVSubgroupAVCIntelInstBaseELN3spv2OpE5744ELb1ELj4ELb0ELj4294967295ELj4294967295ELj4294967295EE4initEv@Base 0
 (optional=templinst)_ZN5SPIRV17SPIRVInstTemplateINS_29SPIRVSubgroupAVCIntelInstBaseELN3spv2OpE5744ELb1ELj4ELb0ELj4294967295ELj4294967295ELj4294967295EED0Ev@Base 0
 (optional=templinst)_ZN5SPIRV17SPIRVInstTemplateINS_29SPIRVSubgroupAVCIntelInstBaseELN3spv2OpE5744ELb1ELj4ELb0ELj4294967295ELj4294967295ELj4294967295EED1Ev@Base 0
 (optional=templinst)_ZN5SPIRV17SPIRVInstTemplateINS_29SPIRVSubgroupAVCIntelInstBaseELN3spv2OpE5744ELb1ELj4ELb0ELj4294967295ELj4294967295ELj4294967295EED2Ev@Base 0
 (optional=templinst)_ZN5SPIRV17SPIRVInstTemplateINS_29SPIRVSubgroupAVCIntelInstBaseELN3spv2OpE5745ELb1ELj4ELb0ELj4294967295ELj4294967295ELj4294967295EE4initEv@Base 0
 (optional=templinst)_ZN5SPIRV17SPIRVInstTemplateINS_29SPIRVSubgroupAVCIntelInstBaseELN3spv2OpE5745ELb1ELj4ELb0ELj4294967295ELj4294967295ELj4294967295EED0Ev@Base 0
 (optional=templinst)_ZN5SPIRV17SPIRVInstTemplateINS_29SPIRVSubgroupAVCIntelInstBaseELN3spv2OpE5745ELb1ELj4ELb0ELj4294967295ELj4294967295ELj4294967295EED1Ev@Base 0
 (optional=templinst)_ZN5SPIRV17SPIRVInstTemplateINS_29SPIRVSubgroupAVCIntelInstBaseELN3spv2OpE5745ELb1ELj4ELb0ELj4294967295ELj4294967295ELj4294967295EED2Ev@Base 0
 (optional=templinst)_ZN5SPIRV17SPIRVInstTemplateINS_29SPIRVSubgroupAVCIntelInstBaseELN3spv2OpE5746ELb1ELj6ELb0ELj4294967295ELj4294967295ELj4294967295EE4initEv@Base 0
 (optional=templinst)_ZN5SPIRV17SPIRVInstTemplateINS_29SPIRVSubgroupAVCIntelInstBaseELN3spv2OpE5746ELb1ELj6ELb0ELj4294967295ELj4294967295ELj4294967295EED0Ev@Base 0
 (optional=templinst)_ZN5SPIRV17SPIRVInstTemplateINS_29SPIRVSubgroupAVCIntelInstBaseELN3spv2OpE5746ELb1ELj6ELb0ELj4294967295ELj4294967295ELj4294967295EED1Ev@Base 0
 (optional=templinst)_ZN5SPIRV17SPIRVInstTemplateINS_29SPIRVSubgroupAVCIntelInstBaseELN3spv2OpE5746ELb1ELj6ELb0ELj4294967295ELj4294967295ELj4294967295EED2Ev@Base 0
 (optional=templinst)_ZN5SPIRV17SPIRVInstTemplateINS_29SPIRVSubgroupAVCIntelInstBaseELN3spv2OpE5747ELb1ELj6ELb0ELj4294967295ELj4294967295ELj4294967295EE4initEv@Base 0
 (optional=templinst)_ZN5SPIRV17SPIRVInstTemplateINS_29SPIRVSubgroupAVCIntelInstBaseELN3spv2OpE5747ELb1ELj6ELb0ELj4294967295ELj4294967295ELj4294967295EED0Ev@Base 0
 (optional=templinst)_ZN5SPIRV17SPIRVInstTemplateINS_29SPIRVSubgroupAVCIntelInstBaseELN3spv2OpE5747ELb1ELj6ELb0ELj4294967295ELj4294967295ELj4294967295EED1Ev@Base 0
 (optional=templinst)_ZN5SPIRV17SPIRVInstTemplateINS_29SPIRVSubgroupAVCIntelInstBaseELN3spv2OpE5747ELb1ELj6ELb0ELj4294967295ELj4294967295ELj4294967295EED2Ev@Base 0
 (optional=templinst)_ZN5SPIRV17SPIRVInstTemplateINS_29SPIRVSubgroupAVCIntelInstBaseELN3spv2OpE5748ELb1ELj6ELb0ELj4294967295ELj4294967295ELj4294967295EE4initEv@Base 0
 (optional=templinst)_ZN5SPIRV17SPIRVInstTemplateINS_29SPIRVSubgroupAVCIntelInstBaseELN3spv2OpE5748ELb1ELj6ELb0ELj4294967295ELj4294967295ELj4294967295EED0Ev@Base 0
 (optional=templinst)_ZN5SPIRV17SPIRVInstTemplateINS_29SPIRVSubgroupAVCIntelInstBaseELN3spv2OpE5748ELb1ELj6ELb0ELj4294967295ELj4294967295ELj4294967295EED1Ev@Base 0
 (optional=templinst)_ZN5SPIRV17SPIRVInstTemplateINS_29SPIRVSubgroupAVCIntelInstBaseELN3spv2OpE5748ELb1ELj6ELb0ELj4294967295ELj4294967295ELj4294967295EED2Ev@Base 0
 (optional=templinst)_ZN5SPIRV17SPIRVInstTemplateINS_29SPIRVSubgroupAVCIntelInstBaseELN3spv2OpE5749ELb1ELj7ELb0ELj4294967295ELj4294967295ELj4294967295EE4initEv@Base 0
 (optional=templinst)_ZN5SPIRV17SPIRVInstTemplateINS_29SPIRVSubgroupAVCIntelInstBaseELN3spv2OpE5749ELb1ELj7ELb0ELj4294967295ELj4294967295ELj4294967295EED0Ev@Base 0
 (optional=templinst)_ZN5SPIRV17SPIRVInstTemplateINS_29SPIRVSubgroupAVCIntelInstBaseELN3spv2OpE5749ELb1ELj7ELb0ELj4294967295ELj4294967295ELj4294967295EED1Ev@Base 0
 (optional=templinst)_ZN5SPIRV17SPIRVInstTemplateINS_29SPIRVSubgroupAVCIntelInstBaseELN3spv2OpE5749ELb1ELj7ELb0ELj4294967295ELj4294967295ELj4294967295EED2Ev@Base 0
 (optional=templinst)_ZN5SPIRV17SPIRVInstTemplateINS_29SPIRVSubgroupAVCIntelInstBaseELN3spv2OpE5750ELb1ELj5ELb0ELj4294967295ELj4294967295ELj4294967295EE4initEv@Base 0
 (optional=templinst)_ZN5SPIRV17SPIRVInstTemplateINS_29SPIRVSubgroupAVCIntelInstBaseELN3spv2OpE5750ELb1ELj5ELb0ELj4294967295ELj4294967295ELj4294967295EED0Ev@Base 0
 (optional=templinst)_ZN5SPIRV17SPIRVInstTemplateINS_29SPIRVSubgroupAVCIntelInstBaseELN3spv2OpE5750ELb1ELj5ELb0ELj4294967295ELj4294967295ELj4294967295EED1Ev@Base 0
 (optional=templinst)_ZN5SPIRV17SPIRVInstTemplateINS_29SPIRVSubgroupAVCIntelInstBaseELN3spv2OpE5750ELb1ELj5ELb0ELj4294967295ELj4294967295ELj4294967295EED2Ev@Base 0
 (optional=templinst)_ZN5SPIRV17SPIRVInstTemplateINS_29SPIRVSubgroupAVCIntelInstBaseELN3spv2OpE5751ELb1ELj7ELb0ELj4294967295ELj4294967295ELj4294967295EE4initEv@Base 0
 (optional=templinst)_ZN5SPIRV17SPIRVInstTemplateINS_29SPIRVSubgroupAVCIntelInstBaseELN3spv2OpE5751ELb1ELj7ELb0ELj4294967295ELj4294967295ELj4294967295EED0Ev@Base 0
 (optional=templinst)_ZN5SPIRV17SPIRVInstTemplateINS_29SPIRVSubgroupAVCIntelInstBaseELN3spv2OpE5751ELb1ELj7ELb0ELj4294967295ELj4294967295ELj4294967295EED1Ev@Base 0
 (optional=templinst)_ZN5SPIRV17SPIRVInstTemplateINS_29SPIRVSubgroupAVCIntelInstBaseELN3spv2OpE5751ELb1ELj7ELb0ELj4294967295ELj4294967295ELj4294967295EED2Ev@Base 0
 (optional=templinst)_ZN5SPIRV17SPIRVInstTemplateINS_29SPIRVSubgroupAVCIntelInstBaseELN3spv2OpE5752ELb1ELj4ELb0ELj4294967295ELj4294967295ELj4294967295EE4initEv@Base 0
 (optional=templinst)_ZN5SPIRV17SPIRVInstTemplateINS_29SPIRVSubgroupAVCIntelInstBaseELN3spv2OpE5752ELb1ELj4ELb0ELj4294967295ELj4294967295ELj4294967295EED0Ev@Base 0
 (optional=templinst)_ZN5SPIRV17SPIRVInstTemplateINS_29SPIRVSubgroupAVCIntelInstBaseELN3spv2OpE5752ELb1ELj4ELb0ELj4294967295ELj4294967295ELj4294967295EED1Ev@Base 0
 (optional=templinst)_ZN5SPIRV17SPIRVInstTemplateINS_29SPIRVSubgroupAVCIntelInstBaseELN3spv2OpE5752ELb1ELj4ELb0ELj4294967295ELj4294967295ELj4294967295EED2Ev@Base 0
 (optional=templinst)_ZN5SPIRV17SPIRVInstTemplateINS_29SPIRVSubgroupAVCIntelInstBaseELN3spv2OpE5753ELb1ELj5ELb0ELj4294967295ELj4294967295ELj4294967295EE4initEv@Base 0
 (optional=templinst)_ZN5SPIRV17SPIRVInstTemplateINS_29SPIRVSubgroupAVCIntelInstBaseELN3spv2OpE5753ELb1ELj5ELb0ELj4294967295ELj4294967295ELj4294967295EED0Ev@Base 0
 (optional=templinst)_ZN5SPIRV17SPIRVInstTemplateINS_29SPIRVSubgroupAVCIntelInstBaseELN3spv2OpE5753ELb1ELj5ELb0ELj4294967295ELj4294967295ELj4294967295EED1Ev@Base 0
 (optional=templinst)_ZN5SPIRV17SPIRVInstTemplateINS_29SPIRVSubgroupAVCIntelInstBaseELN3spv2OpE5753ELb1ELj5ELb0ELj4294967295ELj4294967295ELj4294967295EED2Ev@Base 0
 (optional=templinst)_ZN5SPIRV17SPIRVInstTemplateINS_29SPIRVSubgroupAVCIntelInstBaseELN3spv2OpE5754ELb1ELj4ELb0ELj4294967295ELj4294967295ELj4294967295EE4initEv@Base 0
 (optional=templinst)_ZN5SPIRV17SPIRVInstTemplateINS_29SPIRVSubgroupAVCIntelInstBaseELN3spv2OpE5754ELb1ELj4ELb0ELj4294967295ELj4294967295ELj4294967295EED0Ev@Base 0
 (optional=templinst)_ZN5SPIRV17SPIRVInstTemplateINS_29SPIRVSubgroupAVCIntelInstBaseELN3spv2OpE5754ELb1ELj4ELb0ELj4294967295ELj4294967295ELj4294967295EED1Ev@Base 0
 (optional=templinst)_ZN5SPIRV17SPIRVInstTemplateINS_29SPIRVSubgroupAVCIntelInstBaseELN3spv2OpE5754ELb1ELj4ELb0ELj4294967295ELj4294967295ELj4294967295EED2Ev@Base 0
 (optional=templinst)_ZN5SPIRV17SPIRVInstTemplateINS_29SPIRVSubgroupAVCIntelInstBaseELN3spv2OpE5755ELb1ELj5ELb0ELj4294967295ELj4294967295ELj4294967295EE4initEv@Base 0
 (optional=templinst)_ZN5SPIRV17SPIRVInstTemplateINS_29SPIRVSubgroupAVCIntelInstBaseELN3spv2OpE5755ELb1ELj5ELb0ELj4294967295ELj4294967295ELj4294967295EED0Ev@Base 0
 (optional=templinst)_ZN5SPIRV17SPIRVInstTemplateINS_29SPIRVSubgroupAVCIntelInstBaseELN3spv2OpE5755ELb1ELj5ELb0ELj4294967295ELj4294967295ELj4294967295EED1Ev@Base 0
 (optional=templinst)_ZN5SPIRV17SPIRVInstTemplateINS_29SPIRVSubgroupAVCIntelInstBaseELN3spv2OpE5755ELb1ELj5ELb0ELj4294967295ELj4294967295ELj4294967295EED2Ev@Base 0
 (optional=templinst)_ZN5SPIRV17SPIRVInstTemplateINS_29SPIRVSubgroupAVCIntelInstBaseELN3spv2OpE5756ELb1ELj5ELb0ELj4294967295ELj4294967295ELj4294967295EE4initEv@Base 0
 (optional=templinst)_ZN5SPIRV17SPIRVInstTemplateINS_29SPIRVSubgroupAVCIntelInstBaseELN3spv2OpE5756ELb1ELj5ELb0ELj4294967295ELj4294967295ELj4294967295EED0Ev@Base 0
 (optional=templinst)_ZN5SPIRV17SPIRVInstTemplateINS_29SPIRVSubgroupAVCIntelInstBaseELN3spv2OpE5756ELb1ELj5ELb0ELj4294967295ELj4294967295ELj4294967295EED1Ev@Base 0
 (optional=templinst)_ZN5SPIRV17SPIRVInstTemplateINS_29SPIRVSubgroupAVCIntelInstBaseELN3spv2OpE5756ELb1ELj5ELb0ELj4294967295ELj4294967295ELj4294967295EED2Ev@Base 0
 (optional=templinst)_ZN5SPIRV17SPIRVInstTemplateINS_29SPIRVSubgroupAVCIntelInstBaseELN3spv2OpE5757ELb1ELj6ELb0ELj4294967295ELj4294967295ELj4294967295EE4initEv@Base 0
 (optional=templinst)_ZN5SPIRV17SPIRVInstTemplateINS_29SPIRVSubgroupAVCIntelInstBaseELN3spv2OpE5757ELb1ELj6ELb0ELj4294967295ELj4294967295ELj4294967295EED0Ev@Base 0
 (optional=templinst)_ZN5SPIRV17SPIRVInstTemplateINS_29SPIRVSubgroupAVCIntelInstBaseELN3spv2OpE5757ELb1ELj6ELb0ELj4294967295ELj4294967295ELj4294967295EED1Ev@Base 0
 (optional=templinst)_ZN5SPIRV17SPIRVInstTemplateINS_29SPIRVSubgroupAVCIntelInstBaseELN3spv2OpE5757ELb1ELj6ELb0ELj4294967295ELj4294967295ELj4294967295EED2Ev@Base 0
 (optional=templinst)_ZN5SPIRV17SPIRVInstTemplateINS_29SPIRVSubgroupAVCIntelInstBaseELN3spv2OpE5758ELb1ELj7ELb0ELj4294967295ELj4294967295ELj4294967295EE4initEv@Base 0
 (optional=templinst)_ZN5SPIRV17SPIRVInstTemplateINS_29SPIRVSubgroupAVCIntelInstBaseELN3spv2OpE5758ELb1ELj7ELb0ELj4294967295ELj4294967295ELj4294967295EED0Ev@Base 0
 (optional=templinst)_ZN5SPIRV17SPIRVInstTemplateINS_29SPIRVSubgroupAVCIntelInstBaseELN3spv2OpE5758ELb1ELj7ELb0ELj4294967295ELj4294967295ELj4294967295EED1Ev@Base 0
 (optional=templinst)_ZN5SPIRV17SPIRVInstTemplateINS_29SPIRVSubgroupAVCIntelInstBaseELN3spv2OpE5758ELb1ELj7ELb0ELj4294967295ELj4294967295ELj4294967295EED2Ev@Base 0
 (optional=templinst)_ZN5SPIRV17SPIRVInstTemplateINS_29SPIRVSubgroupAVCIntelInstBaseELN3spv2OpE5759ELb1ELj7ELb0ELj4294967295ELj4294967295ELj4294967295EE4initEv@Base 0
 (optional=templinst)_ZN5SPIRV17SPIRVInstTemplateINS_29SPIRVSubgroupAVCIntelInstBaseELN3spv2OpE5759ELb1ELj7ELb0ELj4294967295ELj4294967295ELj4294967295EED0Ev@Base 0
 (optional=templinst)_ZN5SPIRV17SPIRVInstTemplateINS_29SPIRVSubgroupAVCIntelInstBaseELN3spv2OpE5759ELb1ELj7ELb0ELj4294967295ELj4294967295ELj4294967295EED1Ev@Base 0
 (optional=templinst)_ZN5SPIRV17SPIRVInstTemplateINS_29SPIRVSubgroupAVCIntelInstBaseELN3spv2OpE5759ELb1ELj7ELb0ELj4294967295ELj4294967295ELj4294967295EED2Ev@Base 0
 (optional=templinst)_ZN5SPIRV17SPIRVInstTemplateINS_29SPIRVSubgroupAVCIntelInstBaseELN3spv2OpE5760ELb1ELj8ELb0ELj4294967295ELj4294967295ELj4294967295EE4initEv@Base 0
 (optional=templinst)_ZN5SPIRV17SPIRVInstTemplateINS_29SPIRVSubgroupAVCIntelInstBaseELN3spv2OpE5760ELb1ELj8ELb0ELj4294967295ELj4294967295ELj4294967295EED0Ev@Base 0
 (optional=templinst)_ZN5SPIRV17SPIRVInstTemplateINS_29SPIRVSubgroupAVCIntelInstBaseELN3spv2OpE5760ELb1ELj8ELb0ELj4294967295ELj4294967295ELj4294967295EED1Ev@Base 0
 (optional=templinst)_ZN5SPIRV17SPIRVInstTemplateINS_29SPIRVSubgroupAVCIntelInstBaseELN3spv2OpE5760ELb1ELj8ELb0ELj4294967295ELj4294967295ELj4294967295EED2Ev@Base 0
 (optional=templinst)_ZN5SPIRV17SPIRVInstTemplateINS_29SPIRVSubgroupAVCIntelInstBaseELN3spv2OpE5761ELb1ELj6ELb0ELj4294967295ELj4294967295ELj4294967295EE4initEv@Base 0
 (optional=templinst)_ZN5SPIRV17SPIRVInstTemplateINS_29SPIRVSubgroupAVCIntelInstBaseELN3spv2OpE5761ELb1ELj6ELb0ELj4294967295ELj4294967295ELj4294967295EED0Ev@Base 0
 (optional=templinst)_ZN5SPIRV17SPIRVInstTemplateINS_29SPIRVSubgroupAVCIntelInstBaseELN3spv2OpE5761ELb1ELj6ELb0ELj4294967295ELj4294967295ELj4294967295EED1Ev@Base 0
 (optional=templinst)_ZN5SPIRV17SPIRVInstTemplateINS_29SPIRVSubgroupAVCIntelInstBaseELN3spv2OpE5761ELb1ELj6ELb0ELj4294967295ELj4294967295ELj4294967295EED2Ev@Base 0
 (optional=templinst)_ZN5SPIRV17SPIRVInstTemplateINS_29SPIRVSubgroupAVCIntelInstBaseELN3spv2OpE5762ELb1ELj7ELb0ELj4294967295ELj4294967295ELj4294967295EE4initEv@Base 0
 (optional=templinst)_ZN5SPIRV17SPIRVInstTemplateINS_29SPIRVSubgroupAVCIntelInstBaseELN3spv2OpE5762ELb1ELj7ELb0ELj4294967295ELj4294967295ELj4294967295EED0Ev@Base 0
 (optional=templinst)_ZN5SPIRV17SPIRVInstTemplateINS_29SPIRVSubgroupAVCIntelInstBaseELN3spv2OpE5762ELb1ELj7ELb0ELj4294967295ELj4294967295ELj4294967295EED1Ev@Base 0
 (optional=templinst)_ZN5SPIRV17SPIRVInstTemplateINS_29SPIRVSubgroupAVCIntelInstBaseELN3spv2OpE5762ELb1ELj7ELb0ELj4294967295ELj4294967295ELj4294967295EED2Ev@Base 0
 (optional=templinst)_ZN5SPIRV17SPIRVInstTemplateINS_29SPIRVSubgroupAVCIntelInstBaseELN3spv2OpE5763ELb1ELj7ELb0ELj4294967295ELj4294967295ELj4294967295EE4initEv@Base 0
 (optional=templinst)_ZN5SPIRV17SPIRVInstTemplateINS_29SPIRVSubgroupAVCIntelInstBaseELN3spv2OpE5763ELb1ELj7ELb0ELj4294967295ELj4294967295ELj4294967295EED0Ev@Base 0
 (optional=templinst)_ZN5SPIRV17SPIRVInstTemplateINS_29SPIRVSubgroupAVCIntelInstBaseELN3spv2OpE5763ELb1ELj7ELb0ELj4294967295ELj4294967295ELj4294967295EED1Ev@Base 0
 (optional=templinst)_ZN5SPIRV17SPIRVInstTemplateINS_29SPIRVSubgroupAVCIntelInstBaseELN3spv2OpE5763ELb1ELj7ELb0ELj4294967295ELj4294967295ELj4294967295EED2Ev@Base 0
 (optional=templinst)_ZN5SPIRV17SPIRVInstTemplateINS_29SPIRVSubgroupAVCIntelInstBaseELN3spv2OpE5764ELb1ELj8ELb0ELj4294967295ELj4294967295ELj4294967295EE4initEv@Base 0
 (optional=templinst)_ZN5SPIRV17SPIRVInstTemplateINS_29SPIRVSubgroupAVCIntelInstBaseELN3spv2OpE5764ELb1ELj8ELb0ELj4294967295ELj4294967295ELj4294967295EED0Ev@Base 0
 (optional=templinst)_ZN5SPIRV17SPIRVInstTemplateINS_29SPIRVSubgroupAVCIntelInstBaseELN3spv2OpE5764ELb1ELj8ELb0ELj4294967295ELj4294967295ELj4294967295EED1Ev@Base 0
 (optional=templinst)_ZN5SPIRV17SPIRVInstTemplateINS_29SPIRVSubgroupAVCIntelInstBaseELN3spv2OpE5764ELb1ELj8ELb0ELj4294967295ELj4294967295ELj4294967295EED2Ev@Base 0
 (optional=templinst)_ZN5SPIRV17SPIRVInstTemplateINS_29SPIRVSubgroupAVCIntelInstBaseELN3spv2OpE5765ELb1ELj4ELb0ELj4294967295ELj4294967295ELj4294967295EE4initEv@Base 0
 (optional=templinst)_ZN5SPIRV17SPIRVInstTemplateINS_29SPIRVSubgroupAVCIntelInstBaseELN3spv2OpE5765ELb1ELj4ELb0ELj4294967295ELj4294967295ELj4294967295EED0Ev@Base 0
 (optional=templinst)_ZN5SPIRV17SPIRVInstTemplateINS_29SPIRVSubgroupAVCIntelInstBaseELN3spv2OpE5765ELb1ELj4ELb0ELj4294967295ELj4294967295ELj4294967295EED1Ev@Base 0
 (optional=templinst)_ZN5SPIRV17SPIRVInstTemplateINS_29SPIRVSubgroupAVCIntelInstBaseELN3spv2OpE5765ELb1ELj4ELb0ELj4294967295ELj4294967295ELj4294967295EED2Ev@Base 0
 (optional=templinst)_ZN5SPIRV17SPIRVInstTemplateINS_29SPIRVSubgroupAVCIntelInstBaseELN3spv2OpE5766ELb1ELj4ELb0ELj4294967295ELj4294967295ELj4294967295EE4initEv@Base 0
 (optional=templinst)_ZN5SPIRV17SPIRVInstTemplateINS_29SPIRVSubgroupAVCIntelInstBaseELN3spv2OpE5766ELb1ELj4ELb0ELj4294967295ELj4294967295ELj4294967295EED0Ev@Base 0
 (optional=templinst)_ZN5SPIRV17SPIRVInstTemplateINS_29SPIRVSubgroupAVCIntelInstBaseELN3spv2OpE5766ELb1ELj4ELb0ELj4294967295ELj4294967295ELj4294967295EED1Ev@Base 0
 (optional=templinst)_ZN5SPIRV17SPIRVInstTemplateINS_29SPIRVSubgroupAVCIntelInstBaseELN3spv2OpE5766ELb1ELj4ELb0ELj4294967295ELj4294967295ELj4294967295EED2Ev@Base 0
 (optional=templinst)_ZN5SPIRV17SPIRVInstTemplateINS_29SPIRVSubgroupAVCIntelInstBaseELN3spv2OpE5767ELb1ELj4ELb0ELj4294967295ELj4294967295ELj4294967295EE4initEv@Base 0
 (optional=templinst)_ZN5SPIRV17SPIRVInstTemplateINS_29SPIRVSubgroupAVCIntelInstBaseELN3spv2OpE5767ELb1ELj4ELb0ELj4294967295ELj4294967295ELj4294967295EED0Ev@Base 0
 (optional=templinst)_ZN5SPIRV17SPIRVInstTemplateINS_29SPIRVSubgroupAVCIntelInstBaseELN3spv2OpE5767ELb1ELj4ELb0ELj4294967295ELj4294967295ELj4294967295EED1Ev@Base 0
 (optional=templinst)_ZN5SPIRV17SPIRVInstTemplateINS_29SPIRVSubgroupAVCIntelInstBaseELN3spv2OpE5767ELb1ELj4ELb0ELj4294967295ELj4294967295ELj4294967295EED2Ev@Base 0
 (optional=templinst)_ZN5SPIRV17SPIRVInstTemplateINS_29SPIRVSubgroupAVCIntelInstBaseELN3spv2OpE5768ELb1ELj4ELb0ELj4294967295ELj4294967295ELj4294967295EE4initEv@Base 0
 (optional=templinst)_ZN5SPIRV17SPIRVInstTemplateINS_29SPIRVSubgroupAVCIntelInstBaseELN3spv2OpE5768ELb1ELj4ELb0ELj4294967295ELj4294967295ELj4294967295EED0Ev@Base 0
 (optional=templinst)_ZN5SPIRV17SPIRVInstTemplateINS_29SPIRVSubgroupAVCIntelInstBaseELN3spv2OpE5768ELb1ELj4ELb0ELj4294967295ELj4294967295ELj4294967295EED1Ev@Base 0
 (optional=templinst)_ZN5SPIRV17SPIRVInstTemplateINS_29SPIRVSubgroupAVCIntelInstBaseELN3spv2OpE5768ELb1ELj4ELb0ELj4294967295ELj4294967295ELj4294967295EED2Ev@Base 0
 (optional=templinst)_ZN5SPIRV17SPIRVInstTemplateINS_29SPIRVSubgroupAVCIntelInstBaseELN3spv2OpE5769ELb1ELj4ELb0ELj4294967295ELj4294967295ELj4294967295EE4initEv@Base 0
 (optional=templinst)_ZN5SPIRV17SPIRVInstTemplateINS_29SPIRVSubgroupAVCIntelInstBaseELN3spv2OpE5769ELb1ELj4ELb0ELj4294967295ELj4294967295ELj4294967295EED0Ev@Base 0
 (optional=templinst)_ZN5SPIRV17SPIRVInstTemplateINS_29SPIRVSubgroupAVCIntelInstBaseELN3spv2OpE5769ELb1ELj4ELb0ELj4294967295ELj4294967295ELj4294967295EED1Ev@Base 0
 (optional=templinst)_ZN5SPIRV17SPIRVInstTemplateINS_29SPIRVSubgroupAVCIntelInstBaseELN3spv2OpE5769ELb1ELj4ELb0ELj4294967295ELj4294967295ELj4294967295EED2Ev@Base 0
 (optional=templinst)_ZN5SPIRV17SPIRVInstTemplateINS_29SPIRVSubgroupAVCIntelInstBaseELN3spv2OpE5770ELb1ELj5ELb0ELj4294967295ELj4294967295ELj4294967295EE4initEv@Base 0
 (optional=templinst)_ZN5SPIRV17SPIRVInstTemplateINS_29SPIRVSubgroupAVCIntelInstBaseELN3spv2OpE5770ELb1ELj5ELb0ELj4294967295ELj4294967295ELj4294967295EED0Ev@Base 0
 (optional=templinst)_ZN5SPIRV17SPIRVInstTemplateINS_29SPIRVSubgroupAVCIntelInstBaseELN3spv2OpE5770ELb1ELj5ELb0ELj4294967295ELj4294967295ELj4294967295EED1Ev@Base 0
 (optional=templinst)_ZN5SPIRV17SPIRVInstTemplateINS_29SPIRVSubgroupAVCIntelInstBaseELN3spv2OpE5770ELb1ELj5ELb0ELj4294967295ELj4294967295ELj4294967295EED2Ev@Base 0
 (optional=templinst)_ZN5SPIRV17SPIRVInstTemplateINS_29SPIRVSubgroupAVCIntelInstBaseELN3spv2OpE5771ELb1ELj5ELb0ELj4294967295ELj4294967295ELj4294967295EE4initEv@Base 0
 (optional=templinst)_ZN5SPIRV17SPIRVInstTemplateINS_29SPIRVSubgroupAVCIntelInstBaseELN3spv2OpE5771ELb1ELj5ELb0ELj4294967295ELj4294967295ELj4294967295EED0Ev@Base 0
 (optional=templinst)_ZN5SPIRV17SPIRVInstTemplateINS_29SPIRVSubgroupAVCIntelInstBaseELN3spv2OpE5771ELb1ELj5ELb0ELj4294967295ELj4294967295ELj4294967295EED1Ev@Base 0
 (optional=templinst)_ZN5SPIRV17SPIRVInstTemplateINS_29SPIRVSubgroupAVCIntelInstBaseELN3spv2OpE5771ELb1ELj5ELb0ELj4294967295ELj4294967295ELj4294967295EED2Ev@Base 0
 (optional=templinst)_ZN5SPIRV17SPIRVInstTemplateINS_29SPIRVSubgroupAVCIntelInstBaseELN3spv2OpE5772ELb1ELj5ELb0ELj4294967295ELj4294967295ELj4294967295EE4initEv@Base 0
 (optional=templinst)_ZN5SPIRV17SPIRVInstTemplateINS_29SPIRVSubgroupAVCIntelInstBaseELN3spv2OpE5772ELb1ELj5ELb0ELj4294967295ELj4294967295ELj4294967295EED0Ev@Base 0
 (optional=templinst)_ZN5SPIRV17SPIRVInstTemplateINS_29SPIRVSubgroupAVCIntelInstBaseELN3spv2OpE5772ELb1ELj5ELb0ELj4294967295ELj4294967295ELj4294967295EED1Ev@Base 0
 (optional=templinst)_ZN5SPIRV17SPIRVInstTemplateINS_29SPIRVSubgroupAVCIntelInstBaseELN3spv2OpE5772ELb1ELj5ELb0ELj4294967295ELj4294967295ELj4294967295EED2Ev@Base 0
 (optional=templinst)_ZN5SPIRV17SPIRVInstTemplateINS_29SPIRVSubgroupAVCIntelInstBaseELN3spv2OpE5773ELb1ELj6ELb0ELj4294967295ELj4294967295ELj4294967295EE4initEv@Base 0
 (optional=templinst)_ZN5SPIRV17SPIRVInstTemplateINS_29SPIRVSubgroupAVCIntelInstBaseELN3spv2OpE5773ELb1ELj6ELb0ELj4294967295ELj4294967295ELj4294967295EED0Ev@Base 0
 (optional=templinst)_ZN5SPIRV17SPIRVInstTemplateINS_29SPIRVSubgroupAVCIntelInstBaseELN3spv2OpE5773ELb1ELj6ELb0ELj4294967295ELj4294967295ELj4294967295EED1Ev@Base 0
 (optional=templinst)_ZN5SPIRV17SPIRVInstTemplateINS_29SPIRVSubgroupAVCIntelInstBaseELN3spv2OpE5773ELb1ELj6ELb0ELj4294967295ELj4294967295ELj4294967295EED2Ev@Base 0
 (optional=templinst)_ZN5SPIRV17SPIRVInstTemplateINS_29SPIRVSubgroupAVCIntelInstBaseELN3spv2OpE5774ELb1ELj6ELb0ELj4294967295ELj4294967295ELj4294967295EE4initEv@Base 0
 (optional=templinst)_ZN5SPIRV17SPIRVInstTemplateINS_29SPIRVSubgroupAVCIntelInstBaseELN3spv2OpE5774ELb1ELj6ELb0ELj4294967295ELj4294967295ELj4294967295EED0Ev@Base 0
 (optional=templinst)_ZN5SPIRV17SPIRVInstTemplateINS_29SPIRVSubgroupAVCIntelInstBaseELN3spv2OpE5774ELb1ELj6ELb0ELj4294967295ELj4294967295ELj4294967295EED1Ev@Base 0
 (optional=templinst)_ZN5SPIRV17SPIRVInstTemplateINS_29SPIRVSubgroupAVCIntelInstBaseELN3spv2OpE5774ELb1ELj6ELb0ELj4294967295ELj4294967295ELj4294967295EED2Ev@Base 0
 (optional=templinst)_ZN5SPIRV17SPIRVInstTemplateINS_29SPIRVSubgroupAVCIntelInstBaseELN3spv2OpE5775ELb1ELj6ELb0ELj4294967295ELj4294967295ELj4294967295EE4initEv@Base 0
 (optional=templinst)_ZN5SPIRV17SPIRVInstTemplateINS_29SPIRVSubgroupAVCIntelInstBaseELN3spv2OpE5775ELb1ELj6ELb0ELj4294967295ELj4294967295ELj4294967295EED0Ev@Base 0
 (optional=templinst)_ZN5SPIRV17SPIRVInstTemplateINS_29SPIRVSubgroupAVCIntelInstBaseELN3spv2OpE5775ELb1ELj6ELb0ELj4294967295ELj4294967295ELj4294967295EED1Ev@Base 0
 (optional=templinst)_ZN5SPIRV17SPIRVInstTemplateINS_29SPIRVSubgroupAVCIntelInstBaseELN3spv2OpE5775ELb1ELj6ELb0ELj4294967295ELj4294967295ELj4294967295EED2Ev@Base 0
 (optional=templinst)_ZN5SPIRV17SPIRVInstTemplateINS_29SPIRVSubgroupAVCIntelInstBaseELN3spv2OpE5776ELb1ELj5ELb0ELj4294967295ELj4294967295ELj4294967295EE4initEv@Base 0
 (optional=templinst)_ZN5SPIRV17SPIRVInstTemplateINS_29SPIRVSubgroupAVCIntelInstBaseELN3spv2OpE5776ELb1ELj5ELb0ELj4294967295ELj4294967295ELj4294967295EED0Ev@Base 0
 (optional=templinst)_ZN5SPIRV17SPIRVInstTemplateINS_29SPIRVSubgroupAVCIntelInstBaseELN3spv2OpE5776ELb1ELj5ELb0ELj4294967295ELj4294967295ELj4294967295EED1Ev@Base 0
 (optional=templinst)_ZN5SPIRV17SPIRVInstTemplateINS_29SPIRVSubgroupAVCIntelInstBaseELN3spv2OpE5776ELb1ELj5ELb0ELj4294967295ELj4294967295ELj4294967295EED2Ev@Base 0
 (optional=templinst)_ZN5SPIRV17SPIRVInstTemplateINS_29SPIRVSubgroupAVCIntelInstBaseELN3spv2OpE5777ELb1ELj4ELb0ELj4294967295ELj4294967295ELj4294967295EE4initEv@Base 0
 (optional=templinst)_ZN5SPIRV17SPIRVInstTemplateINS_29SPIRVSubgroupAVCIntelInstBaseELN3spv2OpE5777ELb1ELj4ELb0ELj4294967295ELj4294967295ELj4294967295EED0Ev@Base 0
 (optional=templinst)_ZN5SPIRV17SPIRVInstTemplateINS_29SPIRVSubgroupAVCIntelInstBaseELN3spv2OpE5777ELb1ELj4ELb0ELj4294967295ELj4294967295ELj4294967295EED1Ev@Base 0
 (optional=templinst)_ZN5SPIRV17SPIRVInstTemplateINS_29SPIRVSubgroupAVCIntelInstBaseELN3spv2OpE5777ELb1ELj4ELb0ELj4294967295ELj4294967295ELj4294967295EED2Ev@Base 0
 (optional=templinst)_ZN5SPIRV17SPIRVInstTemplateINS_29SPIRVSubgroupAVCIntelInstBaseELN3spv2OpE5778ELb1ELj4ELb0ELj4294967295ELj4294967295ELj4294967295EE4initEv@Base 0
 (optional=templinst)_ZN5SPIRV17SPIRVInstTemplateINS_29SPIRVSubgroupAVCIntelInstBaseELN3spv2OpE5778ELb1ELj4ELb0ELj4294967295ELj4294967295ELj4294967295EED0Ev@Base 0
 (optional=templinst)_ZN5SPIRV17SPIRVInstTemplateINS_29SPIRVSubgroupAVCIntelInstBaseELN3spv2OpE5778ELb1ELj4ELb0ELj4294967295ELj4294967295ELj4294967295EED1Ev@Base 0
 (optional=templinst)_ZN5SPIRV17SPIRVInstTemplateINS_29SPIRVSubgroupAVCIntelInstBaseELN3spv2OpE5778ELb1ELj4ELb0ELj4294967295ELj4294967295ELj4294967295EED2Ev@Base 0
 (optional=templinst)_ZN5SPIRV17SPIRVInstTemplateINS_29SPIRVSubgroupAVCIntelInstBaseELN3spv2OpE5779ELb1ELj4ELb0ELj4294967295ELj4294967295ELj4294967295EE4initEv@Base 0
 (optional=templinst)_ZN5SPIRV17SPIRVInstTemplateINS_29SPIRVSubgroupAVCIntelInstBaseELN3spv2OpE5779ELb1ELj4ELb0ELj4294967295ELj4294967295ELj4294967295EED0Ev@Base 0
 (optional=templinst)_ZN5SPIRV17SPIRVInstTemplateINS_29SPIRVSubgroupAVCIntelInstBaseELN3spv2OpE5779ELb1ELj4ELb0ELj4294967295ELj4294967295ELj4294967295EED1Ev@Base 0
 (optional=templinst)_ZN5SPIRV17SPIRVInstTemplateINS_29SPIRVSubgroupAVCIntelInstBaseELN3spv2OpE5779ELb1ELj4ELb0ELj4294967295ELj4294967295ELj4294967295EED2Ev@Base 0
 (optional=templinst)_ZN5SPIRV17SPIRVInstTemplateINS_29SPIRVSubgroupAVCIntelInstBaseELN3spv2OpE5780ELb1ELj4ELb0ELj4294967295ELj4294967295ELj4294967295EE4initEv@Base 0
 (optional=templinst)_ZN5SPIRV17SPIRVInstTemplateINS_29SPIRVSubgroupAVCIntelInstBaseELN3spv2OpE5780ELb1ELj4ELb0ELj4294967295ELj4294967295ELj4294967295EED0Ev@Base 0
 (optional=templinst)_ZN5SPIRV17SPIRVInstTemplateINS_29SPIRVSubgroupAVCIntelInstBaseELN3spv2OpE5780ELb1ELj4ELb0ELj4294967295ELj4294967295ELj4294967295EED1Ev@Base 0
 (optional=templinst)_ZN5SPIRV17SPIRVInstTemplateINS_29SPIRVSubgroupAVCIntelInstBaseELN3spv2OpE5780ELb1ELj4ELb0ELj4294967295ELj4294967295ELj4294967295EED2Ev@Base 0
 (optional=templinst)_ZN5SPIRV17SPIRVInstTemplateINS_29SPIRVSubgroupAVCIntelInstBaseELN3spv2OpE5781ELb1ELj10ELb0ELj4294967295ELj4294967295ELj4294967295EE4initEv@Base 0
 (optional=templinst)_ZN5SPIRV17SPIRVInstTemplateINS_29SPIRVSubgroupAVCIntelInstBaseELN3spv2OpE5781ELb1ELj10ELb0ELj4294967295ELj4294967295ELj4294967295EED0Ev@Base 0
 (optional=templinst)_ZN5SPIRV17SPIRVInstTemplateINS_29SPIRVSubgroupAVCIntelInstBaseELN3spv2OpE5781ELb1ELj10ELb0ELj4294967295ELj4294967295ELj4294967295EED1Ev@Base 0
 (optional=templinst)_ZN5SPIRV17SPIRVInstTemplateINS_29SPIRVSubgroupAVCIntelInstBaseELN3spv2OpE5781ELb1ELj10ELb0ELj4294967295ELj4294967295ELj4294967295EED2Ev@Base 0
 (optional=templinst)_ZN5SPIRV17SPIRVInstTemplateINS_29SPIRVSubgroupAVCIntelInstBaseELN3spv2OpE5782ELb1ELj11ELb0ELj4294967295ELj4294967295ELj4294967295EE4initEv@Base 0
 (optional=templinst)_ZN5SPIRV17SPIRVInstTemplateINS_29SPIRVSubgroupAVCIntelInstBaseELN3spv2OpE5782ELb1ELj11ELb0ELj4294967295ELj4294967295ELj4294967295EED0Ev@Base 0
 (optional=templinst)_ZN5SPIRV17SPIRVInstTemplateINS_29SPIRVSubgroupAVCIntelInstBaseELN3spv2OpE5782ELb1ELj11ELb0ELj4294967295ELj4294967295ELj4294967295EED1Ev@Base 0
 (optional=templinst)_ZN5SPIRV17SPIRVInstTemplateINS_29SPIRVSubgroupAVCIntelInstBaseELN3spv2OpE5782ELb1ELj11ELb0ELj4294967295ELj4294967295ELj4294967295EED2Ev@Base 0
 (optional=templinst)_ZN5SPIRV17SPIRVInstTemplateINS_29SPIRVSubgroupAVCIntelInstBaseELN3spv2OpE5783ELb1ELj4ELb0ELj4294967295ELj4294967295ELj4294967295EE4initEv@Base 0
 (optional=templinst)_ZN5SPIRV17SPIRVInstTemplateINS_29SPIRVSubgroupAVCIntelInstBaseELN3spv2OpE5783ELb1ELj4ELb0ELj4294967295ELj4294967295ELj4294967295EED0Ev@Base 0
 (optional=templinst)_ZN5SPIRV17SPIRVInstTemplateINS_29SPIRVSubgroupAVCIntelInstBaseELN3spv2OpE5783ELb1ELj4ELb0ELj4294967295ELj4294967295ELj4294967295EED1Ev@Base 0
 (optional=templinst)_ZN5SPIRV17SPIRVInstTemplateINS_29SPIRVSubgroupAVCIntelInstBaseELN3spv2OpE5783ELb1ELj4ELb0ELj4294967295ELj4294967295ELj4294967295EED2Ev@Base 0
 (optional=templinst)_ZN5SPIRV17SPIRVInstTemplateINS_29SPIRVSubgroupAVCIntelInstBaseELN3spv2OpE5784ELb1ELj4ELb0ELj4294967295ELj4294967295ELj4294967295EE4initEv@Base 0
 (optional=templinst)_ZN5SPIRV17SPIRVInstTemplateINS_29SPIRVSubgroupAVCIntelInstBaseELN3spv2OpE5784ELb1ELj4ELb0ELj4294967295ELj4294967295ELj4294967295EED0Ev@Base 0
 (optional=templinst)_ZN5SPIRV17SPIRVInstTemplateINS_29SPIRVSubgroupAVCIntelInstBaseELN3spv2OpE5784ELb1ELj4ELb0ELj4294967295ELj4294967295ELj4294967295EED1Ev@Base 0
 (optional=templinst)_ZN5SPIRV17SPIRVInstTemplateINS_29SPIRVSubgroupAVCIntelInstBaseELN3spv2OpE5784ELb1ELj4ELb0ELj4294967295ELj4294967295ELj4294967295EED2Ev@Base 0
 (optional=templinst)_ZN5SPIRV17SPIRVInstTemplateINS_29SPIRVSubgroupAVCIntelInstBaseELN3spv2OpE5785ELb1ELj4ELb0ELj4294967295ELj4294967295ELj4294967295EE4initEv@Base 0
 (optional=templinst)_ZN5SPIRV17SPIRVInstTemplateINS_29SPIRVSubgroupAVCIntelInstBaseELN3spv2OpE5785ELb1ELj4ELb0ELj4294967295ELj4294967295ELj4294967295EED0Ev@Base 0
 (optional=templinst)_ZN5SPIRV17SPIRVInstTemplateINS_29SPIRVSubgroupAVCIntelInstBaseELN3spv2OpE5785ELb1ELj4ELb0ELj4294967295ELj4294967295ELj4294967295EED1Ev@Base 0
 (optional=templinst)_ZN5SPIRV17SPIRVInstTemplateINS_29SPIRVSubgroupAVCIntelInstBaseELN3spv2OpE5785ELb1ELj4ELb0ELj4294967295ELj4294967295ELj4294967295EED2Ev@Base 0
 (optional=templinst)_ZN5SPIRV17SPIRVInstTemplateINS_29SPIRVSubgroupAVCIntelInstBaseELN3spv2OpE5786ELb1ELj6ELb0ELj4294967295ELj4294967295ELj4294967295EE4initEv@Base 0
 (optional=templinst)_ZN5SPIRV17SPIRVInstTemplateINS_29SPIRVSubgroupAVCIntelInstBaseELN3spv2OpE5786ELb1ELj6ELb0ELj4294967295ELj4294967295ELj4294967295EED0Ev@Base 0
 (optional=templinst)_ZN5SPIRV17SPIRVInstTemplateINS_29SPIRVSubgroupAVCIntelInstBaseELN3spv2OpE5786ELb1ELj6ELb0ELj4294967295ELj4294967295ELj4294967295EED1Ev@Base 0
 (optional=templinst)_ZN5SPIRV17SPIRVInstTemplateINS_29SPIRVSubgroupAVCIntelInstBaseELN3spv2OpE5786ELb1ELj6ELb0ELj4294967295ELj4294967295ELj4294967295EED2Ev@Base 0
 (optional=templinst)_ZN5SPIRV17SPIRVInstTemplateINS_29SPIRVSubgroupAVCIntelInstBaseELN3spv2OpE5787ELb1ELj7ELb0ELj4294967295ELj4294967295ELj4294967295EE4initEv@Base 0
 (optional=templinst)_ZN5SPIRV17SPIRVInstTemplateINS_29SPIRVSubgroupAVCIntelInstBaseELN3spv2OpE5787ELb1ELj7ELb0ELj4294967295ELj4294967295ELj4294967295EED0Ev@Base 0
 (optional=templinst)_ZN5SPIRV17SPIRVInstTemplateINS_29SPIRVSubgroupAVCIntelInstBaseELN3spv2OpE5787ELb1ELj7ELb0ELj4294967295ELj4294967295ELj4294967295EED1Ev@Base 0
 (optional=templinst)_ZN5SPIRV17SPIRVInstTemplateINS_29SPIRVSubgroupAVCIntelInstBaseELN3spv2OpE5787ELb1ELj7ELb0ELj4294967295ELj4294967295ELj4294967295EED2Ev@Base 0
 (optional=templinst)_ZN5SPIRV17SPIRVInstTemplateINS_29SPIRVSubgroupAVCIntelInstBaseELN3spv2OpE5788ELb1ELj6ELb0ELj4294967295ELj4294967295ELj4294967295EE4initEv@Base 0
 (optional=templinst)_ZN5SPIRV17SPIRVInstTemplateINS_29SPIRVSubgroupAVCIntelInstBaseELN3spv2OpE5788ELb1ELj6ELb0ELj4294967295ELj4294967295ELj4294967295EED0Ev@Base 0
 (optional=templinst)_ZN5SPIRV17SPIRVInstTemplateINS_29SPIRVSubgroupAVCIntelInstBaseELN3spv2OpE5788ELb1ELj6ELb0ELj4294967295ELj4294967295ELj4294967295EED1Ev@Base 0
 (optional=templinst)_ZN5SPIRV17SPIRVInstTemplateINS_29SPIRVSubgroupAVCIntelInstBaseELN3spv2OpE5788ELb1ELj6ELb0ELj4294967295ELj4294967295ELj4294967295EED2Ev@Base 0
 (optional=templinst)_ZN5SPIRV17SPIRVInstTemplateINS_29SPIRVSubgroupAVCIntelInstBaseELN3spv2OpE5789ELb1ELj7ELb0ELj4294967295ELj4294967295ELj4294967295EE4initEv@Base 0
 (optional=templinst)_ZN5SPIRV17SPIRVInstTemplateINS_29SPIRVSubgroupAVCIntelInstBaseELN3spv2OpE5789ELb1ELj7ELb0ELj4294967295ELj4294967295ELj4294967295EED0Ev@Base 0
 (optional=templinst)_ZN5SPIRV17SPIRVInstTemplateINS_29SPIRVSubgroupAVCIntelInstBaseELN3spv2OpE5789ELb1ELj7ELb0ELj4294967295ELj4294967295ELj4294967295EED1Ev@Base 0
 (optional=templinst)_ZN5SPIRV17SPIRVInstTemplateINS_29SPIRVSubgroupAVCIntelInstBaseELN3spv2OpE5789ELb1ELj7ELb0ELj4294967295ELj4294967295ELj4294967295EED2Ev@Base 0
 (optional=templinst)_ZN5SPIRV17SPIRVInstTemplateINS_29SPIRVSubgroupAVCIntelInstBaseELN3spv2OpE5790ELb1ELj4ELb0ELj4294967295ELj4294967295ELj4294967295EE4initEv@Base 0
 (optional=templinst)_ZN5SPIRV17SPIRVInstTemplateINS_29SPIRVSubgroupAVCIntelInstBaseELN3spv2OpE5790ELb1ELj4ELb0ELj4294967295ELj4294967295ELj4294967295EED0Ev@Base 0
 (optional=templinst)_ZN5SPIRV17SPIRVInstTemplateINS_29SPIRVSubgroupAVCIntelInstBaseELN3spv2OpE5790ELb1ELj4ELb0ELj4294967295ELj4294967295ELj4294967295EED1Ev@Base 0
 (optional=templinst)_ZN5SPIRV17SPIRVInstTemplateINS_29SPIRVSubgroupAVCIntelInstBaseELN3spv2OpE5790ELb1ELj4ELb0ELj4294967295ELj4294967295ELj4294967295EED2Ev@Base 0
 (optional=templinst)_ZN5SPIRV17SPIRVInstTemplateINS_29SPIRVSubgroupAVCIntelInstBaseELN3spv2OpE5791ELb1ELj4ELb0ELj4294967295ELj4294967295ELj4294967295EE4initEv@Base 0
 (optional=templinst)_ZN5SPIRV17SPIRVInstTemplateINS_29SPIRVSubgroupAVCIntelInstBaseELN3spv2OpE5791ELb1ELj4ELb0ELj4294967295ELj4294967295ELj4294967295EED0Ev@Base 0
 (optional=templinst)_ZN5SPIRV17SPIRVInstTemplateINS_29SPIRVSubgroupAVCIntelInstBaseELN3spv2OpE5791ELb1ELj4ELb0ELj4294967295ELj4294967295ELj4294967295EED1Ev@Base 0
 (optional=templinst)_ZN5SPIRV17SPIRVInstTemplateINS_29SPIRVSubgroupAVCIntelInstBaseELN3spv2OpE5791ELb1ELj4ELb0ELj4294967295ELj4294967295ELj4294967295EED2Ev@Base 0
 (optional=templinst)_ZN5SPIRV17SPIRVInstTemplateINS_29SPIRVSubgroupAVCIntelInstBaseELN3spv2OpE5792ELb1ELj9ELb0ELj4294967295ELj4294967295ELj4294967295EE4initEv@Base 0
 (optional=templinst)_ZN5SPIRV17SPIRVInstTemplateINS_29SPIRVSubgroupAVCIntelInstBaseELN3spv2OpE5792ELb1ELj9ELb0ELj4294967295ELj4294967295ELj4294967295EED0Ev@Base 0
 (optional=templinst)_ZN5SPIRV17SPIRVInstTemplateINS_29SPIRVSubgroupAVCIntelInstBaseELN3spv2OpE5792ELb1ELj9ELb0ELj4294967295ELj4294967295ELj4294967295EED1Ev@Base 0
 (optional=templinst)_ZN5SPIRV17SPIRVInstTemplateINS_29SPIRVSubgroupAVCIntelInstBaseELN3spv2OpE5792ELb1ELj9ELb0ELj4294967295ELj4294967295ELj4294967295EED2Ev@Base 0
 (optional=templinst)_ZN5SPIRV17SPIRVInstTemplateINS_29SPIRVSubgroupAVCIntelInstBaseELN3spv2OpE5795ELb1ELj5ELb0ELj4294967295ELj4294967295ELj4294967295EE4initEv@Base 0
 (optional=templinst)_ZN5SPIRV17SPIRVInstTemplateINS_29SPIRVSubgroupAVCIntelInstBaseELN3spv2OpE5795ELb1ELj5ELb0ELj4294967295ELj4294967295ELj4294967295EED0Ev@Base 0
 (optional=templinst)_ZN5SPIRV17SPIRVInstTemplateINS_29SPIRVSubgroupAVCIntelInstBaseELN3spv2OpE5795ELb1ELj5ELb0ELj4294967295ELj4294967295ELj4294967295EED1Ev@Base 0
 (optional=templinst)_ZN5SPIRV17SPIRVInstTemplateINS_29SPIRVSubgroupAVCIntelInstBaseELN3spv2OpE5795ELb1ELj5ELb0ELj4294967295ELj4294967295ELj4294967295EED2Ev@Base 0
 (optional=templinst)_ZN5SPIRV17SPIRVInstTemplateINS_29SPIRVSubgroupAVCIntelInstBaseELN3spv2OpE5796ELb1ELj4ELb0ELj4294967295ELj4294967295ELj4294967295EE4initEv@Base 0
 (optional=templinst)_ZN5SPIRV17SPIRVInstTemplateINS_29SPIRVSubgroupAVCIntelInstBaseELN3spv2OpE5796ELb1ELj4ELb0ELj4294967295ELj4294967295ELj4294967295EED0Ev@Base 0
 (optional=templinst)_ZN5SPIRV17SPIRVInstTemplateINS_29SPIRVSubgroupAVCIntelInstBaseELN3spv2OpE5796ELb1ELj4ELb0ELj4294967295ELj4294967295ELj4294967295EED1Ev@Base 0
 (optional=templinst)_ZN5SPIRV17SPIRVInstTemplateINS_29SPIRVSubgroupAVCIntelInstBaseELN3spv2OpE5796ELb1ELj4ELb0ELj4294967295ELj4294967295ELj4294967295EED2Ev@Base 0
 (optional=templinst)_ZN5SPIRV17SPIRVInstTemplateINS_29SPIRVSubgroupAVCIntelInstBaseELN3spv2OpE5797ELb1ELj5ELb0ELj4294967295ELj4294967295ELj4294967295EE4initEv@Base 0
 (optional=templinst)_ZN5SPIRV17SPIRVInstTemplateINS_29SPIRVSubgroupAVCIntelInstBaseELN3spv2OpE5797ELb1ELj5ELb0ELj4294967295ELj4294967295ELj4294967295EED0Ev@Base 0
 (optional=templinst)_ZN5SPIRV17SPIRVInstTemplateINS_29SPIRVSubgroupAVCIntelInstBaseELN3spv2OpE5797ELb1ELj5ELb0ELj4294967295ELj4294967295ELj4294967295EED1Ev@Base 0
 (optional=templinst)_ZN5SPIRV17SPIRVInstTemplateINS_29SPIRVSubgroupAVCIntelInstBaseELN3spv2OpE5797ELb1ELj5ELb0ELj4294967295ELj4294967295ELj4294967295EED2Ev@Base 0
 (optional=templinst)_ZN5SPIRV17SPIRVInstTemplateINS_29SPIRVSubgroupAVCIntelInstBaseELN3spv2OpE5800ELb1ELj4ELb0ELj4294967295ELj4294967295ELj4294967295EE4initEv@Base 0
 (optional=templinst)_ZN5SPIRV17SPIRVInstTemplateINS_29SPIRVSubgroupAVCIntelInstBaseELN3spv2OpE5800ELb1ELj4ELb0ELj4294967295ELj4294967295ELj4294967295EED0Ev@Base 0
 (optional=templinst)_ZN5SPIRV17SPIRVInstTemplateINS_29SPIRVSubgroupAVCIntelInstBaseELN3spv2OpE5800ELb1ELj4ELb0ELj4294967295ELj4294967295ELj4294967295EED1Ev@Base 0
 (optional=templinst)_ZN5SPIRV17SPIRVInstTemplateINS_29SPIRVSubgroupAVCIntelInstBaseELN3spv2OpE5800ELb1ELj4ELb0ELj4294967295ELj4294967295ELj4294967295EED2Ev@Base 0
 (optional=templinst)_ZN5SPIRV17SPIRVInstTemplateINS_29SPIRVSubgroupAVCIntelInstBaseELN3spv2OpE5801ELb1ELj5ELb0ELj4294967295ELj4294967295ELj4294967295EE4initEv@Base 0
 (optional=templinst)_ZN5SPIRV17SPIRVInstTemplateINS_29SPIRVSubgroupAVCIntelInstBaseELN3spv2OpE5801ELb1ELj5ELb0ELj4294967295ELj4294967295ELj4294967295EED0Ev@Base 0
 (optional=templinst)_ZN5SPIRV17SPIRVInstTemplateINS_29SPIRVSubgroupAVCIntelInstBaseELN3spv2OpE5801ELb1ELj5ELb0ELj4294967295ELj4294967295ELj4294967295EED1Ev@Base 0
 (optional=templinst)_ZN5SPIRV17SPIRVInstTemplateINS_29SPIRVSubgroupAVCIntelInstBaseELN3spv2OpE5801ELb1ELj5ELb0ELj4294967295ELj4294967295ELj4294967295EED2Ev@Base 0
 (optional=templinst)_ZN5SPIRV17SPIRVInstTemplateINS_29SPIRVSubgroupAVCIntelInstBaseELN3spv2OpE5802ELb1ELj5ELb0ELj4294967295ELj4294967295ELj4294967295EE4initEv@Base 0
 (optional=templinst)_ZN5SPIRV17SPIRVInstTemplateINS_29SPIRVSubgroupAVCIntelInstBaseELN3spv2OpE5802ELb1ELj5ELb0ELj4294967295ELj4294967295ELj4294967295EED0Ev@Base 0
 (optional=templinst)_ZN5SPIRV17SPIRVInstTemplateINS_29SPIRVSubgroupAVCIntelInstBaseELN3spv2OpE5802ELb1ELj5ELb0ELj4294967295ELj4294967295ELj4294967295EED1Ev@Base 0
 (optional=templinst)_ZN5SPIRV17SPIRVInstTemplateINS_29SPIRVSubgroupAVCIntelInstBaseELN3spv2OpE5802ELb1ELj5ELb0ELj4294967295ELj4294967295ELj4294967295EED2Ev@Base 0
 (optional=templinst)_ZN5SPIRV17SPIRVInstTemplateINS_29SPIRVSubgroupAVCIntelInstBaseELN3spv2OpE5804ELb1ELj6ELb0ELj4294967295ELj4294967295ELj4294967295EE4initEv@Base 0
 (optional=templinst)_ZN5SPIRV17SPIRVInstTemplateINS_29SPIRVSubgroupAVCIntelInstBaseELN3spv2OpE5804ELb1ELj6ELb0ELj4294967295ELj4294967295ELj4294967295EED0Ev@Base 0
 (optional=templinst)_ZN5SPIRV17SPIRVInstTemplateINS_29SPIRVSubgroupAVCIntelInstBaseELN3spv2OpE5804ELb1ELj6ELb0ELj4294967295ELj4294967295ELj4294967295EED1Ev@Base 0
 (optional=templinst)_ZN5SPIRV17SPIRVInstTemplateINS_29SPIRVSubgroupAVCIntelInstBaseELN3spv2OpE5804ELb1ELj6ELb0ELj4294967295ELj4294967295ELj4294967295EED2Ev@Base 0
 (optional=templinst)_ZN5SPIRV17SPIRVInstTemplateINS_29SPIRVSubgroupAVCIntelInstBaseELN3spv2OpE5805ELb1ELj7ELb0ELj4294967295ELj4294967295ELj4294967295EE4initEv@Base 0
 (optional=templinst)_ZN5SPIRV17SPIRVInstTemplateINS_29SPIRVSubgroupAVCIntelInstBaseELN3spv2OpE5805ELb1ELj7ELb0ELj4294967295ELj4294967295ELj4294967295EED0Ev@Base 0
 (optional=templinst)_ZN5SPIRV17SPIRVInstTemplateINS_29SPIRVSubgroupAVCIntelInstBaseELN3spv2OpE5805ELb1ELj7ELb0ELj4294967295ELj4294967295ELj4294967295EED1Ev@Base 0
 (optional=templinst)_ZN5SPIRV17SPIRVInstTemplateINS_29SPIRVSubgroupAVCIntelInstBaseELN3spv2OpE5805ELb1ELj7ELb0ELj4294967295ELj4294967295ELj4294967295EED2Ev@Base 0
 (optional=templinst)_ZN5SPIRV17SPIRVInstTemplateINS_29SPIRVSubgroupAVCIntelInstBaseELN3spv2OpE5806ELb1ELj6ELb0ELj4294967295ELj4294967295ELj4294967295EE4initEv@Base 0
 (optional=templinst)_ZN5SPIRV17SPIRVInstTemplateINS_29SPIRVSubgroupAVCIntelInstBaseELN3spv2OpE5806ELb1ELj6ELb0ELj4294967295ELj4294967295ELj4294967295EED0Ev@Base 0
 (optional=templinst)_ZN5SPIRV17SPIRVInstTemplateINS_29SPIRVSubgroupAVCIntelInstBaseELN3spv2OpE5806ELb1ELj6ELb0ELj4294967295ELj4294967295ELj4294967295EED1Ev@Base 0
 (optional=templinst)_ZN5SPIRV17SPIRVInstTemplateINS_29SPIRVSubgroupAVCIntelInstBaseELN3spv2OpE5806ELb1ELj6ELb0ELj4294967295ELj4294967295ELj4294967295EED2Ev@Base 0
 (optional=templinst)_ZN5SPIRV17SPIRVInstTemplateINS_29SPIRVSubgroupAVCIntelInstBaseELN3spv2OpE5807ELb1ELj7ELb0ELj4294967295ELj4294967295ELj4294967295EE4initEv@Base 0
 (optional=templinst)_ZN5SPIRV17SPIRVInstTemplateINS_29SPIRVSubgroupAVCIntelInstBaseELN3spv2OpE5807ELb1ELj7ELb0ELj4294967295ELj4294967295ELj4294967295EED0Ev@Base 0
 (optional=templinst)_ZN5SPIRV17SPIRVInstTemplateINS_29SPIRVSubgroupAVCIntelInstBaseELN3spv2OpE5807ELb1ELj7ELb0ELj4294967295ELj4294967295ELj4294967295EED1Ev@Base 0
 (optional=templinst)_ZN5SPIRV17SPIRVInstTemplateINS_29SPIRVSubgroupAVCIntelInstBaseELN3spv2OpE5807ELb1ELj7ELb0ELj4294967295ELj4294967295ELj4294967295EED2Ev@Base 0
 (optional=templinst)_ZN5SPIRV17SPIRVInstTemplateINS_29SPIRVSubgroupAVCIntelInstBaseELN3spv2OpE5808ELb1ELj4ELb0ELj4294967295ELj4294967295ELj4294967295EE4initEv@Base 0
 (optional=templinst)_ZN5SPIRV17SPIRVInstTemplateINS_29SPIRVSubgroupAVCIntelInstBaseELN3spv2OpE5808ELb1ELj4ELb0ELj4294967295ELj4294967295ELj4294967295EED0Ev@Base 0
 (optional=templinst)_ZN5SPIRV17SPIRVInstTemplateINS_29SPIRVSubgroupAVCIntelInstBaseELN3spv2OpE5808ELb1ELj4ELb0ELj4294967295ELj4294967295ELj4294967295EED1Ev@Base 0
 (optional=templinst)_ZN5SPIRV17SPIRVInstTemplateINS_29SPIRVSubgroupAVCIntelInstBaseELN3spv2OpE5808ELb1ELj4ELb0ELj4294967295ELj4294967295ELj4294967295EED2Ev@Base 0
 (optional=templinst)_ZN5SPIRV17SPIRVInstTemplateINS_29SPIRVSubgroupAVCIntelInstBaseELN3spv2OpE5816ELb1ELj4ELb0ELj4294967295ELj4294967295ELj4294967295EE4initEv@Base 0
 (optional=templinst)_ZN5SPIRV17SPIRVInstTemplateINS_29SPIRVSubgroupAVCIntelInstBaseELN3spv2OpE5816ELb1ELj4ELb0ELj4294967295ELj4294967295ELj4294967295EED0Ev@Base 0
 (optional=templinst)_ZN5SPIRV17SPIRVInstTemplateINS_29SPIRVSubgroupAVCIntelInstBaseELN3spv2OpE5816ELb1ELj4ELb0ELj4294967295ELj4294967295ELj4294967295EED1Ev@Base 0
 (optional=templinst)_ZN5SPIRV17SPIRVInstTemplateINS_29SPIRVSubgroupAVCIntelInstBaseELN3spv2OpE5816ELb1ELj4ELb0ELj4294967295ELj4294967295ELj4294967295EED2Ev@Base 0
 (optional=templinst)_ZN5SPIRV17SPIRVInstTemplateINS_30SPIRVGroupNonUniformBallotInstELN3spv2OpE337ELb1ELj6ELb0ELj4294967295ELj4294967295ELj4294967295EE4initEv@Base 0
 (optional=templinst)_ZN5SPIRV17SPIRVInstTemplateINS_30SPIRVGroupNonUniformBallotInstELN3spv2OpE337ELb1ELj6ELb0ELj4294967295ELj4294967295ELj4294967295EED0Ev@Base 0
 (optional=templinst)_ZN5SPIRV17SPIRVInstTemplateINS_30SPIRVGroupNonUniformBallotInstELN3spv2OpE337ELb1ELj6ELb0ELj4294967295ELj4294967295ELj4294967295EED1Ev@Base 0
 (optional=templinst)_ZN5SPIRV17SPIRVInstTemplateINS_30SPIRVGroupNonUniformBallotInstELN3spv2OpE337ELb1ELj6ELb0ELj4294967295ELj4294967295ELj4294967295EED2Ev@Base 0
 (optional=templinst)_ZN5SPIRV17SPIRVInstTemplateINS_30SPIRVGroupNonUniformBallotInstELN3spv2OpE338ELb1ELj5ELb0ELj4294967295ELj4294967295ELj4294967295EE4initEv@Base 0
 (optional=templinst)_ZN5SPIRV17SPIRVInstTemplateINS_30SPIRVGroupNonUniformBallotInstELN3spv2OpE338ELb1ELj5ELb0ELj4294967295ELj4294967295ELj4294967295EED0Ev@Base 0
 (optional=templinst)_ZN5SPIRV17SPIRVInstTemplateINS_30SPIRVGroupNonUniformBallotInstELN3spv2OpE338ELb1ELj5ELb0ELj4294967295ELj4294967295ELj4294967295EED1Ev@Base 0
 (optional=templinst)_ZN5SPIRV17SPIRVInstTemplateINS_30SPIRVGroupNonUniformBallotInstELN3spv2OpE338ELb1ELj5ELb0ELj4294967295ELj4294967295ELj4294967295EED2Ev@Base 0
 (optional=templinst)_ZN5SPIRV17SPIRVInstTemplateINS_30SPIRVGroupNonUniformBallotInstELN3spv2OpE339ELb1ELj5ELb0ELj4294967295ELj4294967295ELj4294967295EE4initEv@Base 0
 (optional=templinst)_ZN5SPIRV17SPIRVInstTemplateINS_30SPIRVGroupNonUniformBallotInstELN3spv2OpE339ELb1ELj5ELb0ELj4294967295ELj4294967295ELj4294967295EED0Ev@Base 0
 (optional=templinst)_ZN5SPIRV17SPIRVInstTemplateINS_30SPIRVGroupNonUniformBallotInstELN3spv2OpE339ELb1ELj5ELb0ELj4294967295ELj4294967295ELj4294967295EED1Ev@Base 0
 (optional=templinst)_ZN5SPIRV17SPIRVInstTemplateINS_30SPIRVGroupNonUniformBallotInstELN3spv2OpE339ELb1ELj5ELb0ELj4294967295ELj4294967295ELj4294967295EED2Ev@Base 0
 (optional=templinst)_ZN5SPIRV17SPIRVInstTemplateINS_30SPIRVGroupNonUniformBallotInstELN3spv2OpE340ELb1ELj5ELb0ELj4294967295ELj4294967295ELj4294967295EE4initEv@Base 0
 (optional=templinst)_ZN5SPIRV17SPIRVInstTemplateINS_30SPIRVGroupNonUniformBallotInstELN3spv2OpE340ELb1ELj5ELb0ELj4294967295ELj4294967295ELj4294967295EED0Ev@Base 0
 (optional=templinst)_ZN5SPIRV17SPIRVInstTemplateINS_30SPIRVGroupNonUniformBallotInstELN3spv2OpE340ELb1ELj5ELb0ELj4294967295ELj4294967295ELj4294967295EED1Ev@Base 0
 (optional=templinst)_ZN5SPIRV17SPIRVInstTemplateINS_30SPIRVGroupNonUniformBallotInstELN3spv2OpE340ELb1ELj5ELb0ELj4294967295ELj4294967295ELj4294967295EED2Ev@Base 0
 (optional=templinst)_ZN5SPIRV17SPIRVInstTemplateINS_30SPIRVGroupNonUniformBallotInstELN3spv2OpE341ELb1ELj6ELb0ELj4294967295ELj4294967295ELj4294967295EE4initEv@Base 0
 (optional=templinst)_ZN5SPIRV17SPIRVInstTemplateINS_30SPIRVGroupNonUniformBallotInstELN3spv2OpE341ELb1ELj6ELb0ELj4294967295ELj4294967295ELj4294967295EED0Ev@Base 0
 (optional=templinst)_ZN5SPIRV17SPIRVInstTemplateINS_30SPIRVGroupNonUniformBallotInstELN3spv2OpE341ELb1ELj6ELb0ELj4294967295ELj4294967295ELj4294967295EED1Ev@Base 0
 (optional=templinst)_ZN5SPIRV17SPIRVInstTemplateINS_30SPIRVGroupNonUniformBallotInstELN3spv2OpE341ELb1ELj6ELb0ELj4294967295ELj4294967295ELj4294967295EED2Ev@Base 0
 (optional=templinst)_ZN5SPIRV17SPIRVInstTemplateINS_30SPIRVGroupNonUniformBallotInstELN3spv2OpE342ELb1ELj6ELb0ELj1ELj4294967295ELj4294967295EE4initEv@Base 0
 (optional=templinst)_ZN5SPIRV17SPIRVInstTemplateINS_30SPIRVGroupNonUniformBallotInstELN3spv2OpE342ELb1ELj6ELb0ELj1ELj4294967295ELj4294967295EED0Ev@Base 0
 (optional=templinst)_ZN5SPIRV17SPIRVInstTemplateINS_30SPIRVGroupNonUniformBallotInstELN3spv2OpE342ELb1ELj6ELb0ELj1ELj4294967295ELj4294967295EED1Ev@Base 0
 (optional=templinst)_ZN5SPIRV17SPIRVInstTemplateINS_30SPIRVGroupNonUniformBallotInstELN3spv2OpE342ELb1ELj6ELb0ELj1ELj4294967295ELj4294967295EED2Ev@Base 0
 (optional=templinst)_ZN5SPIRV17SPIRVInstTemplateINS_30SPIRVGroupNonUniformBallotInstELN3spv2OpE343ELb1ELj5ELb0ELj4294967295ELj4294967295ELj4294967295EE4initEv@Base 0
 (optional=templinst)_ZN5SPIRV17SPIRVInstTemplateINS_30SPIRVGroupNonUniformBallotInstELN3spv2OpE343ELb1ELj5ELb0ELj4294967295ELj4294967295ELj4294967295EED0Ev@Base 0
 (optional=templinst)_ZN5SPIRV17SPIRVInstTemplateINS_30SPIRVGroupNonUniformBallotInstELN3spv2OpE343ELb1ELj5ELb0ELj4294967295ELj4294967295ELj4294967295EED1Ev@Base 0
 (optional=templinst)_ZN5SPIRV17SPIRVInstTemplateINS_30SPIRVGroupNonUniformBallotInstELN3spv2OpE343ELb1ELj5ELb0ELj4294967295ELj4294967295ELj4294967295EED2Ev@Base 0
 (optional=templinst)_ZN5SPIRV17SPIRVInstTemplateINS_30SPIRVGroupNonUniformBallotInstELN3spv2OpE344ELb1ELj5ELb0ELj4294967295ELj4294967295ELj4294967295EE4initEv@Base 0
 (optional=templinst)_ZN5SPIRV17SPIRVInstTemplateINS_30SPIRVGroupNonUniformBallotInstELN3spv2OpE344ELb1ELj5ELb0ELj4294967295ELj4294967295ELj4294967295EED0Ev@Base 0
 (optional=templinst)_ZN5SPIRV17SPIRVInstTemplateINS_30SPIRVGroupNonUniformBallotInstELN3spv2OpE344ELb1ELj5ELb0ELj4294967295ELj4294967295ELj4294967295EED1Ev@Base 0
 (optional=templinst)_ZN5SPIRV17SPIRVInstTemplateINS_30SPIRVGroupNonUniformBallotInstELN3spv2OpE344ELb1ELj5ELb0ELj4294967295ELj4294967295ELj4294967295EED2Ev@Base 0
 (optional=templinst)_ZN5SPIRV17SPIRVInstTemplateINS_31SPIRVGroupNonUniformShuffleInstELN3spv2OpE345ELb1ELj6ELb0ELj4294967295ELj4294967295ELj4294967295EE4initEv@Base 0
 (optional=templinst)_ZN5SPIRV17SPIRVInstTemplateINS_31SPIRVGroupNonUniformShuffleInstELN3spv2OpE345ELb1ELj6ELb0ELj4294967295ELj4294967295ELj4294967295EED0Ev@Base 0
 (optional=templinst)_ZN5SPIRV17SPIRVInstTemplateINS_31SPIRVGroupNonUniformShuffleInstELN3spv2OpE345ELb1ELj6ELb0ELj4294967295ELj4294967295ELj4294967295EED1Ev@Base 0
 (optional=templinst)_ZN5SPIRV17SPIRVInstTemplateINS_31SPIRVGroupNonUniformShuffleInstELN3spv2OpE345ELb1ELj6ELb0ELj4294967295ELj4294967295ELj4294967295EED2Ev@Base 0
 (optional=templinst)_ZN5SPIRV17SPIRVInstTemplateINS_31SPIRVGroupNonUniformShuffleInstELN3spv2OpE346ELb1ELj6ELb0ELj4294967295ELj4294967295ELj4294967295EE4initEv@Base 0
 (optional=templinst)_ZN5SPIRV17SPIRVInstTemplateINS_31SPIRVGroupNonUniformShuffleInstELN3spv2OpE346ELb1ELj6ELb0ELj4294967295ELj4294967295ELj4294967295EED0Ev@Base 0
 (optional=templinst)_ZN5SPIRV17SPIRVInstTemplateINS_31SPIRVGroupNonUniformShuffleInstELN3spv2OpE346ELb1ELj6ELb0ELj4294967295ELj4294967295ELj4294967295EED1Ev@Base 0
 (optional=templinst)_ZN5SPIRV17SPIRVInstTemplateINS_31SPIRVGroupNonUniformShuffleInstELN3spv2OpE346ELb1ELj6ELb0ELj4294967295ELj4294967295ELj4294967295EED2Ev@Base 0
 (optional=templinst)_ZN5SPIRV17SPIRVInstTemplateINS_33SPIRVSubgroupShuffleINTELInstBaseELN3spv2OpE5571ELb1ELj5ELb0ELj4294967295ELj4294967295ELj4294967295EE4initEv@Base 0
 (optional=templinst)_ZN5SPIRV17SPIRVInstTemplateINS_33SPIRVSubgroupShuffleINTELInstBaseELN3spv2OpE5571ELb1ELj5ELb0ELj4294967295ELj4294967295ELj4294967295EED0Ev@Base 0
 (optional=templinst)_ZN5SPIRV17SPIRVInstTemplateINS_33SPIRVSubgroupShuffleINTELInstBaseELN3spv2OpE5571ELb1ELj5ELb0ELj4294967295ELj4294967295ELj4294967295EED1Ev@Base 0
 (optional=templinst)_ZN5SPIRV17SPIRVInstTemplateINS_33SPIRVSubgroupShuffleINTELInstBaseELN3spv2OpE5571ELb1ELj5ELb0ELj4294967295ELj4294967295ELj4294967295EED2Ev@Base 0
 (optional=templinst)_ZN5SPIRV17SPIRVInstTemplateINS_33SPIRVSubgroupShuffleINTELInstBaseELN3spv2OpE5572ELb1ELj6ELb0ELj4294967295ELj4294967295ELj4294967295EE4initEv@Base 0
 (optional=templinst)_ZN5SPIRV17SPIRVInstTemplateINS_33SPIRVSubgroupShuffleINTELInstBaseELN3spv2OpE5572ELb1ELj6ELb0ELj4294967295ELj4294967295ELj4294967295EED0Ev@Base 0
 (optional=templinst)_ZN5SPIRV17SPIRVInstTemplateINS_33SPIRVSubgroupShuffleINTELInstBaseELN3spv2OpE5572ELb1ELj6ELb0ELj4294967295ELj4294967295ELj4294967295EED1Ev@Base 0
 (optional=templinst)_ZN5SPIRV17SPIRVInstTemplateINS_33SPIRVSubgroupShuffleINTELInstBaseELN3spv2OpE5572ELb1ELj6ELb0ELj4294967295ELj4294967295ELj4294967295EED2Ev@Base 0
 (optional=templinst)_ZN5SPIRV17SPIRVInstTemplateINS_33SPIRVSubgroupShuffleINTELInstBaseELN3spv2OpE5573ELb1ELj6ELb0ELj4294967295ELj4294967295ELj4294967295EE4initEv@Base 0
 (optional=templinst)_ZN5SPIRV17SPIRVInstTemplateINS_33SPIRVSubgroupShuffleINTELInstBaseELN3spv2OpE5573ELb1ELj6ELb0ELj4294967295ELj4294967295ELj4294967295EED0Ev@Base 0
 (optional=templinst)_ZN5SPIRV17SPIRVInstTemplateINS_33SPIRVSubgroupShuffleINTELInstBaseELN3spv2OpE5573ELb1ELj6ELb0ELj4294967295ELj4294967295ELj4294967295EED1Ev@Base 0
 (optional=templinst)_ZN5SPIRV17SPIRVInstTemplateINS_33SPIRVSubgroupShuffleINTELInstBaseELN3spv2OpE5573ELb1ELj6ELb0ELj4294967295ELj4294967295ELj4294967295EED2Ev@Base 0
 (optional=templinst)_ZN5SPIRV17SPIRVInstTemplateINS_33SPIRVSubgroupShuffleINTELInstBaseELN3spv2OpE5574ELb1ELj5ELb0ELj4294967295ELj4294967295ELj4294967295EE4initEv@Base 0
 (optional=templinst)_ZN5SPIRV17SPIRVInstTemplateINS_33SPIRVSubgroupShuffleINTELInstBaseELN3spv2OpE5574ELb1ELj5ELb0ELj4294967295ELj4294967295ELj4294967295EED0Ev@Base 0
 (optional=templinst)_ZN5SPIRV17SPIRVInstTemplateINS_33SPIRVSubgroupShuffleINTELInstBaseELN3spv2OpE5574ELb1ELj5ELb0ELj4294967295ELj4294967295ELj4294967295EED1Ev@Base 0
 (optional=templinst)_ZN5SPIRV17SPIRVInstTemplateINS_33SPIRVSubgroupShuffleINTELInstBaseELN3spv2OpE5574ELb1ELj5ELb0ELj4294967295ELj4294967295ELj4294967295EED2Ev@Base 0
 (optional=templinst)_ZN5SPIRV17SPIRVInstTemplateINS_34SPIRVGroupNonUniformArithmeticInstELN3spv2OpE349ELb1ELj6ELb1ELj1ELj4294967295ELj4294967295EE4initEv@Base 0
 (optional=templinst)_ZN5SPIRV17SPIRVInstTemplateINS_34SPIRVGroupNonUniformArithmeticInstELN3spv2OpE349ELb1ELj6ELb1ELj1ELj4294967295ELj4294967295EED0Ev@Base 0
 (optional=templinst)_ZN5SPIRV17SPIRVInstTemplateINS_34SPIRVGroupNonUniformArithmeticInstELN3spv2OpE349ELb1ELj6ELb1ELj1ELj4294967295ELj4294967295EED1Ev@Base 0
 (optional=templinst)_ZN5SPIRV17SPIRVInstTemplateINS_34SPIRVGroupNonUniformArithmeticInstELN3spv2OpE349ELb1ELj6ELb1ELj1ELj4294967295ELj4294967295EED2Ev@Base 0
 (optional=templinst)_ZN5SPIRV17SPIRVInstTemplateINS_34SPIRVGroupNonUniformArithmeticInstELN3spv2OpE350ELb1ELj6ELb1ELj1ELj4294967295ELj4294967295EE4initEv@Base 0
 (optional=templinst)_ZN5SPIRV17SPIRVInstTemplateINS_34SPIRVGroupNonUniformArithmeticInstELN3spv2OpE350ELb1ELj6ELb1ELj1ELj4294967295ELj4294967295EED0Ev@Base 0
 (optional=templinst)_ZN5SPIRV17SPIRVInstTemplateINS_34SPIRVGroupNonUniformArithmeticInstELN3spv2OpE350ELb1ELj6ELb1ELj1ELj4294967295ELj4294967295EED1Ev@Base 0
 (optional=templinst)_ZN5SPIRV17SPIRVInstTemplateINS_34SPIRVGroupNonUniformArithmeticInstELN3spv2OpE350ELb1ELj6ELb1ELj1ELj4294967295ELj4294967295EED2Ev@Base 0
 (optional=templinst)_ZN5SPIRV17SPIRVInstTemplateINS_34SPIRVGroupNonUniformArithmeticInstELN3spv2OpE351ELb1ELj6ELb1ELj1ELj4294967295ELj4294967295EE4initEv@Base 0
 (optional=templinst)_ZN5SPIRV17SPIRVInstTemplateINS_34SPIRVGroupNonUniformArithmeticInstELN3spv2OpE351ELb1ELj6ELb1ELj1ELj4294967295ELj4294967295EED0Ev@Base 0
 (optional=templinst)_ZN5SPIRV17SPIRVInstTemplateINS_34SPIRVGroupNonUniformArithmeticInstELN3spv2OpE351ELb1ELj6ELb1ELj1ELj4294967295ELj4294967295EED1Ev@Base 0
 (optional=templinst)_ZN5SPIRV17SPIRVInstTemplateINS_34SPIRVGroupNonUniformArithmeticInstELN3spv2OpE351ELb1ELj6ELb1ELj1ELj4294967295ELj4294967295EED2Ev@Base 0
 (optional=templinst)_ZN5SPIRV17SPIRVInstTemplateINS_34SPIRVGroupNonUniformArithmeticInstELN3spv2OpE352ELb1ELj6ELb1ELj1ELj4294967295ELj4294967295EE4initEv@Base 0
 (optional=templinst)_ZN5SPIRV17SPIRVInstTemplateINS_34SPIRVGroupNonUniformArithmeticInstELN3spv2OpE352ELb1ELj6ELb1ELj1ELj4294967295ELj4294967295EED0Ev@Base 0
 (optional=templinst)_ZN5SPIRV17SPIRVInstTemplateINS_34SPIRVGroupNonUniformArithmeticInstELN3spv2OpE352ELb1ELj6ELb1ELj1ELj4294967295ELj4294967295EED1Ev@Base 0
 (optional=templinst)_ZN5SPIRV17SPIRVInstTemplateINS_34SPIRVGroupNonUniformArithmeticInstELN3spv2OpE352ELb1ELj6ELb1ELj1ELj4294967295ELj4294967295EED2Ev@Base 0
 (optional=templinst)_ZN5SPIRV17SPIRVInstTemplateINS_34SPIRVGroupNonUniformArithmeticInstELN3spv2OpE353ELb1ELj6ELb1ELj1ELj4294967295ELj4294967295EE4initEv@Base 0
 (optional=templinst)_ZN5SPIRV17SPIRVInstTemplateINS_34SPIRVGroupNonUniformArithmeticInstELN3spv2OpE353ELb1ELj6ELb1ELj1ELj4294967295ELj4294967295EED0Ev@Base 0
 (optional=templinst)_ZN5SPIRV17SPIRVInstTemplateINS_34SPIRVGroupNonUniformArithmeticInstELN3spv2OpE353ELb1ELj6ELb1ELj1ELj4294967295ELj4294967295EED1Ev@Base 0
 (optional=templinst)_ZN5SPIRV17SPIRVInstTemplateINS_34SPIRVGroupNonUniformArithmeticInstELN3spv2OpE353ELb1ELj6ELb1ELj1ELj4294967295ELj4294967295EED2Ev@Base 0
 (optional=templinst)_ZN5SPIRV17SPIRVInstTemplateINS_34SPIRVGroupNonUniformArithmeticInstELN3spv2OpE354ELb1ELj6ELb1ELj1ELj4294967295ELj4294967295EE4initEv@Base 0
 (optional=templinst)_ZN5SPIRV17SPIRVInstTemplateINS_34SPIRVGroupNonUniformArithmeticInstELN3spv2OpE354ELb1ELj6ELb1ELj1ELj4294967295ELj4294967295EED0Ev@Base 0
 (optional=templinst)_ZN5SPIRV17SPIRVInstTemplateINS_34SPIRVGroupNonUniformArithmeticInstELN3spv2OpE354ELb1ELj6ELb1ELj1ELj4294967295ELj4294967295EED1Ev@Base 0
 (optional=templinst)_ZN5SPIRV17SPIRVInstTemplateINS_34SPIRVGroupNonUniformArithmeticInstELN3spv2OpE354ELb1ELj6ELb1ELj1ELj4294967295ELj4294967295EED2Ev@Base 0
 (optional=templinst)_ZN5SPIRV17SPIRVInstTemplateINS_34SPIRVGroupNonUniformArithmeticInstELN3spv2OpE355ELb1ELj6ELb1ELj1ELj4294967295ELj4294967295EE4initEv@Base 0
 (optional=templinst)_ZN5SPIRV17SPIRVInstTemplateINS_34SPIRVGroupNonUniformArithmeticInstELN3spv2OpE355ELb1ELj6ELb1ELj1ELj4294967295ELj4294967295EED0Ev@Base 0
 (optional=templinst)_ZN5SPIRV17SPIRVInstTemplateINS_34SPIRVGroupNonUniformArithmeticInstELN3spv2OpE355ELb1ELj6ELb1ELj1ELj4294967295ELj4294967295EED1Ev@Base 0
 (optional=templinst)_ZN5SPIRV17SPIRVInstTemplateINS_34SPIRVGroupNonUniformArithmeticInstELN3spv2OpE355ELb1ELj6ELb1ELj1ELj4294967295ELj4294967295EED2Ev@Base 0
 (optional=templinst)_ZN5SPIRV17SPIRVInstTemplateINS_34SPIRVGroupNonUniformArithmeticInstELN3spv2OpE356ELb1ELj6ELb1ELj1ELj4294967295ELj4294967295EE4initEv@Base 0
 (optional=templinst)_ZN5SPIRV17SPIRVInstTemplateINS_34SPIRVGroupNonUniformArithmeticInstELN3spv2OpE356ELb1ELj6ELb1ELj1ELj4294967295ELj4294967295EED0Ev@Base 0
 (optional=templinst)_ZN5SPIRV17SPIRVInstTemplateINS_34SPIRVGroupNonUniformArithmeticInstELN3spv2OpE356ELb1ELj6ELb1ELj1ELj4294967295ELj4294967295EED1Ev@Base 0
 (optional=templinst)_ZN5SPIRV17SPIRVInstTemplateINS_34SPIRVGroupNonUniformArithmeticInstELN3spv2OpE356ELb1ELj6ELb1ELj1ELj4294967295ELj4294967295EED2Ev@Base 0
 (optional=templinst)_ZN5SPIRV17SPIRVInstTemplateINS_34SPIRVGroupNonUniformArithmeticInstELN3spv2OpE357ELb1ELj6ELb1ELj1ELj4294967295ELj4294967295EE4initEv@Base 0
 (optional=templinst)_ZN5SPIRV17SPIRVInstTemplateINS_34SPIRVGroupNonUniformArithmeticInstELN3spv2OpE357ELb1ELj6ELb1ELj1ELj4294967295ELj4294967295EED0Ev@Base 0
 (optional=templinst)_ZN5SPIRV17SPIRVInstTemplateINS_34SPIRVGroupNonUniformArithmeticInstELN3spv2OpE357ELb1ELj6ELb1ELj1ELj4294967295ELj4294967295EED1Ev@Base 0
 (optional=templinst)_ZN5SPIRV17SPIRVInstTemplateINS_34SPIRVGroupNonUniformArithmeticInstELN3spv2OpE357ELb1ELj6ELb1ELj1ELj4294967295ELj4294967295EED2Ev@Base 0
 (optional=templinst)_ZN5SPIRV17SPIRVInstTemplateINS_34SPIRVGroupNonUniformArithmeticInstELN3spv2OpE358ELb1ELj6ELb1ELj1ELj4294967295ELj4294967295EE4initEv@Base 0
 (optional=templinst)_ZN5SPIRV17SPIRVInstTemplateINS_34SPIRVGroupNonUniformArithmeticInstELN3spv2OpE358ELb1ELj6ELb1ELj1ELj4294967295ELj4294967295EED0Ev@Base 0
 (optional=templinst)_ZN5SPIRV17SPIRVInstTemplateINS_34SPIRVGroupNonUniformArithmeticInstELN3spv2OpE358ELb1ELj6ELb1ELj1ELj4294967295ELj4294967295EED1Ev@Base 0
 (optional=templinst)_ZN5SPIRV17SPIRVInstTemplateINS_34SPIRVGroupNonUniformArithmeticInstELN3spv2OpE358ELb1ELj6ELb1ELj1ELj4294967295ELj4294967295EED2Ev@Base 0
 (optional=templinst)_ZN5SPIRV17SPIRVInstTemplateINS_34SPIRVGroupNonUniformArithmeticInstELN3spv2OpE359ELb1ELj6ELb1ELj1ELj4294967295ELj4294967295EE4initEv@Base 0
 (optional=templinst)_ZN5SPIRV17SPIRVInstTemplateINS_34SPIRVGroupNonUniformArithmeticInstELN3spv2OpE359ELb1ELj6ELb1ELj1ELj4294967295ELj4294967295EED0Ev@Base 0
 (optional=templinst)_ZN5SPIRV17SPIRVInstTemplateINS_34SPIRVGroupNonUniformArithmeticInstELN3spv2OpE359ELb1ELj6ELb1ELj1ELj4294967295ELj4294967295EED1Ev@Base 0
 (optional=templinst)_ZN5SPIRV17SPIRVInstTemplateINS_34SPIRVGroupNonUniformArithmeticInstELN3spv2OpE359ELb1ELj6ELb1ELj1ELj4294967295ELj4294967295EED2Ev@Base 0
 (optional=templinst)_ZN5SPIRV17SPIRVInstTemplateINS_34SPIRVGroupNonUniformArithmeticInstELN3spv2OpE360ELb1ELj6ELb1ELj1ELj4294967295ELj4294967295EE4initEv@Base 0
 (optional=templinst)_ZN5SPIRV17SPIRVInstTemplateINS_34SPIRVGroupNonUniformArithmeticInstELN3spv2OpE360ELb1ELj6ELb1ELj1ELj4294967295ELj4294967295EED0Ev@Base 0
 (optional=templinst)_ZN5SPIRV17SPIRVInstTemplateINS_34SPIRVGroupNonUniformArithmeticInstELN3spv2OpE360ELb1ELj6ELb1ELj1ELj4294967295ELj4294967295EED1Ev@Base 0
 (optional=templinst)_ZN5SPIRV17SPIRVInstTemplateINS_34SPIRVGroupNonUniformArithmeticInstELN3spv2OpE360ELb1ELj6ELb1ELj1ELj4294967295ELj4294967295EED2Ev@Base 0
 (optional=templinst)_ZN5SPIRV17SPIRVInstTemplateINS_34SPIRVGroupNonUniformArithmeticInstELN3spv2OpE361ELb1ELj6ELb1ELj1ELj4294967295ELj4294967295EE4initEv@Base 0
 (optional=templinst)_ZN5SPIRV17SPIRVInstTemplateINS_34SPIRVGroupNonUniformArithmeticInstELN3spv2OpE361ELb1ELj6ELb1ELj1ELj4294967295ELj4294967295EED0Ev@Base 0
 (optional=templinst)_ZN5SPIRV17SPIRVInstTemplateINS_34SPIRVGroupNonUniformArithmeticInstELN3spv2OpE361ELb1ELj6ELb1ELj1ELj4294967295ELj4294967295EED1Ev@Base 0
 (optional=templinst)_ZN5SPIRV17SPIRVInstTemplateINS_34SPIRVGroupNonUniformArithmeticInstELN3spv2OpE361ELb1ELj6ELb1ELj1ELj4294967295ELj4294967295EED2Ev@Base 0
 (optional=templinst)_ZN5SPIRV17SPIRVInstTemplateINS_34SPIRVGroupNonUniformArithmeticInstELN3spv2OpE362ELb1ELj6ELb1ELj1ELj4294967295ELj4294967295EE4initEv@Base 0
 (optional=templinst)_ZN5SPIRV17SPIRVInstTemplateINS_34SPIRVGroupNonUniformArithmeticInstELN3spv2OpE362ELb1ELj6ELb1ELj1ELj4294967295ELj4294967295EED0Ev@Base 0
 (optional=templinst)_ZN5SPIRV17SPIRVInstTemplateINS_34SPIRVGroupNonUniformArithmeticInstELN3spv2OpE362ELb1ELj6ELb1ELj1ELj4294967295ELj4294967295EED1Ev@Base 0
 (optional=templinst)_ZN5SPIRV17SPIRVInstTemplateINS_34SPIRVGroupNonUniformArithmeticInstELN3spv2OpE362ELb1ELj6ELb1ELj1ELj4294967295ELj4294967295EED2Ev@Base 0
 (optional=templinst)_ZN5SPIRV17SPIRVInstTemplateINS_34SPIRVGroupNonUniformArithmeticInstELN3spv2OpE363ELb1ELj6ELb1ELj1ELj4294967295ELj4294967295EE4initEv@Base 0
 (optional=templinst)_ZN5SPIRV17SPIRVInstTemplateINS_34SPIRVGroupNonUniformArithmeticInstELN3spv2OpE363ELb1ELj6ELb1ELj1ELj4294967295ELj4294967295EED0Ev@Base 0
 (optional=templinst)_ZN5SPIRV17SPIRVInstTemplateINS_34SPIRVGroupNonUniformArithmeticInstELN3spv2OpE363ELb1ELj6ELb1ELj1ELj4294967295ELj4294967295EED1Ev@Base 0
 (optional=templinst)_ZN5SPIRV17SPIRVInstTemplateINS_34SPIRVGroupNonUniformArithmeticInstELN3spv2OpE363ELb1ELj6ELb1ELj1ELj4294967295ELj4294967295EED2Ev@Base 0
 (optional=templinst)_ZN5SPIRV17SPIRVInstTemplateINS_34SPIRVGroupNonUniformArithmeticInstELN3spv2OpE364ELb1ELj6ELb1ELj1ELj4294967295ELj4294967295EE4initEv@Base 0
 (optional=templinst)_ZN5SPIRV17SPIRVInstTemplateINS_34SPIRVGroupNonUniformArithmeticInstELN3spv2OpE364ELb1ELj6ELb1ELj1ELj4294967295ELj4294967295EED0Ev@Base 0
 (optional=templinst)_ZN5SPIRV17SPIRVInstTemplateINS_34SPIRVGroupNonUniformArithmeticInstELN3spv2OpE364ELb1ELj6ELb1ELj1ELj4294967295ELj4294967295EED1Ev@Base 0
 (optional=templinst)_ZN5SPIRV17SPIRVInstTemplateINS_34SPIRVGroupNonUniformArithmeticInstELN3spv2OpE364ELb1ELj6ELb1ELj1ELj4294967295ELj4294967295EED2Ev@Base 0
 (optional=templinst)_ZN5SPIRV17SPIRVInstTemplateINS_34SPIRVSubgroupAVCIntelInstBaseIntraELN3spv2OpE5719ELb1ELj5ELb0ELj4294967295ELj4294967295ELj4294967295EE4initEv@Base 0
 (optional=templinst)_ZN5SPIRV17SPIRVInstTemplateINS_34SPIRVSubgroupAVCIntelInstBaseIntraELN3spv2OpE5719ELb1ELj5ELb0ELj4294967295ELj4294967295ELj4294967295EED0Ev@Base 0
 (optional=templinst)_ZN5SPIRV17SPIRVInstTemplateINS_34SPIRVSubgroupAVCIntelInstBaseIntraELN3spv2OpE5719ELb1ELj5ELb0ELj4294967295ELj4294967295ELj4294967295EED1Ev@Base 0
 (optional=templinst)_ZN5SPIRV17SPIRVInstTemplateINS_34SPIRVSubgroupAVCIntelInstBaseIntraELN3spv2OpE5719ELb1ELj5ELb0ELj4294967295ELj4294967295ELj4294967295EED2Ev@Base 0
 (optional=templinst)_ZN5SPIRV17SPIRVInstTemplateINS_34SPIRVSubgroupAVCIntelInstBaseIntraELN3spv2OpE5725ELb1ELj5ELb0ELj4294967295ELj4294967295ELj4294967295EE4initEv@Base 0
 (optional=templinst)_ZN5SPIRV17SPIRVInstTemplateINS_34SPIRVSubgroupAVCIntelInstBaseIntraELN3spv2OpE5725ELb1ELj5ELb0ELj4294967295ELj4294967295ELj4294967295EED0Ev@Base 0
 (optional=templinst)_ZN5SPIRV17SPIRVInstTemplateINS_34SPIRVSubgroupAVCIntelInstBaseIntraELN3spv2OpE5725ELb1ELj5ELb0ELj4294967295ELj4294967295ELj4294967295EED1Ev@Base 0
 (optional=templinst)_ZN5SPIRV17SPIRVInstTemplateINS_34SPIRVSubgroupAVCIntelInstBaseIntraELN3spv2OpE5725ELb1ELj5ELb0ELj4294967295ELj4294967295ELj4294967295EED2Ev@Base 0
 (optional=templinst)_ZN5SPIRV17SPIRVInstTemplateINS_34SPIRVSubgroupAVCIntelInstBaseIntraELN3spv2OpE5726ELb1ELj3ELb0ELj4294967295ELj4294967295ELj4294967295EE4initEv@Base 0
 (optional=templinst)_ZN5SPIRV17SPIRVInstTemplateINS_34SPIRVSubgroupAVCIntelInstBaseIntraELN3spv2OpE5726ELb1ELj3ELb0ELj4294967295ELj4294967295ELj4294967295EED0Ev@Base 0
 (optional=templinst)_ZN5SPIRV17SPIRVInstTemplateINS_34SPIRVSubgroupAVCIntelInstBaseIntraELN3spv2OpE5726ELb1ELj3ELb0ELj4294967295ELj4294967295ELj4294967295EED1Ev@Base 0
 (optional=templinst)_ZN5SPIRV17SPIRVInstTemplateINS_34SPIRVSubgroupAVCIntelInstBaseIntraELN3spv2OpE5726ELb1ELj3ELb0ELj4294967295ELj4294967295ELj4294967295EED2Ev@Base 0
 (optional=templinst)_ZN5SPIRV17SPIRVInstTemplateINS_34SPIRVSubgroupAVCIntelInstBaseIntraELN3spv2OpE5793ELb1ELj11ELb0ELj4294967295ELj4294967295ELj4294967295EE4initEv@Base 0
 (optional=templinst)_ZN5SPIRV17SPIRVInstTemplateINS_34SPIRVSubgroupAVCIntelInstBaseIntraELN3spv2OpE5793ELb1ELj11ELb0ELj4294967295ELj4294967295ELj4294967295EED0Ev@Base 0
 (optional=templinst)_ZN5SPIRV17SPIRVInstTemplateINS_34SPIRVSubgroupAVCIntelInstBaseIntraELN3spv2OpE5793ELb1ELj11ELb0ELj4294967295ELj4294967295ELj4294967295EED1Ev@Base 0
 (optional=templinst)_ZN5SPIRV17SPIRVInstTemplateINS_34SPIRVSubgroupAVCIntelInstBaseIntraELN3spv2OpE5793ELb1ELj11ELb0ELj4294967295ELj4294967295ELj4294967295EED2Ev@Base 0
 (optional=templinst)_ZN5SPIRV17SPIRVInstTemplateINS_34SPIRVSubgroupAVCIntelInstBaseIntraELN3spv2OpE5798ELb1ELj7ELb0ELj4294967295ELj4294967295ELj4294967295EE4initEv@Base 0
 (optional=templinst)_ZN5SPIRV17SPIRVInstTemplateINS_34SPIRVSubgroupAVCIntelInstBaseIntraELN3spv2OpE5798ELb1ELj7ELb0ELj4294967295ELj4294967295ELj4294967295EED0Ev@Base 0
 (optional=templinst)_ZN5SPIRV17SPIRVInstTemplateINS_34SPIRVSubgroupAVCIntelInstBaseIntraELN3spv2OpE5798ELb1ELj7ELb0ELj4294967295ELj4294967295ELj4294967295EED1Ev@Base 0
 (optional=templinst)_ZN5SPIRV17SPIRVInstTemplateINS_34SPIRVSubgroupAVCIntelInstBaseIntraELN3spv2OpE5798ELb1ELj7ELb0ELj4294967295ELj4294967295ELj4294967295EED2Ev@Base 0
 (optional=templinst)_ZN5SPIRV17SPIRVInstTemplateINS_34SPIRVSubgroupAVCIntelInstBaseIntraELN3spv2OpE5803ELb1ELj5ELb0ELj4294967295ELj4294967295ELj4294967295EE4initEv@Base 0
 (optional=templinst)_ZN5SPIRV17SPIRVInstTemplateINS_34SPIRVSubgroupAVCIntelInstBaseIntraELN3spv2OpE5803ELb1ELj5ELb0ELj4294967295ELj4294967295ELj4294967295EED0Ev@Base 0
 (optional=templinst)_ZN5SPIRV17SPIRVInstTemplateINS_34SPIRVSubgroupAVCIntelInstBaseIntraELN3spv2OpE5803ELb1ELj5ELb0ELj4294967295ELj4294967295ELj4294967295EED1Ev@Base 0
 (optional=templinst)_ZN5SPIRV17SPIRVInstTemplateINS_34SPIRVSubgroupAVCIntelInstBaseIntraELN3spv2OpE5803ELb1ELj5ELb0ELj4294967295ELj4294967295ELj4294967295EED2Ev@Base 0
 (optional=templinst)_ZN5SPIRV17SPIRVInstTemplateINS_34SPIRVSubgroupAVCIntelInstBaseIntraELN3spv2OpE5809ELb1ELj4ELb0ELj4294967295ELj4294967295ELj4294967295EE4initEv@Base 0
 (optional=templinst)_ZN5SPIRV17SPIRVInstTemplateINS_34SPIRVSubgroupAVCIntelInstBaseIntraELN3spv2OpE5809ELb1ELj4ELb0ELj4294967295ELj4294967295ELj4294967295EED0Ev@Base 0
 (optional=templinst)_ZN5SPIRV17SPIRVInstTemplateINS_34SPIRVSubgroupAVCIntelInstBaseIntraELN3spv2OpE5809ELb1ELj4ELb0ELj4294967295ELj4294967295ELj4294967295EED1Ev@Base 0
 (optional=templinst)_ZN5SPIRV17SPIRVInstTemplateINS_34SPIRVSubgroupAVCIntelInstBaseIntraELN3spv2OpE5809ELb1ELj4ELb0ELj4294967295ELj4294967295ELj4294967295EED2Ev@Base 0
 (optional=templinst)_ZN5SPIRV17SPIRVInstTemplateINS_34SPIRVSubgroupAVCIntelInstBaseIntraELN3spv2OpE5810ELb1ELj4ELb0ELj4294967295ELj4294967295ELj4294967295EE4initEv@Base 0
 (optional=templinst)_ZN5SPIRV17SPIRVInstTemplateINS_34SPIRVSubgroupAVCIntelInstBaseIntraELN3spv2OpE5810ELb1ELj4ELb0ELj4294967295ELj4294967295ELj4294967295EED0Ev@Base 0
 (optional=templinst)_ZN5SPIRV17SPIRVInstTemplateINS_34SPIRVSubgroupAVCIntelInstBaseIntraELN3spv2OpE5810ELb1ELj4ELb0ELj4294967295ELj4294967295ELj4294967295EED1Ev@Base 0
 (optional=templinst)_ZN5SPIRV17SPIRVInstTemplateINS_34SPIRVSubgroupAVCIntelInstBaseIntraELN3spv2OpE5810ELb1ELj4ELb0ELj4294967295ELj4294967295ELj4294967295EED2Ev@Base 0
 (optional=templinst)_ZN5SPIRV17SPIRVInstTemplateINS_34SPIRVSubgroupAVCIntelInstBaseIntraELN3spv2OpE5812ELb1ELj4ELb0ELj4294967295ELj4294967295ELj4294967295EE4initEv@Base 0
 (optional=templinst)_ZN5SPIRV17SPIRVInstTemplateINS_34SPIRVSubgroupAVCIntelInstBaseIntraELN3spv2OpE5812ELb1ELj4ELb0ELj4294967295ELj4294967295ELj4294967295EED0Ev@Base 0
 (optional=templinst)_ZN5SPIRV17SPIRVInstTemplateINS_34SPIRVSubgroupAVCIntelInstBaseIntraELN3spv2OpE5812ELb1ELj4ELb0ELj4294967295ELj4294967295ELj4294967295EED1Ev@Base 0
 (optional=templinst)_ZN5SPIRV17SPIRVInstTemplateINS_34SPIRVSubgroupAVCIntelInstBaseIntraELN3spv2OpE5812ELb1ELj4ELb0ELj4294967295ELj4294967295ELj4294967295EED2Ev@Base 0
 (optional=templinst)_ZN5SPIRV17SPIRVInstTemplateINS_34SPIRVSubgroupAVCIntelInstBaseIntraELN3spv2OpE5814ELb1ELj4ELb0ELj4294967295ELj4294967295ELj4294967295EE4initEv@Base 0
 (optional=templinst)_ZN5SPIRV17SPIRVInstTemplateINS_34SPIRVSubgroupAVCIntelInstBaseIntraELN3spv2OpE5814ELb1ELj4ELb0ELj4294967295ELj4294967295ELj4294967295EED0Ev@Base 0
 (optional=templinst)_ZN5SPIRV17SPIRVInstTemplateINS_34SPIRVSubgroupAVCIntelInstBaseIntraELN3spv2OpE5814ELb1ELj4ELb0ELj4294967295ELj4294967295ELj4294967295EED1Ev@Base 0
 (optional=templinst)_ZN5SPIRV17SPIRVInstTemplateINS_34SPIRVSubgroupAVCIntelInstBaseIntraELN3spv2OpE5814ELb1ELj4ELb0ELj4294967295ELj4294967295ELj4294967295EED2Ev@Base 0
 (optional=templinst)_ZN5SPIRV17SPIRVInstTemplateINS_34SPIRVSubgroupAVCIntelInstBaseIntraELN3spv2OpE5815ELb1ELj4ELb0ELj4294967295ELj4294967295ELj4294967295EE4initEv@Base 0
 (optional=templinst)_ZN5SPIRV17SPIRVInstTemplateINS_34SPIRVSubgroupAVCIntelInstBaseIntraELN3spv2OpE5815ELb1ELj4ELb0ELj4294967295ELj4294967295ELj4294967295EED0Ev@Base 0
 (optional=templinst)_ZN5SPIRV17SPIRVInstTemplateINS_34SPIRVSubgroupAVCIntelInstBaseIntraELN3spv2OpE5815ELb1ELj4ELb0ELj4294967295ELj4294967295ELj4294967295EED1Ev@Base 0
 (optional=templinst)_ZN5SPIRV17SPIRVInstTemplateINS_34SPIRVSubgroupAVCIntelInstBaseIntraELN3spv2OpE5815ELb1ELj4ELb0ELj4294967295ELj4294967295ELj4294967295EED2Ev@Base 0
 (optional=templinst)_ZN5SPIRV17SPIRVInstTemplateINS_35SPIRVSubgroupAVCIntelInstBaseChromaELN3spv2OpE5727ELb1ELj3ELb0ELj4294967295ELj4294967295ELj4294967295EE4initEv@Base 0
 (optional=templinst)_ZN5SPIRV17SPIRVInstTemplateINS_35SPIRVSubgroupAVCIntelInstBaseChromaELN3spv2OpE5727ELb1ELj3ELb0ELj4294967295ELj4294967295ELj4294967295EED0Ev@Base 0
 (optional=templinst)_ZN5SPIRV17SPIRVInstTemplateINS_35SPIRVSubgroupAVCIntelInstBaseChromaELN3spv2OpE5727ELb1ELj3ELb0ELj4294967295ELj4294967295ELj4294967295EED1Ev@Base 0
 (optional=templinst)_ZN5SPIRV17SPIRVInstTemplateINS_35SPIRVSubgroupAVCIntelInstBaseChromaELN3spv2OpE5727ELb1ELj3ELb0ELj4294967295ELj4294967295ELj4294967295EED2Ev@Base 0
 (optional=templinst)_ZN5SPIRV17SPIRVInstTemplateINS_35SPIRVSubgroupAVCIntelInstBaseChromaELN3spv2OpE5794ELb1ELj14ELb0ELj4294967295ELj4294967295ELj4294967295EE4initEv@Base 0
 (optional=templinst)_ZN5SPIRV17SPIRVInstTemplateINS_35SPIRVSubgroupAVCIntelInstBaseChromaELN3spv2OpE5794ELb1ELj14ELb0ELj4294967295ELj4294967295ELj4294967295EED0Ev@Base 0
 (optional=templinst)_ZN5SPIRV17SPIRVInstTemplateINS_35SPIRVSubgroupAVCIntelInstBaseChromaELN3spv2OpE5794ELb1ELj14ELb0ELj4294967295ELj4294967295ELj4294967295EED1Ev@Base 0
 (optional=templinst)_ZN5SPIRV17SPIRVInstTemplateINS_35SPIRVSubgroupAVCIntelInstBaseChromaELN3spv2OpE5794ELb1ELj14ELb0ELj4294967295ELj4294967295ELj4294967295EED2Ev@Base 0
 (optional=templinst)_ZN5SPIRV17SPIRVInstTemplateINS_35SPIRVSubgroupAVCIntelInstBaseChromaELN3spv2OpE5799ELb1ELj5ELb0ELj4294967295ELj4294967295ELj4294967295EE4initEv@Base 0
 (optional=templinst)_ZN5SPIRV17SPIRVInstTemplateINS_35SPIRVSubgroupAVCIntelInstBaseChromaELN3spv2OpE5799ELb1ELj5ELb0ELj4294967295ELj4294967295ELj4294967295EED0Ev@Base 0
 (optional=templinst)_ZN5SPIRV17SPIRVInstTemplateINS_35SPIRVSubgroupAVCIntelInstBaseChromaELN3spv2OpE5799ELb1ELj5ELb0ELj4294967295ELj4294967295ELj4294967295EED1Ev@Base 0
 (optional=templinst)_ZN5SPIRV17SPIRVInstTemplateINS_35SPIRVSubgroupAVCIntelInstBaseChromaELN3spv2OpE5799ELb1ELj5ELb0ELj4294967295ELj4294967295ELj4294967295EED2Ev@Base 0
 (optional=templinst)_ZN5SPIRV17SPIRVInstTemplateINS_35SPIRVSubgroupAVCIntelInstBaseChromaELN3spv2OpE5811ELb1ELj4ELb0ELj4294967295ELj4294967295ELj4294967295EE4initEv@Base 0
 (optional=templinst)_ZN5SPIRV17SPIRVInstTemplateINS_35SPIRVSubgroupAVCIntelInstBaseChromaELN3spv2OpE5811ELb1ELj4ELb0ELj4294967295ELj4294967295ELj4294967295EED0Ev@Base 0
 (optional=templinst)_ZN5SPIRV17SPIRVInstTemplateINS_35SPIRVSubgroupAVCIntelInstBaseChromaELN3spv2OpE5811ELb1ELj4ELb0ELj4294967295ELj4294967295ELj4294967295EED1Ev@Base 0
 (optional=templinst)_ZN5SPIRV17SPIRVInstTemplateINS_35SPIRVSubgroupAVCIntelInstBaseChromaELN3spv2OpE5811ELb1ELj4ELb0ELj4294967295ELj4294967295ELj4294967295EED2Ev@Base 0
 (optional=templinst)_ZN5SPIRV17SPIRVInstTemplateINS_35SPIRVSubgroupAVCIntelInstBaseChromaELN3spv2OpE5813ELb1ELj4ELb0ELj4294967295ELj4294967295ELj4294967295EE4initEv@Base 0
 (optional=templinst)_ZN5SPIRV17SPIRVInstTemplateINS_35SPIRVSubgroupAVCIntelInstBaseChromaELN3spv2OpE5813ELb1ELj4ELb0ELj4294967295ELj4294967295ELj4294967295EED0Ev@Base 0
 (optional=templinst)_ZN5SPIRV17SPIRVInstTemplateINS_35SPIRVSubgroupAVCIntelInstBaseChromaELN3spv2OpE5813ELb1ELj4ELb0ELj4294967295ELj4294967295ELj4294967295EED1Ev@Base 0
 (optional=templinst)_ZN5SPIRV17SPIRVInstTemplateINS_35SPIRVSubgroupAVCIntelInstBaseChromaELN3spv2OpE5813ELb1ELj4ELb0ELj4294967295ELj4294967295ELj4294967295EED2Ev@Base 0
 (optional=templinst)_ZN5SPIRV17SPIRVInstTemplateINS_38SPIRVSubgroupImageBlockIOINTELInstBaseELN3spv2OpE5577ELb1ELj5ELb0ELj4294967295ELj4294967295ELj4294967295EE4initEv@Base 0
 (optional=templinst)_ZN5SPIRV17SPIRVInstTemplateINS_38SPIRVSubgroupImageBlockIOINTELInstBaseELN3spv2OpE5577ELb1ELj5ELb0ELj4294967295ELj4294967295ELj4294967295EED0Ev@Base 0
 (optional=templinst)_ZN5SPIRV17SPIRVInstTemplateINS_38SPIRVSubgroupImageBlockIOINTELInstBaseELN3spv2OpE5577ELb1ELj5ELb0ELj4294967295ELj4294967295ELj4294967295EED1Ev@Base 0
 (optional=templinst)_ZN5SPIRV17SPIRVInstTemplateINS_38SPIRVSubgroupImageBlockIOINTELInstBaseELN3spv2OpE5577ELb1ELj5ELb0ELj4294967295ELj4294967295ELj4294967295EED2Ev@Base 0
 (optional=templinst)_ZN5SPIRV17SPIRVInstTemplateINS_38SPIRVSubgroupImageBlockIOINTELInstBaseELN3spv2OpE5578ELb0ELj4ELb0ELj4294967295ELj4294967295ELj4294967295EE4initEv@Base 0
 (optional=templinst)_ZN5SPIRV17SPIRVInstTemplateINS_38SPIRVSubgroupImageBlockIOINTELInstBaseELN3spv2OpE5578ELb0ELj4ELb0ELj4294967295ELj4294967295ELj4294967295EED0Ev@Base 0
 (optional=templinst)_ZN5SPIRV17SPIRVInstTemplateINS_38SPIRVSubgroupImageBlockIOINTELInstBaseELN3spv2OpE5578ELb0ELj4ELb0ELj4294967295ELj4294967295ELj4294967295EED1Ev@Base 0
 (optional=templinst)_ZN5SPIRV17SPIRVInstTemplateINS_38SPIRVSubgroupImageBlockIOINTELInstBaseELN3spv2OpE5578ELb0ELj4ELb0ELj4294967295ELj4294967295ELj4294967295EED2Ev@Base 0
 (optional=templinst)_ZN5SPIRV17SPIRVInstTemplateINS_39SPIRVGroupNonUniformShuffleRelativeInstELN3spv2OpE347ELb1ELj6ELb0ELj4294967295ELj4294967295ELj4294967295EE4initEv@Base 0
 (optional=templinst)_ZN5SPIRV17SPIRVInstTemplateINS_39SPIRVGroupNonUniformShuffleRelativeInstELN3spv2OpE347ELb1ELj6ELb0ELj4294967295ELj4294967295ELj4294967295EED0Ev@Base 0
 (optional=templinst)_ZN5SPIRV17SPIRVInstTemplateINS_39SPIRVGroupNonUniformShuffleRelativeInstELN3spv2OpE347ELb1ELj6ELb0ELj4294967295ELj4294967295ELj4294967295EED1Ev@Base 0
 (optional=templinst)_ZN5SPIRV17SPIRVInstTemplateINS_39SPIRVGroupNonUniformShuffleRelativeInstELN3spv2OpE347ELb1ELj6ELb0ELj4294967295ELj4294967295ELj4294967295EED2Ev@Base 0
 (optional=templinst)_ZN5SPIRV17SPIRVInstTemplateINS_39SPIRVGroupNonUniformShuffleRelativeInstELN3spv2OpE348ELb1ELj6ELb0ELj4294967295ELj4294967295ELj4294967295EE4initEv@Base 0
 (optional=templinst)_ZN5SPIRV17SPIRVInstTemplateINS_39SPIRVGroupNonUniformShuffleRelativeInstELN3spv2OpE348ELb1ELj6ELb0ELj4294967295ELj4294967295ELj4294967295EED0Ev@Base 0
 (optional=templinst)_ZN5SPIRV17SPIRVInstTemplateINS_39SPIRVGroupNonUniformShuffleRelativeInstELN3spv2OpE348ELb1ELj6ELb0ELj4294967295ELj4294967295ELj4294967295EED1Ev@Base 0
 (optional=templinst)_ZN5SPIRV17SPIRVInstTemplateINS_39SPIRVGroupNonUniformShuffleRelativeInstELN3spv2OpE348ELb1ELj6ELb0ELj4294967295ELj4294967295ELj4294967295EED2Ev@Base 0
 (optional=templinst)_ZN5SPIRV17SPIRVInstTemplateINS_39SPIRVSubgroupBufferBlockIOINTELInstBaseELN3spv2OpE5575ELb1ELj4ELb0ELj4294967295ELj4294967295ELj4294967295EE4initEv@Base 0
 (optional=templinst)_ZN5SPIRV17SPIRVInstTemplateINS_39SPIRVSubgroupBufferBlockIOINTELInstBaseELN3spv2OpE5575ELb1ELj4ELb0ELj4294967295ELj4294967295ELj4294967295EED0Ev@Base 0
 (optional=templinst)_ZN5SPIRV17SPIRVInstTemplateINS_39SPIRVSubgroupBufferBlockIOINTELInstBaseELN3spv2OpE5575ELb1ELj4ELb0ELj4294967295ELj4294967295ELj4294967295EED1Ev@Base 0
 (optional=templinst)_ZN5SPIRV17SPIRVInstTemplateINS_39SPIRVSubgroupBufferBlockIOINTELInstBaseELN3spv2OpE5575ELb1ELj4ELb0ELj4294967295ELj4294967295ELj4294967295EED2Ev@Base 0
 (optional=templinst)_ZN5SPIRV17SPIRVInstTemplateINS_39SPIRVSubgroupBufferBlockIOINTELInstBaseELN3spv2OpE5576ELb0ELj3ELb0ELj4294967295ELj4294967295ELj4294967295EE4initEv@Base 0
 (optional=templinst)_ZN5SPIRV17SPIRVInstTemplateINS_39SPIRVSubgroupBufferBlockIOINTELInstBaseELN3spv2OpE5576ELb0ELj3ELb0ELj4294967295ELj4294967295ELj4294967295EED0Ev@Base 0
 (optional=templinst)_ZN5SPIRV17SPIRVInstTemplateINS_39SPIRVSubgroupBufferBlockIOINTELInstBaseELN3spv2OpE5576ELb0ELj3ELb0ELj4294967295ELj4294967295ELj4294967295EED1Ev@Base 0
 (optional=templinst)_ZN5SPIRV17SPIRVInstTemplateINS_39SPIRVSubgroupBufferBlockIOINTELInstBaseELN3spv2OpE5576ELb0ELj3ELb0ELj4294967295ELj4294967295ELj4294967295EED2Ev@Base 0
 (optional=templinst)_ZN5SPIRV17SPIRVInstTemplateINS_43SPIRVSubgroupImageMediaBlockIOINTELInstBaseELN3spv2OpE5580ELb1ELj7ELb0ELj4294967295ELj4294967295ELj4294967295EE4initEv@Base 0
 (optional=templinst)_ZN5SPIRV17SPIRVInstTemplateINS_43SPIRVSubgroupImageMediaBlockIOINTELInstBaseELN3spv2OpE5580ELb1ELj7ELb0ELj4294967295ELj4294967295ELj4294967295EED0Ev@Base 0
 (optional=templinst)_ZN5SPIRV17SPIRVInstTemplateINS_43SPIRVSubgroupImageMediaBlockIOINTELInstBaseELN3spv2OpE5580ELb1ELj7ELb0ELj4294967295ELj4294967295ELj4294967295EED1Ev@Base 0
 (optional=templinst)_ZN5SPIRV17SPIRVInstTemplateINS_43SPIRVSubgroupImageMediaBlockIOINTELInstBaseELN3spv2OpE5580ELb1ELj7ELb0ELj4294967295ELj4294967295ELj4294967295EED2Ev@Base 0
 (optional=templinst)_ZN5SPIRV17SPIRVInstTemplateINS_43SPIRVSubgroupImageMediaBlockIOINTELInstBaseELN3spv2OpE5581ELb0ELj6ELb0ELj4294967295ELj4294967295ELj4294967295EE4initEv@Base 0
 (optional=templinst)_ZN5SPIRV17SPIRVInstTemplateINS_43SPIRVSubgroupImageMediaBlockIOINTELInstBaseELN3spv2OpE5581ELb0ELj6ELb0ELj4294967295ELj4294967295ELj4294967295EED0Ev@Base 0
 (optional=templinst)_ZN5SPIRV17SPIRVInstTemplateINS_43SPIRVSubgroupImageMediaBlockIOINTELInstBaseELN3spv2OpE5581ELb0ELj6ELb0ELj4294967295ELj4294967295ELj4294967295EED1Ev@Base 0
 (optional=templinst)_ZN5SPIRV17SPIRVInstTemplateINS_43SPIRVSubgroupImageMediaBlockIOINTELInstBaseELN3spv2OpE5581ELb0ELj6ELb0ELj4294967295ELj4294967295ELj4294967295EED2Ev@Base 0
 _ZN5SPIRV17SPIRVLowerMemmove11runOnModuleERN4llvm6ModuleE@Base 0
 _ZN5SPIRV17SPIRVLowerMemmove16visitMemMoveInstERN4llvm11MemMoveInstE@Base 0
 _ZN5SPIRV17SPIRVLowerMemmove2IDE@Base 0
 _ZN5SPIRV17SPIRVLowerMemmoveD0Ev@Base 0
 _ZN5SPIRV17SPIRVLowerMemmoveD1Ev@Base 0
 _ZN5SPIRV17SPIRVLowerMemmoveD2Ev@Base 0
 _ZN5SPIRV17SPIRVPipeInstBaseD0Ev@Base 0
 _ZN5SPIRV17SPIRVPipeInstBaseD1Ev@Base 0
 _ZN5SPIRV17SPIRVPipeInstBaseD2Ev@Base 0
 _ZN5SPIRV17SPIRVTypeFunction12setWordCountEj@Base 0
 _ZN5SPIRV17SPIRVTypeFunction6decodeERSi@Base 0
 _ZN5SPIRV17SPIRVTypeFunctionD0Ev@Base 0
 _ZN5SPIRV17SPIRVTypeFunctionD1Ev@Base 0
 _ZN5SPIRV17SPIRVTypeFunctionD2Ev@Base 0
 _ZN5SPIRV17castToVoidFuncPtrEPN4llvm8FunctionE@Base 0
 _ZN5SPIRV17dePrefixSPIRVNameEN4llvm9StringRefERNS0_15SmallVectorImplIS1_EE@Base 0
 _ZN5SPIRV17getMDOperandAsIntEPN4llvm6MDNodeEj@Base 0
 _ZN5SPIRV17isMangledTypeHalfENSt7__cxx1112basic_stringIcSt11char_traitsIcESaIcEEE@Base 0
 _ZN5SPIRV17isSupportedTripleEN4llvm6TripleE@Base 0
 _ZN5SPIRV17isValidVectorSizeEj@Base 0
 _ZN5SPIRV17lastFuncParamTypeEN4llvm9StringRefE@Base 0
 _ZN5SPIRV18KPlaceholderPrefixE@Base 0
 _ZN5SPIRV18LLVMToSPIRVDbgTran13transDbgEntryEPKN4llvm6MDNodeE@Base 0
 _ZN5SPIRV18LLVMToSPIRVDbgTran13transDbgScopeEPKN4llvm7DIScopeE@Base 0
 _ZN5SPIRV18LLVMToSPIRVDbgTran13transDebugLocERKN4llvm8DebugLocEPNS_15SPIRVBasicBlockEPNS_16SPIRVInstructionE@Base 0
 _ZN5SPIRV18LLVMToSPIRVDbgTran15transDbgTypeDefEPKN4llvm13DIDerivedTypeE@Base 0
 _ZN5SPIRV18LLVMToSPIRVDbgTran16getDebugInfoNoneEv@Base 0
 _ZN5SPIRV18LLVMToSPIRVDbgTran16transDbgBaseTypeEPKN4llvm11DIBasicTypeE@Base 0
 _ZN5SPIRV18LLVMToSPIRVDbgTran16transDbgEnumTypeEPKN4llvm15DICompositeTypeE@Base 0
 _ZN5SPIRV18LLVMToSPIRVDbgTran16transDbgFileTypeEPKN4llvm6DIFileE@Base 0
 _ZN5SPIRV18LLVMToSPIRVDbgTran16transDbgFunctionEPKN4llvm12DISubprogramE@Base 0
 _ZN5SPIRV18LLVMToSPIRVDbgTran17getGlobalVariableEPKN4llvm16DIGlobalVariableE@Base 0
 _ZN5SPIRV18LLVMToSPIRVDbgTran17transDbgArrayTypeEPKN4llvm15DICompositeTypeE@Base 0
 _ZN5SPIRV18LLVMToSPIRVDbgTran17transDbgEntryImplEPKN4llvm6MDNodeE@Base 0
 _ZN5SPIRV18LLVMToSPIRVDbgTran17transDbgInlinedAtEPKN4llvm10DILocationE@Base 0
 _ZN5SPIRV18LLVMToSPIRVDbgTran17transLocationInfoEv@Base 0
 _ZN5SPIRV18LLVMToSPIRVDbgTran18finalizeDebugValueEPKN4llvm20DbgVariableIntrinsicE@Base 0
 _ZN5SPIRV18LLVMToSPIRVDbgTran18getDebugInfoNoneIdEv@Base 0
 _ZN5SPIRV18LLVMToSPIRVDbgTran18transDbgExpressionEPKN4llvm12DIExpressionE@Base 0
 _ZN5SPIRV18LLVMToSPIRVDbgTran18transDbgMemberTypeEPKN4llvm13DIDerivedTypeE@Base 0
 _ZN5SPIRV18LLVMToSPIRVDbgTran18transDebugMetadataEv@Base 0
 _ZN5SPIRV18LLVMToSPIRVDbgTran19transDbgInheritanceEPKN4llvm13DIDerivedTypeE@Base 0
 _ZN5SPIRV18LLVMToSPIRVDbgTran19transDbgPointerTypeEPKN4llvm13DIDerivedTypeE@Base 0
 _ZN5SPIRV18LLVMToSPIRVDbgTran19transDbgPtrToMemberEPKN4llvm13DIDerivedTypeE@Base 0
 _ZN5SPIRV18LLVMToSPIRVDbgTran20finalizeDebugDeclareEPKN4llvm20DbgVariableIntrinsicE@Base 0
 _ZN5SPIRV18LLVMToSPIRVDbgTran21transDbgCompositeTypeEPKN4llvm15DICompositeTypeE@Base 0
 _ZN5SPIRV18LLVMToSPIRVDbgTran21transDbgImportedEntryEPKN4llvm16DIImportedEntityE@Base 0
 _ZN5SPIRV18LLVMToSPIRVDbgTran21transDbgLocalVariableEPKN4llvm15DILocalVariableE@Base 0
 _ZN5SPIRV18LLVMToSPIRVDbgTran21transDbgQualifiedTypeEPKN4llvm13DIDerivedTypeE@Base 0
 _ZN5SPIRV18LLVMToSPIRVDbgTran22transDbgGlobalVariableEPKN4llvm16DIGlobalVariableE@Base 0
 _ZN5SPIRV18LLVMToSPIRVDbgTran22transDbgSubroutineTypeEPKN4llvm16DISubroutineTypeE@Base 0
 _ZN5SPIRV18LLVMToSPIRVDbgTran22transDbgTemplateParamsEN4llvm24MDTupleTypedArrayWrapperINS1_19DITemplateParameterEEEPKNS_10SPIRVEntryE@Base 0
 _ZN5SPIRV18LLVMToSPIRVDbgTran23transDbgCompilationUnitEPKN4llvm13DICompileUnitE@Base 0
 _ZN5SPIRV18LLVMToSPIRVDbgTran25transDbgTemplateParameterEPKN4llvm19DITemplateParameterE@Base 0
 _ZN5SPIRV18LLVMToSPIRVDbgTran27createDebugValuePlaceholderEPKN4llvm20DbgVariableIntrinsicEPNS_15SPIRVBasicBlockE@Base 0
 _ZN5SPIRV18LLVMToSPIRVDbgTran29createDebugDeclarePlaceholderEPKN4llvm20DbgVariableIntrinsicEPNS_15SPIRVBasicBlockE@Base 0
 _ZN5SPIRV18LLVMToSPIRVDbgTran29transDbgTemplateParameterPackEPKN4llvm24DITemplateValueParameterE@Base 0
 _ZN5SPIRV18LLVMToSPIRVDbgTran33transDbgTemplateTemplateParameterEPKN4llvm24DITemplateValueParameterE@Base 0
 _ZN5SPIRV18LLVMToSPIRVDbgTran8getScopeEPN4llvm7DIScopeE@Base 0
 (optional=templinst)_ZN5SPIRV18LLVMToSPIRVDbgTran9getSourceIN4llvm12DISubprogramEEEPNS_12SPIRVExtInstEPKT_@Base 0
 (optional=templinst)_ZN5SPIRV18LLVMToSPIRVDbgTran9getSourceIN4llvm13DICompileUnitEEEPNS_12SPIRVExtInstEPKT_@Base 0
 (optional=templinst)_ZN5SPIRV18LLVMToSPIRVDbgTran9getSourceIN4llvm13DIDerivedTypeEEEPNS_12SPIRVExtInstEPKT_@Base 0
 (optional=templinst)_ZN5SPIRV18LLVMToSPIRVDbgTran9getSourceIN4llvm15DICompositeTypeEEEPNS_12SPIRVExtInstEPKT_@Base 0
 (optional=templinst)_ZN5SPIRV18LLVMToSPIRVDbgTran9getSourceIN4llvm16DIGlobalVariableEEEPNS_12SPIRVExtInstEPKT_@Base 0
 (optional=templinst)_ZN5SPIRV18LLVMToSPIRVDbgTran9getSourceIN4llvm6DIFileEEEPNS_12SPIRVExtInstEPKT_@Base 0
 (optional=templinst)_ZN5SPIRV18LLVMToSPIRVDbgTran9getSourceIN4llvm7DIScopeEEEPNS_12SPIRVExtInstEPKT_@Base 0
 _ZN5SPIRV18LLVMToSPIRVDbgTran9getVoidTyEv@Base 0
 _ZN5SPIRV18LLVMToSPIRVDbgTranD1Ev@Base 0
 _ZN5SPIRV18LLVMToSPIRVDbgTranD2Ev@Base 0
 _ZN5SPIRV18PreprocessMetadata11runOnModuleERN4llvm6ModuleE@Base 0
 _ZN5SPIRV18PreprocessMetadata21preprocessOCLMetadataEPN4llvm6ModuleEPNS_14SPIRVMDBuilderEPNS_13SPIRVMDWalkerE@Base 0
 _ZN5SPIRV18PreprocessMetadata2IDE@Base 0
 _ZN5SPIRV18PreprocessMetadata31preprocessVectorComputeMetadataEPN4llvm6ModuleEPNS_14SPIRVMDBuilderEPNS_13SPIRVMDWalkerE@Base 0
 _ZN5SPIRV18PreprocessMetadata5visitEPN4llvm6ModuleE@Base 0
 _ZN5SPIRV18PreprocessMetadataD0Ev@Base 0
 _ZN5SPIRV18PreprocessMetadataD1Ev@Base 0
 _ZN5SPIRV18PreprocessMetadataD2Ev@Base 0
 (optional=templinst)_ZN5SPIRV18SPIRVConstantEmptyILN3spv2OpE1EE6decodeERSi@Base 0
 (optional=templinst)_ZN5SPIRV18SPIRVConstantEmptyILN3spv2OpE1EED0Ev@Base 0
 (optional=templinst)_ZN5SPIRV18SPIRVConstantEmptyILN3spv2OpE1EED1Ev@Base 0
 (optional=templinst)_ZN5SPIRV18SPIRVConstantEmptyILN3spv2OpE1EED2Ev@Base 0
 (optional=templinst)_ZN5SPIRV18SPIRVConstantEmptyILN3spv2OpE41EE6decodeERSi@Base 0
 (optional=templinst)_ZN5SPIRV18SPIRVConstantEmptyILN3spv2OpE41EED0Ev@Base 0
 (optional=templinst)_ZN5SPIRV18SPIRVConstantEmptyILN3spv2OpE41EED1Ev@Base 0
 (optional=templinst)_ZN5SPIRV18SPIRVConstantEmptyILN3spv2OpE41EED2Ev@Base 0
 (optional=templinst)_ZN5SPIRV18SPIRVConstantEmptyILN3spv2OpE42EE6decodeERSi@Base 0
 (optional=templinst)_ZN5SPIRV18SPIRVConstantEmptyILN3spv2OpE42EED0Ev@Base 0
 (optional=templinst)_ZN5SPIRV18SPIRVConstantEmptyILN3spv2OpE42EED1Ev@Base 0
 (optional=templinst)_ZN5SPIRV18SPIRVConstantEmptyILN3spv2OpE42EED2Ev@Base 0
 (optional=templinst)_ZN5SPIRV18SPIRVConstantEmptyILN3spv2OpE46EE6decodeERSi@Base 0
 (optional=templinst)_ZN5SPIRV18SPIRVConstantEmptyILN3spv2OpE46EED0Ev@Base 0
 (optional=templinst)_ZN5SPIRV18SPIRVConstantEmptyILN3spv2OpE46EED1Ev@Base 0
 (optional=templinst)_ZN5SPIRV18SPIRVConstantEmptyILN3spv2OpE46EED2Ev@Base 0
 (optional=templinst)_ZN5SPIRV18SPIRVConstantEmptyILN3spv2OpE48EE6decodeERSi@Base 0
 (optional=templinst)_ZN5SPIRV18SPIRVConstantEmptyILN3spv2OpE48EED0Ev@Base 0
 (optional=templinst)_ZN5SPIRV18SPIRVConstantEmptyILN3spv2OpE48EED1Ev@Base 0
 (optional=templinst)_ZN5SPIRV18SPIRVConstantEmptyILN3spv2OpE48EED2Ev@Base 0
 (optional=templinst)_ZN5SPIRV18SPIRVConstantEmptyILN3spv2OpE49EE6decodeERSi@Base 0
 (optional=templinst)_ZN5SPIRV18SPIRVConstantEmptyILN3spv2OpE49EED0Ev@Base 0
 (optional=templinst)_ZN5SPIRV18SPIRVConstantEmptyILN3spv2OpE49EED1Ev@Base 0
 (optional=templinst)_ZN5SPIRV18SPIRVConstantEmptyILN3spv2OpE49EED2Ev@Base 0
 _ZN5SPIRV18SPIRVExecutionMode6decodeERSi@Base 0
 _ZN5SPIRV18SPIRVExecutionModeC1EPNS_10SPIRVEntryEN3spv13ExecutionModeEj@Base 0
 _ZN5SPIRV18SPIRVExecutionModeC2EPNS_10SPIRVEntryEN3spv13ExecutionModeEj@Base 0
 _ZN5SPIRV18SPIRVExecutionModeD0Ev@Base 0
 _ZN5SPIRV18SPIRVExecutionModeD1Ev@Base 0
 _ZN5SPIRV18SPIRVExecutionModeD2Ev@Base 0
 _ZN5SPIRV18SPIRVExtInstImport6decodeERSi@Base 0
 _ZN5SPIRV18SPIRVExtInstImportC1EPNS_11SPIRVModuleEjRKNSt7__cxx1112basic_stringIcSt11char_traitsIcESaIcEEE@Base 0
 _ZN5SPIRV18SPIRVExtInstImportC2EPNS_11SPIRVModuleEjRKNSt7__cxx1112basic_stringIcSt11char_traitsIcESaIcEEE@Base 0
 _ZN5SPIRV18SPIRVExtInstImportD0Ev@Base 0
 _ZN5SPIRV18SPIRVExtInstImportD1Ev@Base 0
 _ZN5SPIRV18SPIRVExtInstImportD2Ev@Base 0
 _ZN5SPIRV18SPIRVGroupDecorate15decorateTargetsEv@Base 0
 _ZN5SPIRV18SPIRVGroupDecorateD0Ev@Base 0
 _ZN5SPIRV18SPIRVGroupDecorateD1Ev@Base 0
 _ZN5SPIRV18SPIRVGroupDecorateD2Ev@Base 0
 _ZN5SPIRV18SPIRVGroupInstBaseD0Ev@Base 0
 _ZN5SPIRV18SPIRVGroupInstBaseD1Ev@Base 0
 _ZN5SPIRV18SPIRVGroupInstBaseD2Ev@Base 0
 _ZN5SPIRV18SPIRVImageInstBaseD0Ev@Base 0
 _ZN5SPIRV18SPIRVImageInstBaseD1Ev@Base 0
 _ZN5SPIRV18SPIRVImageInstBaseD2Ev@Base 0
 (optional=templinst)_ZN5SPIRV18SPIRVInstNoOperandILN3spv2OpE253EE6decodeERSi@Base 0
 (optional=templinst)_ZN5SPIRV18SPIRVInstNoOperandILN3spv2OpE253EED0Ev@Base 0
 (optional=templinst)_ZN5SPIRV18SPIRVInstNoOperandILN3spv2OpE253EED1Ev@Base 0
 (optional=templinst)_ZN5SPIRV18SPIRVInstNoOperandILN3spv2OpE253EED2Ev@Base 0
 (optional=templinst)_ZN5SPIRV18SPIRVInstNoOperandILN3spv2OpE255EE6decodeERSi@Base 0
 (optional=templinst)_ZN5SPIRV18SPIRVInstNoOperandILN3spv2OpE255EED0Ev@Base 0
 (optional=templinst)_ZN5SPIRV18SPIRVInstNoOperandILN3spv2OpE255EED1Ev@Base 0
 (optional=templinst)_ZN5SPIRV18SPIRVInstNoOperandILN3spv2OpE255EED2Ev@Base 0
 _ZN5SPIRV18SPIRVToLLVMDbgTran10getDbgInstEj@Base 0
 _ZN5SPIRV18SPIRVToLLVMDbgTran12transDbgInfoEPKNS_10SPIRVValueEPN4llvm5ValueE@Base 0
 _ZN5SPIRV18SPIRVToLLVMDbgTran12transTypedefEPKNS_12SPIRVExtInstE@Base 0
 _ZN5SPIRV18SPIRVToLLVMDbgTran13SplitFileNameC1ERKNSt7__cxx1112basic_stringIcSt11char_traitsIcESaIcEEE@Base 0
 _ZN5SPIRV18SPIRVToLLVMDbgTran13SplitFileNameC2ERKNSt7__cxx1112basic_stringIcSt11char_traitsIcESaIcEEE@Base 0
 _ZN5SPIRV18SPIRVToLLVMDbgTran13transFunctionEPKNS_12SPIRVExtInstE@Base 0
 _ZN5SPIRV18SPIRVToLLVMDbgTran13transTemplateEPKNS_12SPIRVExtInstE@Base 0
 _ZN5SPIRV18SPIRVToLLVMDbgTran13transTypeEnumEPKNS_12SPIRVExtInstE@Base 0
 _ZN5SPIRV18SPIRVToLLVMDbgTran14transTypeArrayEPKNS_12SPIRVExtInstE@Base 0
 _ZN5SPIRV18SPIRVToLLVMDbgTran14transTypeBasicEPKNS_12SPIRVExtInstE@Base 0
 _ZN5SPIRV18SPIRVToLLVMDbgTran15transDebugScopeEPKNS_16SPIRVInstructionE@Base 0
 _ZN5SPIRV18SPIRVToLLVMDbgTran15transExpressionEPKNS_12SPIRVExtInstE@Base 0
 _ZN5SPIRV18SPIRVToLLVMDbgTran15transTypeMemberEPKNS_12SPIRVExtInstE@Base 0
 _ZN5SPIRV18SPIRVToLLVMDbgTran15transTypeVectorEPKNS_12SPIRVExtInstE@Base 0
 _ZN5SPIRV18SPIRVToLLVMDbgTran16transCompileUnitEPKNS_12SPIRVExtInstE@Base 0
 _ZN5SPIRV18SPIRVToLLVMDbgTran16transInheritanceEPKNS_12SPIRVExtInstE@Base 0
 _ZN5SPIRV18SPIRVToLLVMDbgTran16transTypePointerEPKNS_12SPIRVExtInstE@Base 0
 _ZN5SPIRV18SPIRVToLLVMDbgTran17addDbgInfoVersionEv@Base 0
 _ZN5SPIRV18SPIRVToLLVMDbgTran17transDebugInlinedEPKNS_12SPIRVExtInstE@Base 0
 _ZN5SPIRV18SPIRVToLLVMDbgTran17transFunctionDeclEPKNS_12SPIRVExtInstE@Base 0
 _ZN5SPIRV18SPIRVToLLVMDbgTran17transLexicalBlockEPKNS_12SPIRVExtInstE@Base 0
 _ZN5SPIRV18SPIRVToLLVMDbgTran17transTypeFunctionEPKNS_12SPIRVExtInstE@Base 0
 _ZN5SPIRV18SPIRVToLLVMDbgTran18transDebugInstImplEPKNS_12SPIRVExtInstE@Base 0
 _ZN5SPIRV18SPIRVToLLVMDbgTran18transImportedEntryEPKNS_12SPIRVExtInstE@Base 0
 _ZN5SPIRV18SPIRVToLLVMDbgTran18transLocalVariableEPKNS_12SPIRVExtInstE@Base 0
 _ZN5SPIRV18SPIRVToLLVMDbgTran18transTypeCompositeEPKNS_12SPIRVExtInstE@Base 0
 _ZN5SPIRV18SPIRVToLLVMDbgTran18transTypeQualifierEPKNS_12SPIRVExtInstE@Base 0
 _ZN5SPIRV18SPIRVToLLVMDbgTran19transDebugIntrinsicEPKNS_12SPIRVExtInstEPN4llvm10BasicBlockE@Base 0
 _ZN5SPIRV18SPIRVToLLVMDbgTran19transGlobalVariableEPKNS_12SPIRVExtInstE@Base 0
 _ZN5SPIRV18SPIRVToLLVMDbgTran20transTypePtrToMemberEPKNS_12SPIRVExtInstE@Base 0
 _ZN5SPIRV18SPIRVToLLVMDbgTran22transTemplateParameterEPKNS_12SPIRVExtInstE@Base 0
 _ZN5SPIRV18SPIRVToLLVMDbgTran26transTemplateParameterPackEPKNS_12SPIRVExtInstE@Base 0
 _ZN5SPIRV18SPIRVToLLVMDbgTran30transLexicalBlockDiscriminatorEPKNS_12SPIRVExtInstE@Base 0
 _ZN5SPIRV18SPIRVToLLVMDbgTran30transTemplateTemplateParameterEPKNS_12SPIRVExtInstE@Base 0
 _ZN5SPIRV18SPIRVToLLVMDbgTran7getFileEj@Base 0
 _ZN5SPIRV18SPIRVToLLVMDbgTran8finalizeEv@Base 0
 _ZN5SPIRV18SPIRVToLLVMDbgTran8getScopeEPKNS_10SPIRVEntryE@Base 0
 _ZN5SPIRV18SPIRVToLLVMDbgTran9getDIFileERKNSt7__cxx1112basic_stringIcSt11char_traitsIcESaIcEEE@Base 0
 _ZN5SPIRV18SPIRVToLLVMDbgTran9getStringB5cxx11Ej@Base 0
 _ZN5SPIRV18SPIRVToLLVMDbgTranC1EPNS_11SPIRVModuleEPN4llvm6ModuleEPNS_11SPIRVToLLVME@Base 0
 _ZN5SPIRV18SPIRVToLLVMDbgTranC2EPNS_11SPIRVModuleEPN4llvm6ModuleEPNS_11SPIRVToLLVME@Base 0
 _ZN5SPIRV18SPIRVToLLVMDbgTranD1Ev@Base 0
 _ZN5SPIRV18SPIRVToLLVMDbgTranD2Ev@Base 0
 _ZN5SPIRV18SPIRVUseTextFormatE@Base 0
 _ZN5SPIRV18SPIRVVectorShuffle12setWordCountEj@Base 0
 _ZN5SPIRV18SPIRVVectorShuffle6decodeERSi@Base 0
 _ZN5SPIRV18SPIRVVectorShuffleD0Ev@Base 0
 _ZN5SPIRV18SPIRVVectorShuffleD1Ev@Base 0
 _ZN5SPIRV18SPIRVVectorShuffleD2Ev@Base 0
 _ZN5SPIRV18getAccessQualifierEN4llvm9StringRefE@Base 0
 _ZN5SPIRV18getArgAsDecorationEPN4llvm8CallInstEj@Base 0
 _ZN5SPIRV18getMDOperandAsTypeEPN4llvm6MDNodeEj@Base 0
 _ZN5SPIRV18getMDOperandOrNullEPN4llvm6MDNodeEj@Base 0
 _ZN5SPIRV18getOCLClkEventTypeEPN4llvm6ModuleE@Base 0
 _ZN5SPIRV18getPipeStorageTypeEPN4llvm6ModuleE@Base 0
 _ZN5SPIRV18getVoidFuncPtrTypeEPN4llvm6ModuleEj@Base 0
 _ZN5SPIRV19SPIRVAsmTargetINTEL6decodeERSi@Base 0
 _ZN5SPIRV19SPIRVAsmTargetINTELD0Ev@Base 0
 _ZN5SPIRV19SPIRVAsmTargetINTELD1Ev@Base 0
 _ZN5SPIRV19SPIRVAsmTargetINTELD2Ev@Base 0
 _ZN5SPIRV19SPIRVAtomicInstBase10setOpWordsERKSt6vectorIjSaIjEE@Base 0
 _ZN5SPIRV19SPIRVAtomicInstBaseD0Ev@Base 0
 _ZN5SPIRV19SPIRVAtomicInstBaseD1Ev@Base 0
 _ZN5SPIRV19SPIRVAtomicInstBaseD2Ev@Base 0
 _ZN5SPIRV19SPIRVControlBarrier11getOperandsEv@Base 0
 _ZN5SPIRV19SPIRVControlBarrier12setWordCountEj@Base 0
 _ZN5SPIRV19SPIRVControlBarrier6decodeERSi@Base 0
 _ZN5SPIRV19SPIRVControlBarrierD0Ev@Base 0
 _ZN5SPIRV19SPIRVControlBarrierD1Ev@Base 0
 _ZN5SPIRV19SPIRVControlBarrierD2Ev@Base 0
 _ZN5SPIRV19SPIRVDevEnqInstBaseD0Ev@Base 0
 _ZN5SPIRV19SPIRVDevEnqInstBaseD1Ev@Base 0
 _ZN5SPIRV19SPIRVDevEnqInstBaseD2Ev@Base 0
 _ZN5SPIRV19SPIRVGroupAsyncCopy11getOperandsEv@Base 0
 _ZN5SPIRV19SPIRVGroupAsyncCopy6decodeERSi@Base 0
 _ZN5SPIRV19SPIRVGroupAsyncCopyD0Ev@Base 0
 _ZN5SPIRV19SPIRVGroupAsyncCopyD1Ev@Base 0
 _ZN5SPIRV19SPIRVGroupAsyncCopyD2Ev@Base 0
 _ZN5SPIRV19SPIRVLowerConstExpr11runOnModuleERN4llvm6ModuleE@Base 0
 _ZN5SPIRV19SPIRVLowerConstExpr2IDE@Base 0
 _ZN5SPIRV19SPIRVLowerConstExpr5visitEPN4llvm6ModuleE@Base 0
 _ZN5SPIRV19SPIRVLowerConstExprD0Ev@Base 0
 _ZN5SPIRV19SPIRVLowerConstExprD1Ev@Base 0
 _ZN5SPIRV19SPIRVLowerConstExprD2Ev@Base 0
 _ZN5SPIRV19SPIRVMemberDecorate12setWordCountEj@Base 0
 _ZN5SPIRV19SPIRVMemberDecorate6decodeERSi@Base 0
 _ZN5SPIRV19SPIRVMemberDecorateD0Ev@Base 0
 _ZN5SPIRV19SPIRVMemberDecorateD1Ev@Base 0
 _ZN5SPIRV19SPIRVMemberDecorateD2Ev@Base 0
 _ZN5SPIRV19SPIRVRegularizeLLVM10regularizeEv@Base 0
 _ZN5SPIRV19SPIRVRegularizeLLVM11runOnModuleERN4llvm6ModuleE@Base 0
 _ZN5SPIRV19SPIRVRegularizeLLVM12lowerFuncPtrEPN4llvm6ModuleE@Base 0
 _ZN5SPIRV19SPIRVRegularizeLLVM12lowerFuncPtrEPN4llvm8FunctionEN3spv2OpE@Base 0
 _ZN5SPIRV19SPIRVRegularizeLLVM2IDE@Base 0
 _ZN5SPIRV19SPIRVRegularizeLLVMD0Ev@Base 0
 _ZN5SPIRV19SPIRVRegularizeLLVMD1Ev@Base 0
 _ZN5SPIRV19SPIRVRegularizeLLVMD2Ev@Base 0
 _ZN5SPIRV19SPIRVSelectionMerge6decodeERSi@Base 0
 _ZN5SPIRV19SPIRVSelectionMergeD0Ev@Base 0
 _ZN5SPIRV19SPIRVSelectionMergeD1Ev@Base 0
 _ZN5SPIRV19SPIRVSelectionMergeD2Ev@Base 0
 _ZN5SPIRV19getOrCreateFunctionEPN4llvm6ModuleEPNS0_4TypeENS0_8ArrayRefIS4_EENS0_9StringRefEPNS_21BuiltinFuncMangleInfoEPNS0_13AttributeListEb@Base 0
 _ZN5SPIRV19getSPIRVExtFuncNameB5cxx11ENS_19SPIRVExtInstSetKindEjN4llvm9StringRefE@Base 0
 _ZN5SPIRV19isMangledTypeSignedEc@Base 0
 _ZN5SPIRV19isSPIRVConstantNameEN4llvm9StringRefE@Base 0
 (optional=templinst)_ZN5SPIRV19mutateCallInstSPIRVEPN4llvm6ModuleEPNS0_8CallInstESt8functionIFNSt7__cxx1112basic_stringIcSt11char_traitsIcESaIcEEES4_RSt6vectorIPNS0_5ValueESaISE_EEEEPNS0_13AttributeListE@Base 0
 (optional=templinst)_ZN5SPIRV19mutateCallInstSPIRVEPN4llvm6ModuleEPNS0_8CallInstESt8functionIFNSt7__cxx1112basic_stringIcSt11char_traitsIcESaIcEEES4_RSt6vectorIPNS0_5ValueESaISE_EERPNS0_4TypeEEES5_IFPNS0_11InstructionES4_EEPNS0_13AttributeListE@Base 0
 _ZN5SPIRV20SPIRVAccessChainBaseD0Ev@Base 0
 _ZN5SPIRV20SPIRVAccessChainBaseD1Ev@Base 0
 _ZN5SPIRV20SPIRVAccessChainBaseD2Ev@Base 0
 _ZN5SPIRV20SPIRVAssumeTrueINTEL12setWordCountEj@Base 0
 _ZN5SPIRV20SPIRVAssumeTrueINTEL6decodeERSi@Base 0
 _ZN5SPIRV20SPIRVAssumeTrueINTELD0Ev@Base 0
 _ZN5SPIRV20SPIRVAssumeTrueINTELD1Ev@Base 0
 _ZN5SPIRV20SPIRVAssumeTrueINTELD2Ev@Base 0
 _ZN5SPIRV20SPIRVCompositeInsert12setWordCountEj@Base 0
 _ZN5SPIRV20SPIRVCompositeInsert6decodeERSi@Base 0
 _ZN5SPIRV20SPIRVCompositeInsertD0Ev@Base 0
 _ZN5SPIRV20SPIRVCompositeInsertD1Ev@Base 0
 _ZN5SPIRV20SPIRVCompositeInsertD2Ev@Base 0
 _ZN5SPIRV20SPIRVConstantSampler6decodeERSi@Base 0
 _ZN5SPIRV20SPIRVConstantSamplerD0Ev@Base 0
 _ZN5SPIRV20SPIRVConstantSamplerD1Ev@Base 0
 _ZN5SPIRV20SPIRVConstantSamplerD2Ev@Base 0
 _ZN5SPIRV20SPIRVCopyMemorySized12setWordCountEj@Base 0
 _ZN5SPIRV20SPIRVCopyMemorySized6decodeERSi@Base 0
 _ZN5SPIRV20SPIRVCopyMemorySizedD0Ev@Base 0
 _ZN5SPIRV20SPIRVCopyMemorySizedD1Ev@Base 0
 _ZN5SPIRV20SPIRVCopyMemorySizedD2Ev@Base 0
 _ZN5SPIRV20SPIRVDecorateGenericC1EN3spv2OpE@Base 0
 _ZN5SPIRV20SPIRVDecorateGenericC1EN3spv2OpEjNS1_10DecorationEPNS_10SPIRVEntryE@Base 0
 _ZN5SPIRV20SPIRVDecorateGenericC1EN3spv2OpEjNS1_10DecorationEPNS_10SPIRVEntryEj@Base 0
 _ZN5SPIRV20SPIRVDecorateGenericC1EN3spv2OpEjNS1_10DecorationEPNS_10SPIRVEntryEjj@Base 0
 _ZN5SPIRV20SPIRVDecorateGenericC2EN3spv2OpE@Base 0
 _ZN5SPIRV20SPIRVDecorateGenericC2EN3spv2OpEjNS1_10DecorationEPNS_10SPIRVEntryE@Base 0
 _ZN5SPIRV20SPIRVDecorateGenericC2EN3spv2OpEjNS1_10DecorationEPNS_10SPIRVEntryEj@Base 0
 _ZN5SPIRV20SPIRVDecorateGenericC2EN3spv2OpEjNS1_10DecorationEPNS_10SPIRVEntryEjj@Base 0
 _ZN5SPIRV20SPIRVDecorateGenericD0Ev@Base 0
 _ZN5SPIRV20SPIRVDecorateGenericD1Ev@Base 0
 _ZN5SPIRV20SPIRVDecorateGenericD2Ev@Base 0
 _ZN5SPIRV20SPIRVDecorationGroup6decodeERSi@Base 0
 _ZN5SPIRV20SPIRVDecorationGroupD0Ev@Base 0
 _ZN5SPIRV20SPIRVDecorationGroupD1Ev@Base 0
 _ZN5SPIRV20SPIRVDecorationGroupD2Ev@Base 0
 (optional=templinst)_ZN5SPIRV20SPIRVEntryOpCodeOnlyILN3spv2OpE56EE6decodeERSi@Base 0
 (optional=templinst)_ZN5SPIRV20SPIRVEntryOpCodeOnlyILN3spv2OpE56EED0Ev@Base 0
 (optional=templinst)_ZN5SPIRV20SPIRVEntryOpCodeOnlyILN3spv2OpE56EED1Ev@Base 0
 (optional=templinst)_ZN5SPIRV20SPIRVEntryOpCodeOnlyILN3spv2OpE56EED2Ev@Base 0
 _ZN5SPIRV20SPIRVLowerSPIRBlocks11runOnModuleERN4llvm6ModuleE@Base 0
 _ZN5SPIRV20SPIRVLowerSPIRBlocks14lowerBlockBindEPN4llvm8FunctionE@Base 0
 _ZN5SPIRV20SPIRVLowerSPIRBlocks17eliminateDeadArgsEv@Base 0
 _ZN5SPIRV20SPIRVLowerSPIRBlocks19lowerGetBlockInvokeEPN4llvm8CallInstEPNS1_8FunctionE@Base 0
 _ZN5SPIRV20SPIRVLowerSPIRBlocks20lowerGetBlockContextEPN4llvm8CallInstEPNS1_5ValueE@Base 0
 _ZN5SPIRV20SPIRVLowerSPIRBlocks21eraseUselessFunctionsEv@Base 0
 _ZN5SPIRV20SPIRVLowerSPIRBlocks22eraseUselessGlobalVarsEv@Base 0
 _ZN5SPIRV20SPIRVLowerSPIRBlocks28getBlockInvokeFuncAndContextEPN4llvm5ValueEPPNS1_8FunctionEPS3_S7_S7_@Base 0
 _ZN5SPIRV20SPIRVLowerSPIRBlocks2IDE@Base 0
 (arch=armel armhf mips64el ppc64el riscv64 sparc64)_ZN5SPIRV20SPIRVLowerSPIRBlocks5eraseEPN4llvm8FunctionE@Base 0
 _ZN5SPIRV20SPIRVLowerSPIRBlocksD0Ev@Base 0
 _ZN5SPIRV20SPIRVLowerSPIRBlocksD1Ev@Base 0
 _ZN5SPIRV20SPIRVLowerSPIRBlocksD2Ev@Base 0
 _ZN5SPIRV20SPIRVSourceExtension6decodeERSi@Base 0
 _ZN5SPIRV20SPIRVSourceExtensionC1EPNS_11SPIRVModuleERKNSt7__cxx1112basic_stringIcSt11char_traitsIcESaIcEEE@Base 0
 _ZN5SPIRV20SPIRVSourceExtensionC2EPNS_11SPIRVModuleERKNSt7__cxx1112basic_stringIcSt11char_traitsIcESaIcEEE@Base 0
 _ZN5SPIRV20SPIRVSourceExtensionD0Ev@Base 0
 _ZN5SPIRV20SPIRVSourceExtensionD1Ev@Base 0
 _ZN5SPIRV20SPIRVSourceExtensionD2Ev@Base 0
 _ZN5SPIRV20SPIRVTypeDeviceEvent6decodeERSi@Base 0
 _ZN5SPIRV20SPIRVTypeDeviceEventD0Ev@Base 0
 _ZN5SPIRV20SPIRVTypeDeviceEventD1Ev@Base 0
 _ZN5SPIRV20SPIRVTypeDeviceEventD2Ev@Base 0
 _ZN5SPIRV20SPIRVTypePipeStorage6decodeERSi@Base 0
 _ZN5SPIRV20SPIRVTypePipeStorageD0Ev@Base 0
 _ZN5SPIRV20SPIRVTypePipeStorageD1Ev@Base 0
 _ZN5SPIRV20SPIRVTypePipeStorageD2Ev@Base 0
 _ZN5SPIRV20getImageBaseTypeNameB5cxx11EN4llvm9StringRefE@Base 0
 _ZN5SPIRV20getMDOperandAsMDNodeEPN4llvm6MDNodeEj@Base 0
 _ZN5SPIRV20getMDOperandAsStringB5cxx11EPN4llvm6MDNodeEj@Base 0
 _ZN5SPIRV20isDecoratedSPIRVFuncEPKN4llvm8FunctionERNS0_9StringRefE@Base 0
 _ZN5SPIRV20mapLLVMTypeToOCLTypeB5cxx11EPKN4llvm4TypeEb@Base 0
 _ZN5SPIRV20mapPostfixToDecorateEN4llvm9StringRefEPNS_10SPIRVEntryE@Base 0
 _ZN5SPIRV21BuiltinFuncMangleInfo15addUnsignedArgsEii@Base 0
 _ZN5SPIRV21BuiltinFuncMangleInfo17getTypeMangleInfoEi@Base 0
 _ZN5SPIRV21BuiltinFuncMangleInfo4initEN4llvm9StringRefE@Base 0
 _ZN5SPIRV21BuiltinFuncMangleInfoD0Ev@Base 0
 _ZN5SPIRV21BuiltinFuncMangleInfoD1Ev@Base 0
 _ZN5SPIRV21BuiltinFuncMangleInfoD2Ev@Base 0
 _ZN5SPIRV21SPIRVCompositeExtract12setWordCountEj@Base 0
 _ZN5SPIRV21SPIRVCompositeExtract6decodeERSi@Base 0
 _ZN5SPIRV21SPIRVCompositeExtractD0Ev@Base 0
 _ZN5SPIRV21SPIRVCompositeExtractD1Ev@Base 0
 _ZN5SPIRV21SPIRVCompositeExtractD2Ev@Base 0
 _ZN5SPIRV21SPIRVEntryNoIdGenericD0Ev@Base 0
 _ZN5SPIRV21SPIRVEntryNoIdGenericD1Ev@Base 0
 _ZN5SPIRV21SPIRVEntryNoIdGenericD2Ev@Base 0
 _ZN5SPIRV21SPIRVInstTemplateBase10getOperandEj@Base 0
 _ZN5SPIRV21SPIRVInstTemplateBase10setOpWordsERKSt6vectorIjSaIjEE@Base 0
 _ZN5SPIRV21SPIRVInstTemplateBase11getOperandsEv@Base 0
 _ZN5SPIRV21SPIRVInstTemplateBase12setWordCountEj@Base 0
 _ZN5SPIRV21SPIRVInstTemplateBase21setOpWordsAndValidateERKSt6vectorIjSaIjEE@Base 0
 _ZN5SPIRV21SPIRVInstTemplateBase4initEv@Base 0
 _ZN5SPIRV21SPIRVInstTemplateBase6decodeERSi@Base 0
 _ZN5SPIRV21SPIRVInstTemplateBase8initImplEN3spv2OpEbjbjjj@Base 0
 _ZN5SPIRV21SPIRVInstTemplateBaseD0Ev@Base 0
 _ZN5SPIRV21SPIRVInstTemplateBaseD1Ev@Base 0
 _ZN5SPIRV21SPIRVInstTemplateBaseD2Ev@Base 0
 _ZN5SPIRV21SPIRVLoopControlINTEL12setWordCountEj@Base 0
 _ZN5SPIRV21SPIRVLoopControlINTEL6decodeERSi@Base 0
 _ZN5SPIRV21SPIRVLoopControlINTELD0Ev@Base 0
 _ZN5SPIRV21SPIRVLoopControlINTELD1Ev@Base 0
 _ZN5SPIRV21SPIRVLoopControlINTELD2Ev@Base 0
 _ZN5SPIRV21SPIRVTypeSampledImage6decodeERSi@Base 0
 _ZN5SPIRV21SPIRVTypeSampledImageD0Ev@Base 0
 _ZN5SPIRV21SPIRVTypeSampledImageD1Ev@Base 0
 _ZN5SPIRV21SPIRVTypeSampledImageD2Ev@Base 0
 _ZN5SPIRV21decorateSPIRVFunctionERKNSt7__cxx1112basic_stringIcSt11char_traitsIcESaIcEEE@Base 0
 _ZN5SPIRV21eraseUselessFunctionsEPN4llvm6ModuleE@Base 0
 _ZN5SPIRV21getBankBitsFromStringEN4llvm9StringRefE@Base 0
 _ZN5SPIRV21getNamedMDAsStringSetEPN4llvm6ModuleERKNSt7__cxx1112basic_stringIcSt11char_traitsIcESaIcEEE@Base 0
 _ZN5SPIRV21getOCLClkEventPtrTypeEPN4llvm6ModuleE@Base 0
 _ZN5SPIRV21getOCLNullClkEventPtrEPN4llvm6ModuleE@Base 0
 _ZN5SPIRV21hasFunctionPointerArgEPN4llvm8FunctionERPNS0_8ArgumentE@Base 0
 _ZN5SPIRV21isFunctionPointerTypeEPN4llvm4TypeE@Base 0
 _ZN5SPIRV21isLastFuncParamSignedEN4llvm9StringRefE@Base 0
 _ZN5SPIRV21isMangledTypeUnsignedEc@Base 0
 _ZN5SPIRV21mapOCLTypeNameToSPIRVB5cxx11EN4llvm9StringRefES1_@Base 0
 _ZN5SPIRV21mapSPIRVTypeToOCLTypeB5cxx11EPNS_9SPIRVTypeEb@Base 0
 _ZN5SPIRV22SPIRVArbFloatIntelInstD0Ev@Base 0
 _ZN5SPIRV22SPIRVArbFloatIntelInstD1Ev@Base 0
 _ZN5SPIRV22SPIRVArbFloatIntelInstD2Ev@Base 0
 _ZN5SPIRV22SPIRVBranchConditional12setWordCountEj@Base 0
 _ZN5SPIRV22SPIRVBranchConditional6decodeERSi@Base 0
 _ZN5SPIRV22SPIRVBranchConditionalD0Ev@Base 0
 _ZN5SPIRV22SPIRVBranchConditionalD1Ev@Base 0
 _ZN5SPIRV22SPIRVBranchConditionalD2Ev@Base 0
 _ZN5SPIRV22SPIRVFunctionParameter11foreachAttrESt8functionIFvN3spv26FunctionParameterAttributeEEE@Base 0
 _ZN5SPIRV22SPIRVFunctionParameter6decodeERSi@Base 0
 _ZN5SPIRV22SPIRVFunctionParameterC1EPNS_9SPIRVTypeEjPNS_13SPIRVFunctionEj@Base 0
 _ZN5SPIRV22SPIRVFunctionParameterC2EPNS_9SPIRVTypeEjPNS_13SPIRVFunctionEj@Base 0
 _ZN5SPIRV22SPIRVFunctionParameterD0Ev@Base 0
 _ZN5SPIRV22SPIRVFunctionParameterD1Ev@Base 0
 _ZN5SPIRV22SPIRVFunctionParameterD2Ev@Base 0
 _ZN5SPIRV22SPIRVLowerBoolValidateE@Base 0
 _ZN5SPIRV22SPIRVMatrixTimesMatrix11getOperandsEv@Base 0
 _ZN5SPIRV22SPIRVMatrixTimesMatrix12setWordCountEj@Base 0
 _ZN5SPIRV22SPIRVMatrixTimesMatrix6decodeERSi@Base 0
 _ZN5SPIRV22SPIRVMatrixTimesMatrixD0Ev@Base 0
 _ZN5SPIRV22SPIRVMatrixTimesMatrixD1Ev@Base 0
 _ZN5SPIRV22SPIRVMatrixTimesMatrixD2Ev@Base 0
 _ZN5SPIRV22SPIRVMatrixTimesScalar11getOperandsEv@Base 0
 _ZN5SPIRV22SPIRVMatrixTimesScalar12setWordCountEj@Base 0
 _ZN5SPIRV22SPIRVMatrixTimesScalar6decodeERSi@Base 0
 _ZN5SPIRV22SPIRVMatrixTimesScalarD0Ev@Base 0
 _ZN5SPIRV22SPIRVMatrixTimesScalarD1Ev@Base 0
 _ZN5SPIRV22SPIRVMatrixTimesScalarD2Ev@Base 0
 _ZN5SPIRV22SPIRVMatrixTimesVector11getOperandsEv@Base 0
 _ZN5SPIRV22SPIRVMatrixTimesVector12setWordCountEj@Base 0
 _ZN5SPIRV22SPIRVMatrixTimesVector6decodeERSi@Base 0
 _ZN5SPIRV22SPIRVMatrixTimesVectorD0Ev@Base 0
 _ZN5SPIRV22SPIRVMatrixTimesVectorD1Ev@Base 0
 _ZN5SPIRV22SPIRVMatrixTimesVectorD2Ev@Base 0
 (optional=templinst)_ZN5SPIRV22SPIRVOpaqueGenericTypeILN3spv2OpE34EED0Ev@Base 0
 (optional=templinst)_ZN5SPIRV22SPIRVOpaqueGenericTypeILN3spv2OpE34EED1Ev@Base 0
 (optional=templinst)_ZN5SPIRV22SPIRVOpaqueGenericTypeILN3spv2OpE34EED2Ev@Base 0
 (optional=templinst)_ZN5SPIRV22SPIRVOpaqueGenericTypeILN3spv2OpE36EED0Ev@Base 0
 (optional=templinst)_ZN5SPIRV22SPIRVOpaqueGenericTypeILN3spv2OpE36EED1Ev@Base 0
 (optional=templinst)_ZN5SPIRV22SPIRVOpaqueGenericTypeILN3spv2OpE36EED2Ev@Base 0
 _ZN5SPIRV22SPIRVTypeOpaqueGeneric6decodeERSi@Base 0
 _ZN5SPIRV22SPIRVTypeOpaqueGenericD0Ev@Base 0
 _ZN5SPIRV22SPIRVTypeOpaqueGenericD1Ev@Base 0
 _ZN5SPIRV22SPIRVTypeOpaqueGenericD2Ev@Base 0
 _ZN5SPIRV22SPIRVTypeVmeImageINTEL6decodeERSi@Base 0
 _ZN5SPIRV22SPIRVTypeVmeImageINTELD0Ev@Base 0
 _ZN5SPIRV22SPIRVTypeVmeImageINTELD1Ev@Base 0
 _ZN5SPIRV22SPIRVTypeVmeImageINTELD2Ev@Base 0
 _ZN5SPIRV22SPIRVVectorTimesMatrix11getOperandsEv@Base 0
 _ZN5SPIRV22SPIRVVectorTimesMatrix12setWordCountEj@Base 0
 _ZN5SPIRV22SPIRVVectorTimesMatrix6decodeERSi@Base 0
 _ZN5SPIRV22SPIRVVectorTimesMatrixD0Ev@Base 0
 _ZN5SPIRV22SPIRVVectorTimesMatrixD1Ev@Base 0
 _ZN5SPIRV22SPIRVVectorTimesMatrixD2Ev@Base 0
 _ZN5SPIRV22SPIRVVectorTimesScalar11getOperandsEv@Base 0
 _ZN5SPIRV22SPIRVVectorTimesScalar12setWordCountEj@Base 0
 _ZN5SPIRV22SPIRVVectorTimesScalar6decodeERSi@Base 0
 _ZN5SPIRV22SPIRVVectorTimesScalarD0Ev@Base 0
 _ZN5SPIRV22SPIRVVectorTimesScalarD1Ev@Base 0
 _ZN5SPIRV22SPIRVVectorTimesScalarD2Ev@Base 0
 _ZN5SPIRV22hasAccessQualifiedNameEN4llvm9StringRefE@Base 0
 _ZN5SPIRV22isNonMangledOCLBuiltinEN4llvm9StringRefE@Base 0
 (optional=templinst)_ZN5SPIRV23SPIRVAccessChainGenericILN3spv2OpE65ELj4EED0Ev@Base 0
 (optional=templinst)_ZN5SPIRV23SPIRVAccessChainGenericILN3spv2OpE65ELj4EED1Ev@Base 0
 (optional=templinst)_ZN5SPIRV23SPIRVAccessChainGenericILN3spv2OpE65ELj4EED2Ev@Base 0
 (optional=templinst)_ZN5SPIRV23SPIRVAccessChainGenericILN3spv2OpE66ELj4EED0Ev@Base 0
 (optional=templinst)_ZN5SPIRV23SPIRVAccessChainGenericILN3spv2OpE66ELj4EED1Ev@Base 0
 (optional=templinst)_ZN5SPIRV23SPIRVAccessChainGenericILN3spv2OpE66ELj4EED2Ev@Base 0
 (optional=templinst)_ZN5SPIRV23SPIRVAccessChainGenericILN3spv2OpE67ELj5EED0Ev@Base 0
 (optional=templinst)_ZN5SPIRV23SPIRVAccessChainGenericILN3spv2OpE67ELj5EED1Ev@Base 0
 (optional=templinst)_ZN5SPIRV23SPIRVAccessChainGenericILN3spv2OpE67ELj5EED2Ev@Base 0
 (optional=templinst)_ZN5SPIRV23SPIRVAccessChainGenericILN3spv2OpE70ELj5EED0Ev@Base 0
 (optional=templinst)_ZN5SPIRV23SPIRVAccessChainGenericILN3spv2OpE70ELj5EED1Ev@Base 0
 (optional=templinst)_ZN5SPIRV23SPIRVAccessChainGenericILN3spv2OpE70ELj5EED2Ev@Base 0
 _ZN5SPIRV23SPIRVCompositeConstruct12setWordCountEj@Base 0
 _ZN5SPIRV23SPIRVCompositeConstruct6decodeERSi@Base 0
 _ZN5SPIRV23SPIRVCompositeConstructD0Ev@Base 0
 _ZN5SPIRV23SPIRVCompositeConstructD1Ev@Base 0
 _ZN5SPIRV23SPIRVCompositeConstructD2Ev@Base 0
 (optional=templinst)_ZN5SPIRV23SPIRVEntryUnimplementedILN3spv2OpE0EE6decodeERSi@Base 0
 (optional=templinst)_ZN5SPIRV23SPIRVEntryUnimplementedILN3spv2OpE0EED0Ev@Base 0
 (optional=templinst)_ZN5SPIRV23SPIRVEntryUnimplementedILN3spv2OpE0EED1Ev@Base 0
 (optional=templinst)_ZN5SPIRV23SPIRVEntryUnimplementedILN3spv2OpE0EED2Ev@Base 0
 (optional=templinst)_ZN5SPIRV23SPIRVEntryUnimplementedILN3spv2OpE100EE6decodeERSi@Base 0
 (optional=templinst)_ZN5SPIRV23SPIRVEntryUnimplementedILN3spv2OpE100EED0Ev@Base 0
 (optional=templinst)_ZN5SPIRV23SPIRVEntryUnimplementedILN3spv2OpE100EED1Ev@Base 0
 (optional=templinst)_ZN5SPIRV23SPIRVEntryUnimplementedILN3spv2OpE100EED2Ev@Base 0
 (optional=templinst)_ZN5SPIRV23SPIRVEntryUnimplementedILN3spv2OpE116EE6decodeERSi@Base 0
 (optional=templinst)_ZN5SPIRV23SPIRVEntryUnimplementedILN3spv2OpE116EED0Ev@Base 0
 (optional=templinst)_ZN5SPIRV23SPIRVEntryUnimplementedILN3spv2OpE116EED1Ev@Base 0
 (optional=templinst)_ZN5SPIRV23SPIRVEntryUnimplementedILN3spv2OpE116EED2Ev@Base 0
 (optional=templinst)_ZN5SPIRV23SPIRVEntryUnimplementedILN3spv2OpE147EE6decodeERSi@Base 0
 (optional=templinst)_ZN5SPIRV23SPIRVEntryUnimplementedILN3spv2OpE147EED0Ev@Base 0
 (optional=templinst)_ZN5SPIRV23SPIRVEntryUnimplementedILN3spv2OpE147EED1Ev@Base 0
 (optional=templinst)_ZN5SPIRV23SPIRVEntryUnimplementedILN3spv2OpE147EED2Ev@Base 0
 (optional=templinst)_ZN5SPIRV23SPIRVEntryUnimplementedILN3spv2OpE149EE6decodeERSi@Base 0
 (optional=templinst)_ZN5SPIRV23SPIRVEntryUnimplementedILN3spv2OpE149EED0Ev@Base 0
 (optional=templinst)_ZN5SPIRV23SPIRVEntryUnimplementedILN3spv2OpE149EED1Ev@Base 0
 (optional=templinst)_ZN5SPIRV23SPIRVEntryUnimplementedILN3spv2OpE149EED2Ev@Base 0
 (optional=templinst)_ZN5SPIRV23SPIRVEntryUnimplementedILN3spv2OpE150EE6decodeERSi@Base 0
 (optional=templinst)_ZN5SPIRV23SPIRVEntryUnimplementedILN3spv2OpE150EED0Ev@Base 0
 (optional=templinst)_ZN5SPIRV23SPIRVEntryUnimplementedILN3spv2OpE150EED1Ev@Base 0
 (optional=templinst)_ZN5SPIRV23SPIRVEntryUnimplementedILN3spv2OpE150EED2Ev@Base 0
 (optional=templinst)_ZN5SPIRV23SPIRVEntryUnimplementedILN3spv2OpE151EE6decodeERSi@Base 0
 (optional=templinst)_ZN5SPIRV23SPIRVEntryUnimplementedILN3spv2OpE151EED0Ev@Base 0
 (optional=templinst)_ZN5SPIRV23SPIRVEntryUnimplementedILN3spv2OpE151EED1Ev@Base 0
 (optional=templinst)_ZN5SPIRV23SPIRVEntryUnimplementedILN3spv2OpE151EED2Ev@Base 0
 (optional=templinst)_ZN5SPIRV23SPIRVEntryUnimplementedILN3spv2OpE152EE6decodeERSi@Base 0
 (optional=templinst)_ZN5SPIRV23SPIRVEntryUnimplementedILN3spv2OpE152EED0Ev@Base 0
 (optional=templinst)_ZN5SPIRV23SPIRVEntryUnimplementedILN3spv2OpE152EED1Ev@Base 0
 (optional=templinst)_ZN5SPIRV23SPIRVEntryUnimplementedILN3spv2OpE152EED2Ev@Base 0
 (optional=templinst)_ZN5SPIRV23SPIRVEntryUnimplementedILN3spv2OpE201EE6decodeERSi@Base 0
 (optional=templinst)_ZN5SPIRV23SPIRVEntryUnimplementedILN3spv2OpE201EED0Ev@Base 0
 (optional=templinst)_ZN5SPIRV23SPIRVEntryUnimplementedILN3spv2OpE201EED1Ev@Base 0
 (optional=templinst)_ZN5SPIRV23SPIRVEntryUnimplementedILN3spv2OpE201EED2Ev@Base 0
 (optional=templinst)_ZN5SPIRV23SPIRVEntryUnimplementedILN3spv2OpE202EE6decodeERSi@Base 0
 (optional=templinst)_ZN5SPIRV23SPIRVEntryUnimplementedILN3spv2OpE202EED0Ev@Base 0
 (optional=templinst)_ZN5SPIRV23SPIRVEntryUnimplementedILN3spv2OpE202EED1Ev@Base 0
 (optional=templinst)_ZN5SPIRV23SPIRVEntryUnimplementedILN3spv2OpE202EED2Ev@Base 0
 (optional=templinst)_ZN5SPIRV23SPIRVEntryUnimplementedILN3spv2OpE203EE6decodeERSi@Base 0
 (optional=templinst)_ZN5SPIRV23SPIRVEntryUnimplementedILN3spv2OpE203EED0Ev@Base 0
 (optional=templinst)_ZN5SPIRV23SPIRVEntryUnimplementedILN3spv2OpE203EED1Ev@Base 0
 (optional=templinst)_ZN5SPIRV23SPIRVEntryUnimplementedILN3spv2OpE203EED2Ev@Base 0
 (optional=templinst)_ZN5SPIRV23SPIRVEntryUnimplementedILN3spv2OpE207EE6decodeERSi@Base 0
 (optional=templinst)_ZN5SPIRV23SPIRVEntryUnimplementedILN3spv2OpE207EED0Ev@Base 0
 (optional=templinst)_ZN5SPIRV23SPIRVEntryUnimplementedILN3spv2OpE207EED1Ev@Base 0
 (optional=templinst)_ZN5SPIRV23SPIRVEntryUnimplementedILN3spv2OpE207EED2Ev@Base 0
 (optional=templinst)_ZN5SPIRV23SPIRVEntryUnimplementedILN3spv2OpE208EE6decodeERSi@Base 0
 (optional=templinst)_ZN5SPIRV23SPIRVEntryUnimplementedILN3spv2OpE208EED0Ev@Base 0
 (optional=templinst)_ZN5SPIRV23SPIRVEntryUnimplementedILN3spv2OpE208EED1Ev@Base 0
 (optional=templinst)_ZN5SPIRV23SPIRVEntryUnimplementedILN3spv2OpE208EED2Ev@Base 0
 (optional=templinst)_ZN5SPIRV23SPIRVEntryUnimplementedILN3spv2OpE209EE6decodeERSi@Base 0
 (optional=templinst)_ZN5SPIRV23SPIRVEntryUnimplementedILN3spv2OpE209EED0Ev@Base 0
 (optional=templinst)_ZN5SPIRV23SPIRVEntryUnimplementedILN3spv2OpE209EED1Ev@Base 0
 (optional=templinst)_ZN5SPIRV23SPIRVEntryUnimplementedILN3spv2OpE209EED2Ev@Base 0
 (optional=templinst)_ZN5SPIRV23SPIRVEntryUnimplementedILN3spv2OpE210EE6decodeERSi@Base 0
 (optional=templinst)_ZN5SPIRV23SPIRVEntryUnimplementedILN3spv2OpE210EED0Ev@Base 0
 (optional=templinst)_ZN5SPIRV23SPIRVEntryUnimplementedILN3spv2OpE210EED1Ev@Base 0
 (optional=templinst)_ZN5SPIRV23SPIRVEntryUnimplementedILN3spv2OpE210EED2Ev@Base 0
 (optional=templinst)_ZN5SPIRV23SPIRVEntryUnimplementedILN3spv2OpE211EE6decodeERSi@Base 0
 (optional=templinst)_ZN5SPIRV23SPIRVEntryUnimplementedILN3spv2OpE211EED0Ev@Base 0
 (optional=templinst)_ZN5SPIRV23SPIRVEntryUnimplementedILN3spv2OpE211EED1Ev@Base 0
 (optional=templinst)_ZN5SPIRV23SPIRVEntryUnimplementedILN3spv2OpE211EED2Ev@Base 0
 (optional=templinst)_ZN5SPIRV23SPIRVEntryUnimplementedILN3spv2OpE212EE6decodeERSi@Base 0
 (optional=templinst)_ZN5SPIRV23SPIRVEntryUnimplementedILN3spv2OpE212EED0Ev@Base 0
 (optional=templinst)_ZN5SPIRV23SPIRVEntryUnimplementedILN3spv2OpE212EED1Ev@Base 0
 (optional=templinst)_ZN5SPIRV23SPIRVEntryUnimplementedILN3spv2OpE212EED2Ev@Base 0
 (optional=templinst)_ZN5SPIRV23SPIRVEntryUnimplementedILN3spv2OpE213EE6decodeERSi@Base 0
 (optional=templinst)_ZN5SPIRV23SPIRVEntryUnimplementedILN3spv2OpE213EED0Ev@Base 0
 (optional=templinst)_ZN5SPIRV23SPIRVEntryUnimplementedILN3spv2OpE213EED1Ev@Base 0
 (optional=templinst)_ZN5SPIRV23SPIRVEntryUnimplementedILN3spv2OpE213EED2Ev@Base 0
 (optional=templinst)_ZN5SPIRV23SPIRVEntryUnimplementedILN3spv2OpE214EE6decodeERSi@Base 0
 (optional=templinst)_ZN5SPIRV23SPIRVEntryUnimplementedILN3spv2OpE214EED0Ev@Base 0
 (optional=templinst)_ZN5SPIRV23SPIRVEntryUnimplementedILN3spv2OpE214EED1Ev@Base 0
 (optional=templinst)_ZN5SPIRV23SPIRVEntryUnimplementedILN3spv2OpE214EED2Ev@Base 0
 (optional=templinst)_ZN5SPIRV23SPIRVEntryUnimplementedILN3spv2OpE215EE6decodeERSi@Base 0
 (optional=templinst)_ZN5SPIRV23SPIRVEntryUnimplementedILN3spv2OpE215EED0Ev@Base 0
 (optional=templinst)_ZN5SPIRV23SPIRVEntryUnimplementedILN3spv2OpE215EED1Ev@Base 0
 (optional=templinst)_ZN5SPIRV23SPIRVEntryUnimplementedILN3spv2OpE215EED2Ev@Base 0
 (optional=templinst)_ZN5SPIRV23SPIRVEntryUnimplementedILN3spv2OpE218EE6decodeERSi@Base 0
 (optional=templinst)_ZN5SPIRV23SPIRVEntryUnimplementedILN3spv2OpE218EED0Ev@Base 0
 (optional=templinst)_ZN5SPIRV23SPIRVEntryUnimplementedILN3spv2OpE218EED1Ev@Base 0
 (optional=templinst)_ZN5SPIRV23SPIRVEntryUnimplementedILN3spv2OpE218EED2Ev@Base 0
 (optional=templinst)_ZN5SPIRV23SPIRVEntryUnimplementedILN3spv2OpE219EE6decodeERSi@Base 0
 (optional=templinst)_ZN5SPIRV23SPIRVEntryUnimplementedILN3spv2OpE219EED0Ev@Base 0
 (optional=templinst)_ZN5SPIRV23SPIRVEntryUnimplementedILN3spv2OpE219EED1Ev@Base 0
 (optional=templinst)_ZN5SPIRV23SPIRVEntryUnimplementedILN3spv2OpE219EED2Ev@Base 0
 (optional=templinst)_ZN5SPIRV23SPIRVEntryUnimplementedILN3spv2OpE220EE6decodeERSi@Base 0
 (optional=templinst)_ZN5SPIRV23SPIRVEntryUnimplementedILN3spv2OpE220EED0Ev@Base 0
 (optional=templinst)_ZN5SPIRV23SPIRVEntryUnimplementedILN3spv2OpE220EED1Ev@Base 0
 (optional=templinst)_ZN5SPIRV23SPIRVEntryUnimplementedILN3spv2OpE220EED2Ev@Base 0
 (optional=templinst)_ZN5SPIRV23SPIRVEntryUnimplementedILN3spv2OpE221EE6decodeERSi@Base 0
 (optional=templinst)_ZN5SPIRV23SPIRVEntryUnimplementedILN3spv2OpE221EED0Ev@Base 0
 (optional=templinst)_ZN5SPIRV23SPIRVEntryUnimplementedILN3spv2OpE221EED1Ev@Base 0
 (optional=templinst)_ZN5SPIRV23SPIRVEntryUnimplementedILN3spv2OpE221EED2Ev@Base 0
 (optional=templinst)_ZN5SPIRV23SPIRVEntryUnimplementedILN3spv2OpE252EE6decodeERSi@Base 0
 (optional=templinst)_ZN5SPIRV23SPIRVEntryUnimplementedILN3spv2OpE252EED0Ev@Base 0
 (optional=templinst)_ZN5SPIRV23SPIRVEntryUnimplementedILN3spv2OpE252EED1Ev@Base 0
 (optional=templinst)_ZN5SPIRV23SPIRVEntryUnimplementedILN3spv2OpE252EED2Ev@Base 0
 (optional=templinst)_ZN5SPIRV23SPIRVEntryUnimplementedILN3spv2OpE29EE6decodeERSi@Base 0
 (optional=templinst)_ZN5SPIRV23SPIRVEntryUnimplementedILN3spv2OpE29EED0Ev@Base 0
 (optional=templinst)_ZN5SPIRV23SPIRVEntryUnimplementedILN3spv2OpE29EED1Ev@Base 0
 (optional=templinst)_ZN5SPIRV23SPIRVEntryUnimplementedILN3spv2OpE29EED2Ev@Base 0
 (optional=templinst)_ZN5SPIRV23SPIRVEntryUnimplementedILN3spv2OpE2EE6decodeERSi@Base 0
 (optional=templinst)_ZN5SPIRV23SPIRVEntryUnimplementedILN3spv2OpE2EED0Ev@Base 0
 (optional=templinst)_ZN5SPIRV23SPIRVEntryUnimplementedILN3spv2OpE2EED1Ev@Base 0
 (optional=templinst)_ZN5SPIRV23SPIRVEntryUnimplementedILN3spv2OpE2EED2Ev@Base 0
 (optional=templinst)_ZN5SPIRV23SPIRVEntryUnimplementedILN3spv2OpE305EE6decodeERSi@Base 0
 (optional=templinst)_ZN5SPIRV23SPIRVEntryUnimplementedILN3spv2OpE305EED0Ev@Base 0
 (optional=templinst)_ZN5SPIRV23SPIRVEntryUnimplementedILN3spv2OpE305EED1Ev@Base 0
 (optional=templinst)_ZN5SPIRV23SPIRVEntryUnimplementedILN3spv2OpE305EED2Ev@Base 0
 (optional=templinst)_ZN5SPIRV23SPIRVEntryUnimplementedILN3spv2OpE306EE6decodeERSi@Base 0
 (optional=templinst)_ZN5SPIRV23SPIRVEntryUnimplementedILN3spv2OpE306EED0Ev@Base 0
 (optional=templinst)_ZN5SPIRV23SPIRVEntryUnimplementedILN3spv2OpE306EED1Ev@Base 0
 (optional=templinst)_ZN5SPIRV23SPIRVEntryUnimplementedILN3spv2OpE306EED2Ev@Base 0
 (optional=templinst)_ZN5SPIRV23SPIRVEntryUnimplementedILN3spv2OpE307EE6decodeERSi@Base 0
 (optional=templinst)_ZN5SPIRV23SPIRVEntryUnimplementedILN3spv2OpE307EED0Ev@Base 0
 (optional=templinst)_ZN5SPIRV23SPIRVEntryUnimplementedILN3spv2OpE307EED1Ev@Base 0
 (optional=templinst)_ZN5SPIRV23SPIRVEntryUnimplementedILN3spv2OpE307EED2Ev@Base 0
 (optional=templinst)_ZN5SPIRV23SPIRVEntryUnimplementedILN3spv2OpE308EE6decodeERSi@Base 0
 (optional=templinst)_ZN5SPIRV23SPIRVEntryUnimplementedILN3spv2OpE308EED0Ev@Base 0
 (optional=templinst)_ZN5SPIRV23SPIRVEntryUnimplementedILN3spv2OpE308EED1Ev@Base 0
 (optional=templinst)_ZN5SPIRV23SPIRVEntryUnimplementedILN3spv2OpE308EED2Ev@Base 0
 (optional=templinst)_ZN5SPIRV23SPIRVEntryUnimplementedILN3spv2OpE309EE6decodeERSi@Base 0
 (optional=templinst)_ZN5SPIRV23SPIRVEntryUnimplementedILN3spv2OpE309EED0Ev@Base 0
 (optional=templinst)_ZN5SPIRV23SPIRVEntryUnimplementedILN3spv2OpE309EED1Ev@Base 0
 (optional=templinst)_ZN5SPIRV23SPIRVEntryUnimplementedILN3spv2OpE309EED2Ev@Base 0
 (optional=templinst)_ZN5SPIRV23SPIRVEntryUnimplementedILN3spv2OpE310EE6decodeERSi@Base 0
 (optional=templinst)_ZN5SPIRV23SPIRVEntryUnimplementedILN3spv2OpE310EED0Ev@Base 0
 (optional=templinst)_ZN5SPIRV23SPIRVEntryUnimplementedILN3spv2OpE310EED1Ev@Base 0
 (optional=templinst)_ZN5SPIRV23SPIRVEntryUnimplementedILN3spv2OpE310EED2Ev@Base 0
 (optional=templinst)_ZN5SPIRV23SPIRVEntryUnimplementedILN3spv2OpE311EE6decodeERSi@Base 0
 (optional=templinst)_ZN5SPIRV23SPIRVEntryUnimplementedILN3spv2OpE311EED0Ev@Base 0
 (optional=templinst)_ZN5SPIRV23SPIRVEntryUnimplementedILN3spv2OpE311EED1Ev@Base 0
 (optional=templinst)_ZN5SPIRV23SPIRVEntryUnimplementedILN3spv2OpE311EED2Ev@Base 0
 (optional=templinst)_ZN5SPIRV23SPIRVEntryUnimplementedILN3spv2OpE312EE6decodeERSi@Base 0
 (optional=templinst)_ZN5SPIRV23SPIRVEntryUnimplementedILN3spv2OpE312EED0Ev@Base 0
 (optional=templinst)_ZN5SPIRV23SPIRVEntryUnimplementedILN3spv2OpE312EED1Ev@Base 0
 (optional=templinst)_ZN5SPIRV23SPIRVEntryUnimplementedILN3spv2OpE312EED2Ev@Base 0
 (optional=templinst)_ZN5SPIRV23SPIRVEntryUnimplementedILN3spv2OpE313EE6decodeERSi@Base 0
 (optional=templinst)_ZN5SPIRV23SPIRVEntryUnimplementedILN3spv2OpE313EED0Ev@Base 0
 (optional=templinst)_ZN5SPIRV23SPIRVEntryUnimplementedILN3spv2OpE313EED1Ev@Base 0
 (optional=templinst)_ZN5SPIRV23SPIRVEntryUnimplementedILN3spv2OpE313EED2Ev@Base 0
 (optional=templinst)_ZN5SPIRV23SPIRVEntryUnimplementedILN3spv2OpE314EE6decodeERSi@Base 0
 (optional=templinst)_ZN5SPIRV23SPIRVEntryUnimplementedILN3spv2OpE314EED0Ev@Base 0
 (optional=templinst)_ZN5SPIRV23SPIRVEntryUnimplementedILN3spv2OpE314EED1Ev@Base 0
 (optional=templinst)_ZN5SPIRV23SPIRVEntryUnimplementedILN3spv2OpE314EED2Ev@Base 0
 (optional=templinst)_ZN5SPIRV23SPIRVEntryUnimplementedILN3spv2OpE315EE6decodeERSi@Base 0
 (optional=templinst)_ZN5SPIRV23SPIRVEntryUnimplementedILN3spv2OpE315EED0Ev@Base 0
 (optional=templinst)_ZN5SPIRV23SPIRVEntryUnimplementedILN3spv2OpE315EED1Ev@Base 0
 (optional=templinst)_ZN5SPIRV23SPIRVEntryUnimplementedILN3spv2OpE315EED2Ev@Base 0
 (optional=templinst)_ZN5SPIRV23SPIRVEntryUnimplementedILN3spv2OpE316EE6decodeERSi@Base 0
 (optional=templinst)_ZN5SPIRV23SPIRVEntryUnimplementedILN3spv2OpE316EED0Ev@Base 0
 (optional=templinst)_ZN5SPIRV23SPIRVEntryUnimplementedILN3spv2OpE316EED1Ev@Base 0
 (optional=templinst)_ZN5SPIRV23SPIRVEntryUnimplementedILN3spv2OpE316EED2Ev@Base 0
 (optional=templinst)_ZN5SPIRV23SPIRVEntryUnimplementedILN3spv2OpE317EE6decodeERSi@Base 0
 (optional=templinst)_ZN5SPIRV23SPIRVEntryUnimplementedILN3spv2OpE317EED0Ev@Base 0
 (optional=templinst)_ZN5SPIRV23SPIRVEntryUnimplementedILN3spv2OpE317EED1Ev@Base 0
 (optional=templinst)_ZN5SPIRV23SPIRVEntryUnimplementedILN3spv2OpE317EED2Ev@Base 0
 (optional=templinst)_ZN5SPIRV23SPIRVEntryUnimplementedILN3spv2OpE60EE6decodeERSi@Base 0
 (optional=templinst)_ZN5SPIRV23SPIRVEntryUnimplementedILN3spv2OpE60EED0Ev@Base 0
 (optional=templinst)_ZN5SPIRV23SPIRVEntryUnimplementedILN3spv2OpE60EED1Ev@Base 0
 (optional=templinst)_ZN5SPIRV23SPIRVEntryUnimplementedILN3spv2OpE60EED2Ev@Base 0
 (optional=templinst)_ZN5SPIRV23SPIRVEntryUnimplementedILN3spv2OpE68EE6decodeERSi@Base 0
 (optional=templinst)_ZN5SPIRV23SPIRVEntryUnimplementedILN3spv2OpE68EED0Ev@Base 0
 (optional=templinst)_ZN5SPIRV23SPIRVEntryUnimplementedILN3spv2OpE68EED1Ev@Base 0
 (optional=templinst)_ZN5SPIRV23SPIRVEntryUnimplementedILN3spv2OpE68EED2Ev@Base 0
 (optional=templinst)_ZN5SPIRV23SPIRVEntryUnimplementedILN3spv2OpE89EE6decodeERSi@Base 0
 (optional=templinst)_ZN5SPIRV23SPIRVEntryUnimplementedILN3spv2OpE89EED0Ev@Base 0
 (optional=templinst)_ZN5SPIRV23SPIRVEntryUnimplementedILN3spv2OpE89EED1Ev@Base 0
 (optional=templinst)_ZN5SPIRV23SPIRVEntryUnimplementedILN3spv2OpE89EED2Ev@Base 0
 (optional=templinst)_ZN5SPIRV23SPIRVEntryUnimplementedILN3spv2OpE90EE6decodeERSi@Base 0
 (optional=templinst)_ZN5SPIRV23SPIRVEntryUnimplementedILN3spv2OpE90EED0Ev@Base 0
 (optional=templinst)_ZN5SPIRV23SPIRVEntryUnimplementedILN3spv2OpE90EED1Ev@Base 0
 (optional=templinst)_ZN5SPIRV23SPIRVEntryUnimplementedILN3spv2OpE90EED2Ev@Base 0
 (optional=templinst)_ZN5SPIRV23SPIRVEntryUnimplementedILN3spv2OpE91EE6decodeERSi@Base 0
 (optional=templinst)_ZN5SPIRV23SPIRVEntryUnimplementedILN3spv2OpE91EED0Ev@Base 0
 (optional=templinst)_ZN5SPIRV23SPIRVEntryUnimplementedILN3spv2OpE91EED1Ev@Base 0
 (optional=templinst)_ZN5SPIRV23SPIRVEntryUnimplementedILN3spv2OpE91EED2Ev@Base 0
 (optional=templinst)_ZN5SPIRV23SPIRVEntryUnimplementedILN3spv2OpE92EE6decodeERSi@Base 0
 (optional=templinst)_ZN5SPIRV23SPIRVEntryUnimplementedILN3spv2OpE92EED0Ev@Base 0
 (optional=templinst)_ZN5SPIRV23SPIRVEntryUnimplementedILN3spv2OpE92EED1Ev@Base 0
 (optional=templinst)_ZN5SPIRV23SPIRVEntryUnimplementedILN3spv2OpE92EED2Ev@Base 0
 (optional=templinst)_ZN5SPIRV23SPIRVEntryUnimplementedILN3spv2OpE93EE6decodeERSi@Base 0
 (optional=templinst)_ZN5SPIRV23SPIRVEntryUnimplementedILN3spv2OpE93EED0Ev@Base 0
 (optional=templinst)_ZN5SPIRV23SPIRVEntryUnimplementedILN3spv2OpE93EED1Ev@Base 0
 (optional=templinst)_ZN5SPIRV23SPIRVEntryUnimplementedILN3spv2OpE93EED2Ev@Base 0
 (optional=templinst)_ZN5SPIRV23SPIRVEntryUnimplementedILN3spv2OpE94EE6decodeERSi@Base 0
 (optional=templinst)_ZN5SPIRV23SPIRVEntryUnimplementedILN3spv2OpE94EED0Ev@Base 0
 (optional=templinst)_ZN5SPIRV23SPIRVEntryUnimplementedILN3spv2OpE94EED1Ev@Base 0
 (optional=templinst)_ZN5SPIRV23SPIRVEntryUnimplementedILN3spv2OpE94EED2Ev@Base 0
 (optional=templinst)_ZN5SPIRV23SPIRVEntryUnimplementedILN3spv2OpE95EE6decodeERSi@Base 0
 (optional=templinst)_ZN5SPIRV23SPIRVEntryUnimplementedILN3spv2OpE95EED0Ev@Base 0
 (optional=templinst)_ZN5SPIRV23SPIRVEntryUnimplementedILN3spv2OpE95EED1Ev@Base 0
 (optional=templinst)_ZN5SPIRV23SPIRVEntryUnimplementedILN3spv2OpE95EED2Ev@Base 0
 (optional=templinst)_ZN5SPIRV23SPIRVEntryUnimplementedILN3spv2OpE96EE6decodeERSi@Base 0
 (optional=templinst)_ZN5SPIRV23SPIRVEntryUnimplementedILN3spv2OpE96EED0Ev@Base 0
 (optional=templinst)_ZN5SPIRV23SPIRVEntryUnimplementedILN3spv2OpE96EED1Ev@Base 0
 (optional=templinst)_ZN5SPIRV23SPIRVEntryUnimplementedILN3spv2OpE96EED2Ev@Base 0
 (optional=templinst)_ZN5SPIRV23SPIRVEntryUnimplementedILN3spv2OpE97EE6decodeERSi@Base 0
 (optional=templinst)_ZN5SPIRV23SPIRVEntryUnimplementedILN3spv2OpE97EED0Ev@Base 0
 (optional=templinst)_ZN5SPIRV23SPIRVEntryUnimplementedILN3spv2OpE97EED1Ev@Base 0
 (optional=templinst)_ZN5SPIRV23SPIRVEntryUnimplementedILN3spv2OpE97EED2Ev@Base 0
 _ZN5SPIRV23SPIRVTypeForwardPointer6decodeERSi@Base 0
 _ZN5SPIRV23SPIRVTypeForwardPointerD0Ev@Base 0
 _ZN5SPIRV23SPIRVTypeForwardPointerD1Ev@Base 0
 _ZN5SPIRV23SPIRVTypeForwardPointerD2Ev@Base 0
 _ZN5SPIRV23addIntelFPGADecorationsEPNS_10SPIRVEntryERSt6vectorISt4pairIN3spv10DecorationENSt7__cxx1112basic_stringIcSt11char_traitsIcESaIcEEEESaISC_EE@Base 0
 _ZN5SPIRV23getOCLTypePrimitiveEnumEN4llvm9StringRefE@Base 0
 _ZN5SPIRV23getPostfixForReturnTypeB5cxx11EPKN4llvm4TypeEb@Base 0
 _ZN5SPIRV23getPostfixForReturnTypeB5cxx11EPN4llvm8CallInstEb@Base 0
 _ZN5SPIRV23undecorateSPIRVFunctionEN4llvm9StringRefE@Base 0
 _ZN5SPIRV24SPIRVConstantPipeStorage6decodeERSi@Base 0
 _ZN5SPIRV24SPIRVConstantPipeStorageD0Ev@Base 0
 _ZN5SPIRV24SPIRVConstantPipeStorageD1Ev@Base 0
 _ZN5SPIRV24SPIRVConstantPipeStorageD2Ev@Base 0
 _ZN5SPIRV24SPIRVDecorateLinkageAttrD0Ev@Base 0
 _ZN5SPIRV24SPIRVDecorateLinkageAttrD1Ev@Base 0
 _ZN5SPIRV24SPIRVDecorateLinkageAttrD2Ev@Base 0
 (optional=templinst)_ZN5SPIRV24SPIRVDecorateStrAttrBaseILN3spv10DecorationE5635EEC1EPNS_10SPIRVEntryERKNSt7__cxx1112basic_stringIcSt11char_traitsIcESaIcEEE@Base 0
 (optional=templinst)_ZN5SPIRV24SPIRVDecorateStrAttrBaseILN3spv10DecorationE5635EEC2EPNS_10SPIRVEntryERKNSt7__cxx1112basic_stringIcSt11char_traitsIcESaIcEEE@Base 0
 (optional=templinst)_ZN5SPIRV24SPIRVDecorateStrAttrBaseILN3spv10DecorationE5635EED0Ev@Base 0
 (optional=templinst)_ZN5SPIRV24SPIRVDecorateStrAttrBaseILN3spv10DecorationE5635EED1Ev@Base 0
 (optional=templinst)_ZN5SPIRV24SPIRVDecorateStrAttrBaseILN3spv10DecorationE5635EED2Ev@Base 0
 (optional=templinst)_ZN5SPIRV24SPIRVDecorateStrAttrBaseILN3spv10DecorationE5826EED0Ev@Base 0
 (optional=templinst)_ZN5SPIRV24SPIRVDecorateStrAttrBaseILN3spv10DecorationE5826EED1Ev@Base 0
 (optional=templinst)_ZN5SPIRV24SPIRVDecorateStrAttrBaseILN3spv10DecorationE5826EED2Ev@Base 0
 _ZN5SPIRV24SPIRVEnableStepExpansionE@Base 0
 _ZN5SPIRV24SPIRVExpectINTELInstBaseD0Ev@Base 0
 _ZN5SPIRV24SPIRVExpectINTELInstBaseD1Ev@Base 0
 _ZN5SPIRV24SPIRVExpectINTELInstBaseD2Ev@Base 0
 (optional=templinst)_ZN5SPIRV24SPIRVFunctionCallGenericILN3spv2OpE12ELj5EE12setWordCountEj@Base 0
 (optional=templinst)_ZN5SPIRV24SPIRVFunctionCallGenericILN3spv2OpE12ELj5EED0Ev@Base 0
 (optional=templinst)_ZN5SPIRV24SPIRVFunctionCallGenericILN3spv2OpE12ELj5EED1Ev@Base 0
 (optional=templinst)_ZN5SPIRV24SPIRVFunctionCallGenericILN3spv2OpE12ELj5EED2Ev@Base 0
 (optional=templinst)_ZN5SPIRV24SPIRVFunctionCallGenericILN3spv2OpE5601ELj4EE12setWordCountEj@Base 0
 (optional=templinst)_ZN5SPIRV24SPIRVFunctionCallGenericILN3spv2OpE5601ELj4EED0Ev@Base 0
 (optional=templinst)_ZN5SPIRV24SPIRVFunctionCallGenericILN3spv2OpE5601ELj4EED1Ev@Base 0
 (optional=templinst)_ZN5SPIRV24SPIRVFunctionCallGenericILN3spv2OpE5601ELj4EED2Ev@Base 0
 (optional=templinst)_ZN5SPIRV24SPIRVFunctionCallGenericILN3spv2OpE57ELj4EE12setWordCountEj@Base 0
 (optional=templinst)_ZN5SPIRV24SPIRVFunctionCallGenericILN3spv2OpE57ELj4EED0Ev@Base 0
 (optional=templinst)_ZN5SPIRV24SPIRVFunctionCallGenericILN3spv2OpE57ELj4EED1Ev@Base 0
 (optional=templinst)_ZN5SPIRV24SPIRVFunctionCallGenericILN3spv2OpE57ELj4EED2Ev@Base 0
 _ZN5SPIRV24SPIRVGroupMemberDecorate15decorateTargetsEv@Base 0
 _ZN5SPIRV24SPIRVGroupMemberDecorateD0Ev@Base 0
 _ZN5SPIRV24SPIRVGroupMemberDecorateD1Ev@Base 0
 _ZN5SPIRV24SPIRVGroupMemberDecorateD2Ev@Base 0
 _ZN5SPIRV24SPIRVPipeStorageInstBaseD0Ev@Base 0
 _ZN5SPIRV24SPIRVPipeStorageInstBaseD1Ev@Base 0
 _ZN5SPIRV24SPIRVPipeStorageInstBaseD2Ev@Base 0
 _ZN5SPIRV24SPIRVVectorInsertDynamic6decodeERSi@Base 0
 _ZN5SPIRV24SPIRVVectorInsertDynamicD0Ev@Base 0
 _ZN5SPIRV24SPIRVVectorInsertDynamicD1Ev@Base 0
 _ZN5SPIRV24SPIRVVectorInsertDynamicD2Ev@Base 0
 _ZN5SPIRV24createSpecConstantOpInstEPNS_16SPIRVInstructionE@Base 0
 _ZN5SPIRV24getOrCreateOpaquePtrTypeEPN4llvm6ModuleERKNSt7__cxx1112basic_stringIcSt11char_traitsIcESaIcEEEj@Base 0
 _ZN5SPIRV24getSPIRVImageTypeFromOCLEPN4llvm6ModuleEPNS0_4TypeE@Base 0
 _ZN5SPIRV25LLVMParallelAccessIndices10initializeEv@Base 0
 _ZN5SPIRV25SPIRVFPGARegINTELInstBaseD0Ev@Base 0
 _ZN5SPIRV25SPIRVFPGARegINTELInstBaseD1Ev@Base 0
 _ZN5SPIRV25SPIRVFPGARegINTELInstBaseD2Ev@Base 0
 _ZN5SPIRV25SPIRVGroupDecorateGeneric12setWordCountEj@Base 0
 _ZN5SPIRV25SPIRVGroupDecorateGeneric6decodeERSi@Base 0
 _ZN5SPIRV25SPIRVLowerMemmoveValidateE@Base 0
 (optional=templinst)_ZN5SPIRV25SPIRVSubgroupAvcINTELTypeILN3spv2OpE5701EED0Ev@Base 0
 (optional=templinst)_ZN5SPIRV25SPIRVSubgroupAvcINTELTypeILN3spv2OpE5701EED1Ev@Base 0
 (optional=templinst)_ZN5SPIRV25SPIRVSubgroupAvcINTELTypeILN3spv2OpE5701EED2Ev@Base 0
 (optional=templinst)_ZN5SPIRV25SPIRVSubgroupAvcINTELTypeILN3spv2OpE5702EED0Ev@Base 0
 (optional=templinst)_ZN5SPIRV25SPIRVSubgroupAvcINTELTypeILN3spv2OpE5702EED1Ev@Base 0
 (optional=templinst)_ZN5SPIRV25SPIRVSubgroupAvcINTELTypeILN3spv2OpE5702EED2Ev@Base 0
 (optional=templinst)_ZN5SPIRV25SPIRVSubgroupAvcINTELTypeILN3spv2OpE5703EED0Ev@Base 0
 (optional=templinst)_ZN5SPIRV25SPIRVSubgroupAvcINTELTypeILN3spv2OpE5703EED1Ev@Base 0
 (optional=templinst)_ZN5SPIRV25SPIRVSubgroupAvcINTELTypeILN3spv2OpE5703EED2Ev@Base 0
 (optional=templinst)_ZN5SPIRV25SPIRVSubgroupAvcINTELTypeILN3spv2OpE5704EED0Ev@Base 0
 (optional=templinst)_ZN5SPIRV25SPIRVSubgroupAvcINTELTypeILN3spv2OpE5704EED1Ev@Base 0
 (optional=templinst)_ZN5SPIRV25SPIRVSubgroupAvcINTELTypeILN3spv2OpE5704EED2Ev@Base 0
 (optional=templinst)_ZN5SPIRV25SPIRVSubgroupAvcINTELTypeILN3spv2OpE5705EED0Ev@Base 0
 (optional=templinst)_ZN5SPIRV25SPIRVSubgroupAvcINTELTypeILN3spv2OpE5705EED1Ev@Base 0
 (optional=templinst)_ZN5SPIRV25SPIRVSubgroupAvcINTELTypeILN3spv2OpE5705EED2Ev@Base 0
 (optional=templinst)_ZN5SPIRV25SPIRVSubgroupAvcINTELTypeILN3spv2OpE5706EED0Ev@Base 0
 (optional=templinst)_ZN5SPIRV25SPIRVSubgroupAvcINTELTypeILN3spv2OpE5706EED1Ev@Base 0
 (optional=templinst)_ZN5SPIRV25SPIRVSubgroupAvcINTELTypeILN3spv2OpE5706EED2Ev@Base 0
 (optional=templinst)_ZN5SPIRV25SPIRVSubgroupAvcINTELTypeILN3spv2OpE5707EED0Ev@Base 0
 (optional=templinst)_ZN5SPIRV25SPIRVSubgroupAvcINTELTypeILN3spv2OpE5707EED1Ev@Base 0
 (optional=templinst)_ZN5SPIRV25SPIRVSubgroupAvcINTELTypeILN3spv2OpE5707EED2Ev@Base 0
 (optional=templinst)_ZN5SPIRV25SPIRVSubgroupAvcINTELTypeILN3spv2OpE5708EED0Ev@Base 0
 (optional=templinst)_ZN5SPIRV25SPIRVSubgroupAvcINTELTypeILN3spv2OpE5708EED1Ev@Base 0
 (optional=templinst)_ZN5SPIRV25SPIRVSubgroupAvcINTELTypeILN3spv2OpE5708EED2Ev@Base 0
 (optional=templinst)_ZN5SPIRV25SPIRVSubgroupAvcINTELTypeILN3spv2OpE5709EED0Ev@Base 0
 (optional=templinst)_ZN5SPIRV25SPIRVSubgroupAvcINTELTypeILN3spv2OpE5709EED1Ev@Base 0
 (optional=templinst)_ZN5SPIRV25SPIRVSubgroupAvcINTELTypeILN3spv2OpE5709EED2Ev@Base 0
 (optional=templinst)_ZN5SPIRV25SPIRVSubgroupAvcINTELTypeILN3spv2OpE5710EED0Ev@Base 0
 (optional=templinst)_ZN5SPIRV25SPIRVSubgroupAvcINTELTypeILN3spv2OpE5710EED1Ev@Base 0
 (optional=templinst)_ZN5SPIRV25SPIRVSubgroupAvcINTELTypeILN3spv2OpE5710EED2Ev@Base 0
 (optional=templinst)_ZN5SPIRV25SPIRVSubgroupAvcINTELTypeILN3spv2OpE5711EED0Ev@Base 0
 (optional=templinst)_ZN5SPIRV25SPIRVSubgroupAvcINTELTypeILN3spv2OpE5711EED1Ev@Base 0
 (optional=templinst)_ZN5SPIRV25SPIRVSubgroupAvcINTELTypeILN3spv2OpE5711EED2Ev@Base 0
 (optional=templinst)_ZN5SPIRV25SPIRVSubgroupAvcINTELTypeILN3spv2OpE5712EED0Ev@Base 0
 (optional=templinst)_ZN5SPIRV25SPIRVSubgroupAvcINTELTypeILN3spv2OpE5712EED1Ev@Base 0
 (optional=templinst)_ZN5SPIRV25SPIRVSubgroupAvcINTELTypeILN3spv2OpE5712EED2Ev@Base 0
 _ZN5SPIRV25SPIRVTypeSubgroupAvcINTEL6decodeERSi@Base 0
 _ZN5SPIRV25SPIRVTypeSubgroupAvcINTELD0Ev@Base 0
 _ZN5SPIRV25SPIRVTypeSubgroupAvcINTELD1Ev@Base 0
 _ZN5SPIRV25SPIRVTypeSubgroupAvcINTELD2Ev@Base 0
 _ZN5SPIRV25SPIRVVectorExtractDynamic6decodeERSi@Base 0
 _ZN5SPIRV25SPIRVVectorExtractDynamicD0Ev@Base 0
 _ZN5SPIRV25SPIRVVectorExtractDynamicD1Ev@Base 0
 _ZN5SPIRV25SPIRVVectorExtractDynamicD2Ev@Base 0
 _ZN5SPIRV25getAccessQualifierPostfixEN3spv15AccessQualifierE@Base 0
 _ZN5SPIRV25isSpecConstantOpAllowedOpEN3spv2OpE@Base 0
 (optional=templinst)_ZN5SPIRV26SPIRVConstantCompositeBaseILN3spv2OpE44EE12setWordCountEj@Base 0
 (optional=templinst)_ZN5SPIRV26SPIRVConstantCompositeBaseILN3spv2OpE44EE6decodeERSi@Base 0
 (optional=templinst)_ZN5SPIRV26SPIRVConstantCompositeBaseILN3spv2OpE44EED0Ev@Base 0
 (optional=templinst)_ZN5SPIRV26SPIRVConstantCompositeBaseILN3spv2OpE44EED1Ev@Base 0
 (optional=templinst)_ZN5SPIRV26SPIRVConstantCompositeBaseILN3spv2OpE44EED2Ev@Base 0
 (optional=templinst)_ZN5SPIRV26SPIRVConstantCompositeBaseILN3spv2OpE51EE12setWordCountEj@Base 0
 (optional=templinst)_ZN5SPIRV26SPIRVConstantCompositeBaseILN3spv2OpE51EE6decodeERSi@Base 0
 (optional=templinst)_ZN5SPIRV26SPIRVConstantCompositeBaseILN3spv2OpE51EED0Ev@Base 0
 (optional=templinst)_ZN5SPIRV26SPIRVConstantCompositeBaseILN3spv2OpE51EED1Ev@Base 0
 (optional=templinst)_ZN5SPIRV26SPIRVConstantCompositeBaseILN3spv2OpE51EED2Ev@Base 0
 _ZN5SPIRV26SPIRVLowerSaddWithOverflow11runOnModuleERN4llvm6ModuleE@Base 0
 _ZN5SPIRV26SPIRVLowerSaddWithOverflow18visitIntrinsicInstERN4llvm8CallInstE@Base 0
 _ZN5SPIRV26SPIRVLowerSaddWithOverflow2IDE@Base 0
 _ZN5SPIRV26SPIRVLowerSaddWithOverflowD0Ev@Base 0
 _ZN5SPIRV26SPIRVLowerSaddWithOverflowD1Ev@Base 0
 _ZN5SPIRV26SPIRVLowerSaddWithOverflowD2Ev@Base 0
 _ZN5SPIRV26containsUnsignedAtomicTypeEN4llvm9StringRefE@Base 0
 _ZN5SPIRV26getAccessQualifierFullNameEN4llvm9StringRefE@Base 0
 _ZN5SPIRV26getSPIRVImageTypePostfixesB5cxx11EN4llvm9StringRefENS_24SPIRVTypeImageDescriptorEN3spv15AccessQualifierE@Base 0
 _ZN5SPIRV27SPIRVBlockingPipesIntelInstD0Ev@Base 0
 _ZN5SPIRV27SPIRVBlockingPipesIntelInstD1Ev@Base 0
 _ZN5SPIRV27SPIRVBlockingPipesIntelInstD2Ev@Base 0
 _ZN5SPIRV27SPIRVDecorateMergeINTELAttr14decodeLiteralsERNS_12SPIRVDecoderERSt6vectorIjSaIjEE@Base 0
 _ZN5SPIRV27SPIRVDecorateMergeINTELAttr14encodeLiteralsERNS_12SPIRVEncoderERKSt6vectorIjSaIjEE@Base 0
 _ZN5SPIRV27SPIRVDecorateMergeINTELAttrD0Ev@Base 0
 _ZN5SPIRV27SPIRVDecorateMergeINTELAttrD1Ev@Base 0
 _ZN5SPIRV27SPIRVDecorateMergeINTELAttrD2Ev@Base 0
 _ZN5SPIRV27SPIRVTypeBufferSurfaceINTEL12setWordCountEj@Base 0
 _ZN5SPIRV27SPIRVTypeBufferSurfaceINTEL6decodeERSi@Base 0
 _ZN5SPIRV27SPIRVTypeBufferSurfaceINTELD0Ev@Base 0
 _ZN5SPIRV27SPIRVTypeBufferSurfaceINTELD1Ev@Base 0
 _ZN5SPIRV27SPIRVTypeBufferSurfaceINTELD2Ev@Base 0
 _ZN5SPIRV27generateIntelFPGAAnnotationEPKNS_10SPIRVEntryERN4llvm11SmallStringILj256EEE@Base 0
 (subst)_ZN5SPIRV27getScalarOrArrayConstantIntEPN4llvm11InstructionEPNS0_4TypeEj{uint64_t}b@Base 0
 _ZN5SPIRV27isPointerToOpaqueStructTypeEPN4llvm4TypeE@Base 0
 _ZN5SPIRV27isPointerToOpaqueStructTypeEPN4llvm4TypeERKNSt7__cxx1112basic_stringIcSt11char_traitsIcESaIcEEE@Base 0
 _ZN5SPIRV28SPIRVComponentExecutionModes16addExecutionModeEPNS_18SPIRVExecutionModeE@Base 0
 _ZN5SPIRV28SPIRVDecorateMemoryINTELAttrD0Ev@Base 0
 _ZN5SPIRV28SPIRVDecorateMemoryINTELAttrD1Ev@Base 0
 _ZN5SPIRV28SPIRVDecorateMemoryINTELAttrD2Ev@Base 0
 _ZN5SPIRV28SPIRVGroupNonUniformVoteInstD0Ev@Base 0
 _ZN5SPIRV28SPIRVGroupNonUniformVoteInstD1Ev@Base 0
 _ZN5SPIRV28SPIRVGroupNonUniformVoteInstD2Ev@Base 0
 _ZN5SPIRV28createInstFromSpecConstantOpEPNS_17SPIRVInstTemplateINS_21SPIRVInstTemplateBaseELN3spv2OpE52ELb1ELj4ELb1ELj0ELj4294967295ELj4294967295EEE@Base 0
 _ZN5SPIRV28getSPIRVImageSampledTypeNameB5cxx11EPNS_9SPIRVTypeE@Base 0
 (subst)_ZN5SPIRV28getScalarOrVectorConstantIntEPN4llvm4TypeE{uint64_t}b@Base 0
 _ZN5SPIRV29SPIRVDecorateUserSemanticAttrD0Ev@Base 0
 _ZN5SPIRV29SPIRVDecorateUserSemanticAttrD1Ev@Base 0
 _ZN5SPIRV29SPIRVDecorateUserSemanticAttrD2Ev@Base 0
 _ZN5SPIRV29SPIRVFunctionPointerCallINTEL6decodeERSi@Base 0
 _ZN5SPIRV29SPIRVFunctionPointerCallINTELC1EjPNS_10SPIRVValueEPNS_9SPIRVTypeERKSt6vectorIjSaIjEEPNS_15SPIRVBasicBlockE@Base 0
 _ZN5SPIRV29SPIRVFunctionPointerCallINTELC2EjPNS_10SPIRVValueEPNS_9SPIRVTypeERKSt6vectorIjSaIjEEPNS_15SPIRVBasicBlockE@Base 0
 _ZN5SPIRV29SPIRVFunctionPointerCallINTELD0Ev@Base 0
 _ZN5SPIRV29SPIRVFunctionPointerCallINTELD1Ev@Base 0
 _ZN5SPIRV29SPIRVFunctionPointerCallINTELD2Ev@Base 0
 _ZN5SPIRV29SPIRVGroupNonUniformElectInstD0Ev@Base 0
 _ZN5SPIRV29SPIRVGroupNonUniformElectInstD1Ev@Base 0
 _ZN5SPIRV29SPIRVGroupNonUniformElectInstD2Ev@Base 0
 _ZN5SPIRV29SPIRVSubgroupAVCIntelInstBaseD0Ev@Base 0
 _ZN5SPIRV29SPIRVSubgroupAVCIntelInstBaseD1Ev@Base 0
 _ZN5SPIRV29SPIRVSubgroupAVCIntelInstBaseD2Ev@Base 0
 _ZN5SPIRV29getFunctionTypeParameterTypesEPN4llvm12FunctionTypeERSt6vectorIPNS0_4TypeESaIS5_EE@Base 0
 _ZN5SPIRV30SPIRVConstFunctionPointerINTEL6decodeERSi@Base 0
 _ZN5SPIRV30SPIRVConstFunctionPointerINTELD0Ev@Base 0
 _ZN5SPIRV30SPIRVConstFunctionPointerINTELD1Ev@Base 0
 _ZN5SPIRV30SPIRVConstFunctionPointerINTELD2Ev@Base 0
 _ZN5SPIRV30SPIRVDecorateBankBitsINTELAttrD0Ev@Base 0
 _ZN5SPIRV30SPIRVDecorateBankBitsINTELAttrD1Ev@Base 0
 _ZN5SPIRV30SPIRVDecorateBankBitsINTELAttrD2Ev@Base 0
 _ZN5SPIRV30SPIRVGroupNonUniformBallotInstD0Ev@Base 0
 _ZN5SPIRV30SPIRVGroupNonUniformBallotInstD1Ev@Base 0
 _ZN5SPIRV30SPIRVGroupNonUniformBallotInstD2Ev@Base 0
 (optional=templinst)_ZN5SPIRV30SPIRVMemberDecorateStrAttrBaseILN3spv10DecorationE5635EEC1EPNS_10SPIRVEntryEjRKNSt7__cxx1112basic_stringIcSt11char_traitsIcESaIcEEE@Base 0
 (optional=templinst)_ZN5SPIRV30SPIRVMemberDecorateStrAttrBaseILN3spv10DecorationE5635EEC2EPNS_10SPIRVEntryEjRKNSt7__cxx1112basic_stringIcSt11char_traitsIcESaIcEEE@Base 0
 (optional=templinst)_ZN5SPIRV30SPIRVMemberDecorateStrAttrBaseILN3spv10DecorationE5635EED0Ev@Base 0
 (optional=templinst)_ZN5SPIRV30SPIRVMemberDecorateStrAttrBaseILN3spv10DecorationE5635EED1Ev@Base 0
 (optional=templinst)_ZN5SPIRV30SPIRVMemberDecorateStrAttrBaseILN3spv10DecorationE5635EED2Ev@Base 0
 (optional=templinst)_ZN5SPIRV30SPIRVMemberDecorateStrAttrBaseILN3spv10DecorationE5826EED0Ev@Base 0
 (optional=templinst)_ZN5SPIRV30SPIRVMemberDecorateStrAttrBaseILN3spv10DecorationE5826EED1Ev@Base 0
 (optional=templinst)_ZN5SPIRV30SPIRVMemberDecorateStrAttrBaseILN3spv10DecorationE5826EED2Ev@Base 0
 _ZN5SPIRV30transOCLMemScopeIntoSPIRVScopeEPN4llvm5ValueENS0_8OptionalIiEEPNS0_11InstructionE@Base 0
 _ZN5SPIRV31SPIRVGroupNonUniformShuffleInstD0Ev@Base 0
 _ZN5SPIRV31SPIRVGroupNonUniformShuffleInstD1Ev@Base 0
 _ZN5SPIRV31SPIRVGroupNonUniformShuffleInstD2Ev@Base 0
 _ZN5SPIRV32eraseSubstitutionFromMangledNameERNSt7__cxx1112basic_stringIcSt11char_traitsIcESaIcEEE@Base 0
 _ZN5SPIRV32getSPIRVTypeByChangeBaseTypeNameEPN4llvm6ModuleEPNS0_4TypeENS0_9StringRefES5_@Base 0
 _ZN5SPIRV33SPIRVMemberDecorateMergeINTELAttrD0Ev@Base 0
 _ZN5SPIRV33SPIRVMemberDecorateMergeINTELAttrD1Ev@Base 0
 _ZN5SPIRV33SPIRVMemberDecorateMergeINTELAttrD2Ev@Base 0
 _ZN5SPIRV33SPIRVSubgroupShuffleINTELInstBaseD0Ev@Base 0
 _ZN5SPIRV33SPIRVSubgroupShuffleINTELInstBaseD1Ev@Base 0
 _ZN5SPIRV33SPIRVSubgroupShuffleINTELInstBaseD2Ev@Base 0
 _ZN5SPIRV33tryParseIntelFPGAAnnotationStringEN4llvm9StringRefE@Base 0
 _ZN5SPIRV34SPIRVDbgErrorMsgIncludesSourceInfoE@Base 0
 _ZN5SPIRV34SPIRVGroupNonUniformArithmeticInst10setOpWordsERKSt6vectorIjSaIjEE@Base 0
 _ZN5SPIRV34SPIRVGroupNonUniformArithmeticInstD0Ev@Base 0
 _ZN5SPIRV34SPIRVGroupNonUniformArithmeticInstD1Ev@Base 0
 _ZN5SPIRV34SPIRVGroupNonUniformArithmeticInstD2Ev@Base 0
 _ZN5SPIRV34SPIRVLowerSaddWithOverflowValidateE@Base 0
 _ZN5SPIRV34SPIRVMemberDecorateMemoryINTELAttrD0Ev@Base 0
 _ZN5SPIRV34SPIRVMemberDecorateMemoryINTELAttrD1Ev@Base 0
 _ZN5SPIRV34SPIRVMemberDecorateMemoryINTELAttrD2Ev@Base 0
 _ZN5SPIRV34SPIRVSubgroupAVCIntelInstBaseIntraD0Ev@Base 0
 _ZN5SPIRV34SPIRVSubgroupAVCIntelInstBaseIntraD1Ev@Base 0
 _ZN5SPIRV34SPIRVSubgroupAVCIntelInstBaseIntraD2Ev@Base 0
 _ZN5SPIRV35SPIRVMemberDecorateUserSemanticAttrD0Ev@Base 0
 _ZN5SPIRV35SPIRVMemberDecorateUserSemanticAttrD1Ev@Base 0
 _ZN5SPIRV35SPIRVMemberDecorateUserSemanticAttrD2Ev@Base 0
 _ZN5SPIRV35SPIRVSubgroupAVCIntelInstBaseChromaD0Ev@Base 0
 _ZN5SPIRV35SPIRVSubgroupAVCIntelInstBaseChromaD1Ev@Base 0
 _ZN5SPIRV35SPIRVSubgroupAVCIntelInstBaseChromaD2Ev@Base 0
 _ZN5SPIRV36SPIRVDecorateFunctionDenormModeINTELD0Ev@Base 0
 _ZN5SPIRV36SPIRVDecorateFunctionDenormModeINTELD1Ev@Base 0
 _ZN5SPIRV36SPIRVDecorateFunctionDenormModeINTELD2Ev@Base 0
 _ZN5SPIRV36SPIRVMemberDecorateBankBitsINTELAttrD0Ev@Base 0
 _ZN5SPIRV36SPIRVMemberDecorateBankBitsINTELAttrD1Ev@Base 0
 _ZN5SPIRV36SPIRVMemberDecorateBankBitsINTELAttrD2Ev@Base 0
 _ZN5SPIRV37checkTypeForSPIRVExtendedInstLoweringEPN4llvm13IntrinsicInstEPNS_11SPIRVModuleE@Base 0
 _ZN5SPIRV38SPIRVDecorateFunctionRoundingModeINTELD0Ev@Base 0
 _ZN5SPIRV38SPIRVDecorateFunctionRoundingModeINTELD1Ev@Base 0
 _ZN5SPIRV38SPIRVDecorateFunctionRoundingModeINTELD2Ev@Base 0
 _ZN5SPIRV38SPIRVSubgroupImageBlockIOINTELInstBaseD0Ev@Base 0
 _ZN5SPIRV38SPIRVSubgroupImageBlockIOINTELInstBaseD1Ev@Base 0
 _ZN5SPIRV38SPIRVSubgroupImageBlockIOINTELInstBaseD2Ev@Base 0
 _ZN5SPIRV38addIntelFPGADecorationsForStructMemberEPNS_10SPIRVEntryEjRSt6vectorISt4pairIN3spv10DecorationENSt7__cxx1112basic_stringIcSt11char_traitsIcESaIcEEEESaISC_EE@Base 0
 _ZN5SPIRV39SPIRVGroupNonUniformShuffleRelativeInstD0Ev@Base 0
 _ZN5SPIRV39SPIRVGroupNonUniformShuffleRelativeInstD1Ev@Base 0
 _ZN5SPIRV39SPIRVGroupNonUniformShuffleRelativeInstD2Ev@Base 0
 _ZN5SPIRV39SPIRVSubgroupBufferBlockIOINTELInstBaseD0Ev@Base 0
 _ZN5SPIRV39SPIRVSubgroupBufferBlockIOINTELInstBaseD1Ev@Base 0
 _ZN5SPIRV39SPIRVSubgroupBufferBlockIOINTELInstBaseD2Ev@Base 0
 _ZN5SPIRV39transSPIRVMemoryScopeIntoOCLMemoryScopeEPN4llvm5ValueEPNS0_11InstructionE@Base 0
 (optional=templinst)_ZN5SPIRV3mapIN3spv10CapabilityEN7OCLUtil6OclExt4KindEEESt3setIT_St4lessIS7_ESaIS7_EERKS6_IT0_S8_ISC_ESaISC_EE@Base 0
 (optional=templinst)_ZN5SPIRV3mapIN3spv14FPRoundingModeENSt7__cxx1112basic_stringIcSt11char_traitsIcESaIcEEEEET_T0_@Base 0
 (optional=templinst)_ZN5SPIRV3mapINS_24SPIRVTypeImageDescriptorENSt7__cxx1112basic_stringIcSt11char_traitsIcESaIcEEEEET_T0_@Base 0
 (optional=templinst)_ZN5SPIRV3mapINSt7__cxx1112basic_stringIcSt11char_traitsIcESaIcEEEN7OCLUtil6OclExt4KindEEESt3setIT_St4lessISB_ESaISB_EERKSA_IT0_SC_ISG_ESaISG_EE@Base 0
 _ZN5SPIRV40transOCLMemOrderIntoSPIRVMemorySemanticsEPN4llvm5ValueENS0_8OptionalIiEEPNS0_11InstructionE@Base 0
 _ZN5SPIRV42generateIntelFPGAAnnotationForStructMemberEPKNS_10SPIRVEntryEjRN4llvm11SmallStringILj256EEE@Base 0
 _ZN5SPIRV42getLLVMTypeForSPIRVImageSampledTypePostfixEN4llvm9StringRefERNS0_11LLVMContextE@Base 0
 _ZN5SPIRV43SPIRVDecorateFunctionFloatingPointModeINTELD0Ev@Base 0
 _ZN5SPIRV43SPIRVDecorateFunctionFloatingPointModeINTELD1Ev@Base 0
 _ZN5SPIRV43SPIRVDecorateFunctionFloatingPointModeINTELD2Ev@Base 0
 _ZN5SPIRV43SPIRVSubgroupImageMediaBlockIOINTELInstBaseD0Ev@Base 0
 _ZN5SPIRV43SPIRVSubgroupImageMediaBlockIOINTELInstBaseD1Ev@Base 0
 _ZN5SPIRV43SPIRVSubgroupImageMediaBlockIOINTELInstBaseD2Ev@Base 0
 _ZN5SPIRV43transSPIRVMemorySemanticsIntoOCLMemoryOrderEPN4llvm5ValueEPNS0_11InstructionE@Base 0
 _ZN5SPIRV45transSPIRVMemorySemanticsIntoOCLMemFenceFlagsEPN4llvm5ValueEPNS0_11InstructionE@Base 0
 (optional=templinst|arch=!armel !mips64el !mipsel)_ZN5SPIRV4rmapIN7OCLUtil6OclExt4KindEN3spv10CapabilityEPNS_15SPIRVCapabilityEEESt3setIT_St4lessIS9_ESaIS9_EERKSt3mapIT0_T1_SA_ISF_ESaISt4pairIKSF_SG_EEE@Base 0
 (optional=templinst)_ZN5SPIRV4rmapIN7OCLUtil6OclExt4KindENSt7__cxx1112basic_stringIcSt11char_traitsIcESaIcEEEEESt3setIT_St4lessISB_ESaISB_EERKSA_IT0_SC_ISG_ESaISG_EE@Base 0
 (optional=templinst|arch=armel armhf)_ZN5SPIRV6concatIiEENSt7__cxx1112basic_stringIcSt11char_traitsIcESaIcEEERKS6_RKT_@Base 0
 (optional=templinst)_ZN5SPIRV6concatIjEENSt7__cxx1112basic_stringIcSt11char_traitsIcESaIcEEERKS6_RKT_@Base 0
 (optional=templinst)_ZN5SPIRV6createINS_10SPIRVStoreEEEPNS_10SPIRVEntryEv@Base 0
 (optional=templinst)_ZN5SPIRV6createINS_10SPIRVUndefEEEPNS_10SPIRVEntryEv@Base 0
 (optional=templinst)_ZN5SPIRV6createINS_11SPIRVBranchEEEPNS_10SPIRVEntryEv@Base 0
 (optional=templinst)_ZN5SPIRV6createINS_11SPIRVSelectEEEPNS_10SPIRVEntryEv@Base 0
 (optional=templinst)_ZN5SPIRV6createINS_11SPIRVSourceEEEPNS_10SPIRVEntryEv@Base 0
 (optional=templinst)_ZN5SPIRV6createINS_11SPIRVStringEEEPNS_10SPIRVEntryEv@Base 0
 (optional=templinst)_ZN5SPIRV6createINS_11SPIRVSwitchEEEPNS_10SPIRVEntryEv@Base 0
 (optional=templinst)_ZN5SPIRV6createINS_12SPIRVCmpInstILN3spv2OpE161EEEEEPNS_10SPIRVEntryEv@Base 0
 (optional=templinst)_ZN5SPIRV6createINS_12SPIRVCmpInstILN3spv2OpE162EEEEEPNS_10SPIRVEntryEv@Base 0
 (optional=templinst)_ZN5SPIRV6createINS_12SPIRVCmpInstILN3spv2OpE163EEEEEPNS_10SPIRVEntryEv@Base 0
 (optional=templinst)_ZN5SPIRV6createINS_12SPIRVCmpInstILN3spv2OpE170EEEEEPNS_10SPIRVEntryEv@Base 0
 (optional=templinst)_ZN5SPIRV6createINS_12SPIRVCmpInstILN3spv2OpE171EEEEEPNS_10SPIRVEntryEv@Base 0
 (optional=templinst)_ZN5SPIRV6createINS_12SPIRVCmpInstILN3spv2OpE172EEEEEPNS_10SPIRVEntryEv@Base 0
 (optional=templinst)_ZN5SPIRV6createINS_12SPIRVCmpInstILN3spv2OpE173EEEEEPNS_10SPIRVEntryEv@Base 0
 (optional=templinst)_ZN5SPIRV6createINS_12SPIRVCmpInstILN3spv2OpE174EEEEEPNS_10SPIRVEntryEv@Base 0
 (optional=templinst)_ZN5SPIRV6createINS_12SPIRVCmpInstILN3spv2OpE175EEEEEPNS_10SPIRVEntryEv@Base 0
 (optional=templinst)_ZN5SPIRV6createINS_12SPIRVCmpInstILN3spv2OpE176EEEEEPNS_10SPIRVEntryEv@Base 0
 (optional=templinst)_ZN5SPIRV6createINS_12SPIRVCmpInstILN3spv2OpE177EEEEEPNS_10SPIRVEntryEv@Base 0
 (optional=templinst)_ZN5SPIRV6createINS_12SPIRVCmpInstILN3spv2OpE178EEEEEPNS_10SPIRVEntryEv@Base 0
 (optional=templinst)_ZN5SPIRV6createINS_12SPIRVCmpInstILN3spv2OpE179EEEEEPNS_10SPIRVEntryEv@Base 0
 (optional=templinst)_ZN5SPIRV6createINS_12SPIRVCmpInstILN3spv2OpE180EEEEEPNS_10SPIRVEntryEv@Base 0
 (optional=templinst)_ZN5SPIRV6createINS_12SPIRVCmpInstILN3spv2OpE181EEEEEPNS_10SPIRVEntryEv@Base 0
 (optional=templinst)_ZN5SPIRV6createINS_12SPIRVCmpInstILN3spv2OpE182EEEEEPNS_10SPIRVEntryEv@Base 0
 (optional=templinst)_ZN5SPIRV6createINS_12SPIRVCmpInstILN3spv2OpE183EEEEEPNS_10SPIRVEntryEv@Base 0
 (optional=templinst)_ZN5SPIRV6createINS_12SPIRVCmpInstILN3spv2OpE184EEEEEPNS_10SPIRVEntryEv@Base 0
 (optional=templinst)_ZN5SPIRV6createINS_12SPIRVCmpInstILN3spv2OpE185EEEEEPNS_10SPIRVEntryEv@Base 0
 (optional=templinst)_ZN5SPIRV6createINS_12SPIRVCmpInstILN3spv2OpE186EEEEEPNS_10SPIRVEntryEv@Base 0
 (optional=templinst)_ZN5SPIRV6createINS_12SPIRVCmpInstILN3spv2OpE187EEEEEPNS_10SPIRVEntryEv@Base 0
 (optional=templinst)_ZN5SPIRV6createINS_12SPIRVCmpInstILN3spv2OpE188EEEEEPNS_10SPIRVEntryEv@Base 0
 (optional=templinst)_ZN5SPIRV6createINS_12SPIRVCmpInstILN3spv2OpE189EEEEEPNS_10SPIRVEntryEv@Base 0
 (optional=templinst)_ZN5SPIRV6createINS_12SPIRVCmpInstILN3spv2OpE190EEEEEPNS_10SPIRVEntryEv@Base 0
 (optional=templinst)_ZN5SPIRV6createINS_12SPIRVCmpInstILN3spv2OpE191EEEEEPNS_10SPIRVEntryEv@Base 0
 (optional=templinst)_ZN5SPIRV6createINS_12SPIRVExtInstEEEPNS_10SPIRVEntryEv@Base 0
 (optional=templinst)_ZN5SPIRV6createINS_12SPIRVForwardEEEPNS_10SPIRVEntryEv@Base 0
 (optional=templinst)_ZN5SPIRV6createINS_12SPIRVTypeIntEEEPNS_10SPIRVEntryEv@Base 0
 (optional=templinst)_ZN5SPIRV6createINS_13SPIRVAsmINTELEEEPNS_10SPIRVEntryEv@Base 0
 (optional=templinst)_ZN5SPIRV6createINS_13SPIRVDecorateEEEPNS_10SPIRVEntryEv@Base 0
 (optional=templinst)_ZN5SPIRV6createINS_13SPIRVFunctionEEEPNS_10SPIRVEntryEv@Base 0
 (optional=templinst)_ZN5SPIRV6createINS_13SPIRVLifetimeILN3spv2OpE256EEEEEPNS_10SPIRVEntryEv@Base 0
 (optional=templinst)_ZN5SPIRV6createINS_13SPIRVLifetimeILN3spv2OpE257EEEEEPNS_10SPIRVEntryEv@Base 0
 (optional=templinst)_ZN5SPIRV6createINS_13SPIRVTypeBoolEEEPNS_10SPIRVEntryEv@Base 0
 (optional=templinst)_ZN5SPIRV6createINS_13SPIRVTypePipeEEEPNS_10SPIRVEntryEv@Base 0
 (optional=templinst)_ZN5SPIRV6createINS_13SPIRVTypeVoidEEEPNS_10SPIRVEntryEv@Base 0
 (optional=templinst)_ZN5SPIRV6createINS_13SPIRVVariableEEEPNS_10SPIRVEntryEv@Base 0
 (optional=templinst)_ZN5SPIRV6createINS_14SPIRVExtensionEEEPNS_10SPIRVEntryEv@Base 0
 (optional=templinst)_ZN5SPIRV6createINS_14SPIRVLoopMergeEEEPNS_10SPIRVEntryEv@Base 0
 (optional=templinst)_ZN5SPIRV6createINS_14SPIRVTransposeEEEPNS_10SPIRVEntryEv@Base 0
 (optional=templinst)_ZN5SPIRV6createINS_14SPIRVTypeArrayEEEPNS_10SPIRVEntryEv@Base 0
 (optional=templinst)_ZN5SPIRV6createINS_14SPIRVTypeFloatEEEPNS_10SPIRVEntryEv@Base 0
 (optional=templinst)_ZN5SPIRV6createINS_14SPIRVTypeImageEEEPNS_10SPIRVEntryEv@Base 0
 (optional=templinst)_ZN5SPIRV6createINS_14SPIRVTypeQueueEEEPNS_10SPIRVEntryEv@Base 0
 (optional=templinst)_ZN5SPIRV6createINS_14SPIRVUnaryInstILN3spv2OpE109EEEEEPNS_10SPIRVEntryEv@Base 0
 (optional=templinst)_ZN5SPIRV6createINS_14SPIRVUnaryInstILN3spv2OpE110EEEEEPNS_10SPIRVEntryEv@Base 0
 (optional=templinst)_ZN5SPIRV6createINS_14SPIRVUnaryInstILN3spv2OpE111EEEEEPNS_10SPIRVEntryEv@Base 0
 (optional=templinst)_ZN5SPIRV6createINS_14SPIRVUnaryInstILN3spv2OpE112EEEEEPNS_10SPIRVEntryEv@Base 0
 (optional=templinst)_ZN5SPIRV6createINS_14SPIRVUnaryInstILN3spv2OpE113EEEEEPNS_10SPIRVEntryEv@Base 0
 (optional=templinst)_ZN5SPIRV6createINS_14SPIRVUnaryInstILN3spv2OpE114EEEEEPNS_10SPIRVEntryEv@Base 0
 (optional=templinst)_ZN5SPIRV6createINS_14SPIRVUnaryInstILN3spv2OpE115EEEEEPNS_10SPIRVEntryEv@Base 0
 (optional=templinst)_ZN5SPIRV6createINS_14SPIRVUnaryInstILN3spv2OpE117EEEEEPNS_10SPIRVEntryEv@Base 0
 (optional=templinst)_ZN5SPIRV6createINS_14SPIRVUnaryInstILN3spv2OpE118EEEEEPNS_10SPIRVEntryEv@Base 0
 (optional=templinst)_ZN5SPIRV6createINS_14SPIRVUnaryInstILN3spv2OpE119EEEEEPNS_10SPIRVEntryEv@Base 0
 (optional=templinst)_ZN5SPIRV6createINS_14SPIRVUnaryInstILN3spv2OpE120EEEEEPNS_10SPIRVEntryEv@Base 0
 (optional=templinst)_ZN5SPIRV6createINS_14SPIRVUnaryInstILN3spv2OpE121EEEEEPNS_10SPIRVEntryEv@Base 0
 (optional=templinst)_ZN5SPIRV6createINS_14SPIRVUnaryInstILN3spv2OpE122EEEEEPNS_10SPIRVEntryEv@Base 0
 (optional=templinst)_ZN5SPIRV6createINS_14SPIRVUnaryInstILN3spv2OpE124EEEEEPNS_10SPIRVEntryEv@Base 0
 (optional=templinst)_ZN5SPIRV6createINS_14SPIRVUnaryInstILN3spv2OpE126EEEEEPNS_10SPIRVEntryEv@Base 0
 (optional=templinst)_ZN5SPIRV6createINS_14SPIRVUnaryInstILN3spv2OpE127EEEEEPNS_10SPIRVEntryEv@Base 0
 (optional=templinst)_ZN5SPIRV6createINS_14SPIRVUnaryInstILN3spv2OpE154EEEEEPNS_10SPIRVEntryEv@Base 0
 (optional=templinst)_ZN5SPIRV6createINS_14SPIRVUnaryInstILN3spv2OpE155EEEEEPNS_10SPIRVEntryEv@Base 0
 (optional=templinst)_ZN5SPIRV6createINS_14SPIRVUnaryInstILN3spv2OpE156EEEEEPNS_10SPIRVEntryEv@Base 0
 (optional=templinst)_ZN5SPIRV6createINS_14SPIRVUnaryInstILN3spv2OpE157EEEEEPNS_10SPIRVEntryEv@Base 0
 (optional=templinst)_ZN5SPIRV6createINS_14SPIRVUnaryInstILN3spv2OpE158EEEEEPNS_10SPIRVEntryEv@Base 0
 (optional=templinst)_ZN5SPIRV6createINS_14SPIRVUnaryInstILN3spv2OpE159EEEEEPNS_10SPIRVEntryEv@Base 0
 (optional=templinst)_ZN5SPIRV6createINS_14SPIRVUnaryInstILN3spv2OpE160EEEEEPNS_10SPIRVEntryEv@Base 0
 (optional=templinst)_ZN5SPIRV6createINS_14SPIRVUnaryInstILN3spv2OpE168EEEEEPNS_10SPIRVEntryEv@Base 0
 (optional=templinst)_ZN5SPIRV6createINS_14SPIRVUnaryInstILN3spv2OpE200EEEEEPNS_10SPIRVEntryEv@Base 0
 (optional=templinst)_ZN5SPIRV6createINS_14SPIRVUnaryInstILN3spv2OpE204EEEEEPNS_10SPIRVEntryEv@Base 0
 (optional=templinst)_ZN5SPIRV6createINS_14SPIRVUnaryInstILN3spv2OpE205EEEEEPNS_10SPIRVEntryEv@Base 0
 (optional=templinst)_ZN5SPIRV6createINS_14SPIRVUnaryInstILN3spv2OpE5934EEEEEPNS_10SPIRVEntryEv@Base 0
 (optional=templinst)_ZN5SPIRV6createINS_14SPIRVUnaryInstILN3spv2OpE5938EEEEEPNS_10SPIRVEntryEv@Base 0
 (optional=templinst)_ZN5SPIRV6createINS_15SPIRVBasicBlockEEEPNS_10SPIRVEntryEv@Base 0
 (optional=templinst)_ZN5SPIRV6createINS_15SPIRVBinaryInstILN3spv2OpE128EEEEEPNS_10SPIRVEntryEv@Base 0
 (optional=templinst)_ZN5SPIRV6createINS_15SPIRVBinaryInstILN3spv2OpE129EEEEEPNS_10SPIRVEntryEv@Base 0
 (optional=templinst)_ZN5SPIRV6createINS_15SPIRVBinaryInstILN3spv2OpE130EEEEEPNS_10SPIRVEntryEv@Base 0
 (optional=templinst)_ZN5SPIRV6createINS_15SPIRVBinaryInstILN3spv2OpE131EEEEEPNS_10SPIRVEntryEv@Base 0
 (optional=templinst)_ZN5SPIRV6createINS_15SPIRVBinaryInstILN3spv2OpE132EEEEEPNS_10SPIRVEntryEv@Base 0
 (optional=templinst)_ZN5SPIRV6createINS_15SPIRVBinaryInstILN3spv2OpE133EEEEEPNS_10SPIRVEntryEv@Base 0
 (optional=templinst)_ZN5SPIRV6createINS_15SPIRVBinaryInstILN3spv2OpE134EEEEEPNS_10SPIRVEntryEv@Base 0
 (optional=templinst)_ZN5SPIRV6createINS_15SPIRVBinaryInstILN3spv2OpE135EEEEEPNS_10SPIRVEntryEv@Base 0
 (optional=templinst)_ZN5SPIRV6createINS_15SPIRVBinaryInstILN3spv2OpE136EEEEEPNS_10SPIRVEntryEv@Base 0
 (optional=templinst)_ZN5SPIRV6createINS_15SPIRVBinaryInstILN3spv2OpE137EEEEEPNS_10SPIRVEntryEv@Base 0
 (optional=templinst)_ZN5SPIRV6createINS_15SPIRVBinaryInstILN3spv2OpE138EEEEEPNS_10SPIRVEntryEv@Base 0
 (optional=templinst)_ZN5SPIRV6createINS_15SPIRVBinaryInstILN3spv2OpE140EEEEEPNS_10SPIRVEntryEv@Base 0
 (optional=templinst)_ZN5SPIRV6createINS_15SPIRVBinaryInstILN3spv2OpE148EEEEEPNS_10SPIRVEntryEv@Base 0
 (optional=templinst)_ZN5SPIRV6createINS_15SPIRVBinaryInstILN3spv2OpE164EEEEEPNS_10SPIRVEntryEv@Base 0
 (optional=templinst)_ZN5SPIRV6createINS_15SPIRVBinaryInstILN3spv2OpE165EEEEEPNS_10SPIRVEntryEv@Base 0
 (optional=templinst)_ZN5SPIRV6createINS_15SPIRVBinaryInstILN3spv2OpE166EEEEEPNS_10SPIRVEntryEv@Base 0
 (optional=templinst)_ZN5SPIRV6createINS_15SPIRVBinaryInstILN3spv2OpE167EEEEEPNS_10SPIRVEntryEv@Base 0
 (optional=templinst)_ZN5SPIRV6createINS_15SPIRVBinaryInstILN3spv2OpE194EEEEEPNS_10SPIRVEntryEv@Base 0
 (optional=templinst)_ZN5SPIRV6createINS_15SPIRVBinaryInstILN3spv2OpE195EEEEEPNS_10SPIRVEntryEv@Base 0
 (optional=templinst)_ZN5SPIRV6createINS_15SPIRVBinaryInstILN3spv2OpE196EEEEEPNS_10SPIRVEntryEv@Base 0
 (optional=templinst)_ZN5SPIRV6createINS_15SPIRVBinaryInstILN3spv2OpE197EEEEEPNS_10SPIRVEntryEv@Base 0
 (optional=templinst)_ZN5SPIRV6createINS_15SPIRVBinaryInstILN3spv2OpE198EEEEEPNS_10SPIRVEntryEv@Base 0
 (optional=templinst)_ZN5SPIRV6createINS_15SPIRVBinaryInstILN3spv2OpE199EEEEEPNS_10SPIRVEntryEv@Base 0
 (optional=templinst)_ZN5SPIRV6createINS_15SPIRVCapabilityEEEPNS_10SPIRVEntryEv@Base 0
 (optional=templinst)_ZN5SPIRV6createINS_15SPIRVCopyMemoryEEEPNS_10SPIRVEntryEv@Base 0
 (optional=templinst)_ZN5SPIRV6createINS_15SPIRVCopyObjectEEEPNS_10SPIRVEntryEv@Base 0
 (optional=templinst)_ZN5SPIRV6createINS_15SPIRVEntryPointEEEPNS_10SPIRVEntryEv@Base 0
 (optional=templinst)_ZN5SPIRV6createINS_15SPIRVMemberNameEEEPNS_10SPIRVEntryEv@Base 0
 (optional=templinst)_ZN5SPIRV6createINS_15SPIRVTypeMatrixEEEPNS_10SPIRVEntryEv@Base 0
 (optional=templinst)_ZN5SPIRV6createINS_15SPIRVTypeOpaqueEEEPNS_10SPIRVEntryEv@Base 0
 (optional=templinst)_ZN5SPIRV6createINS_15SPIRVTypeStructEEEPNS_10SPIRVEntryEv@Base 0
 (optional=templinst)_ZN5SPIRV6createINS_15SPIRVTypeVectorEEEPNS_10SPIRVEntryEv@Base 0
 (optional=templinst)_ZN5SPIRV6createINS_16SPIRVMemoryModelEEEPNS_10SPIRVEntryEv@Base 0
 (optional=templinst)_ZN5SPIRV6createINS_16SPIRVReturnValueEEEPNS_10SPIRVEntryEv@Base 0
 (optional=templinst)_ZN5SPIRV6createINS_16SPIRVTypePointerEEEPNS_10SPIRVEntryEv@Base 0
 (optional=templinst)_ZN5SPIRV6createINS_16SPIRVTypeSamplerEEEPNS_10SPIRVEntryEv@Base 0
 (optional=templinst)_ZN5SPIRV6createINS_17SPIRVAsmCallINTELEEEPNS_10SPIRVEntryEv@Base 0
 (optional=templinst)_ZN5SPIRV6createINS_17SPIRVConstantBaseILN3spv2OpE43EEEEEPNS_10SPIRVEntryEv@Base 0
 (optional=templinst)_ZN5SPIRV6createINS_17SPIRVConstantBaseILN3spv2OpE50EEEEEPNS_10SPIRVEntryEv@Base 0
 (optional=templinst)_ZN5SPIRV6createINS_17SPIRVConstantBoolILN3spv2OpE41EEEEEPNS_10SPIRVEntryEv@Base 0
 (optional=templinst)_ZN5SPIRV6createINS_17SPIRVConstantBoolILN3spv2OpE42EEEEEPNS_10SPIRVEntryEv@Base 0
 (optional=templinst)_ZN5SPIRV6createINS_17SPIRVConstantBoolILN3spv2OpE48EEEEEPNS_10SPIRVEntryEv@Base 0
 (optional=templinst)_ZN5SPIRV6createINS_17SPIRVConstantBoolILN3spv2OpE49EEEEEPNS_10SPIRVEntryEv@Base 0
 (optional=templinst)_ZN5SPIRV6createINS_17SPIRVConstantNullEEEPNS_10SPIRVEntryEv@Base 0
 (optional=templinst)_ZN5SPIRV6createINS_17SPIRVFunctionCallEEEPNS_10SPIRVEntryEv@Base 0
 (optional=templinst)_ZN5SPIRV6createINS_17SPIRVInstTemplateINS_17SPIRVPipeInstBaseELN3spv2OpE274ELb1ELj7ELb0ELj4294967295ELj4294967295ELj4294967295EEEEEPNS_10SPIRVEntryEv@Base 0
 (optional=templinst)_ZN5SPIRV6createINS_17SPIRVInstTemplateINS_17SPIRVPipeInstBaseELN3spv2OpE275ELb1ELj7ELb0ELj4294967295ELj4294967295ELj4294967295EEEEEPNS_10SPIRVEntryEv@Base 0
 (optional=templinst)_ZN5SPIRV6createINS_17SPIRVInstTemplateINS_17SPIRVPipeInstBaseELN3spv2OpE276ELb1ELj9ELb0ELj4294967295ELj4294967295ELj4294967295EEEEEPNS_10SPIRVEntryEv@Base 0
 (optional=templinst)_ZN5SPIRV6createINS_17SPIRVInstTemplateINS_17SPIRVPipeInstBaseELN3spv2OpE277ELb1ELj9ELb0ELj4294967295ELj4294967295ELj4294967295EEEEEPNS_10SPIRVEntryEv@Base 0
 (optional=templinst)_ZN5SPIRV6createINS_17SPIRVInstTemplateINS_17SPIRVPipeInstBaseELN3spv2OpE278ELb1ELj7ELb0ELj4294967295ELj4294967295ELj4294967295EEEEEPNS_10SPIRVEntryEv@Base 0
 (optional=templinst)_ZN5SPIRV6createINS_17SPIRVInstTemplateINS_17SPIRVPipeInstBaseELN3spv2OpE279ELb1ELj7ELb0ELj4294967295ELj4294967295ELj4294967295EEEEEPNS_10SPIRVEntryEv@Base 0
 (optional=templinst)_ZN5SPIRV6createINS_17SPIRVInstTemplateINS_17SPIRVPipeInstBaseELN3spv2OpE280ELb0ELj5ELb0ELj4294967295ELj4294967295ELj4294967295EEEEEPNS_10SPIRVEntryEv@Base 0
 (optional=templinst)_ZN5SPIRV6createINS_17SPIRVInstTemplateINS_17SPIRVPipeInstBaseELN3spv2OpE281ELb0ELj5ELb0ELj4294967295ELj4294967295ELj4294967295EEEEEPNS_10SPIRVEntryEv@Base 0
 (optional=templinst)_ZN5SPIRV6createINS_17SPIRVInstTemplateINS_17SPIRVPipeInstBaseELN3spv2OpE282ELb1ELj4ELb0ELj4294967295ELj4294967295ELj4294967295EEEEEPNS_10SPIRVEntryEv@Base 0
 (optional=templinst)_ZN5SPIRV6createINS_17SPIRVInstTemplateINS_17SPIRVPipeInstBaseELN3spv2OpE283ELb1ELj6ELb0ELj4294967295ELj4294967295ELj4294967295EEEEEPNS_10SPIRVEntryEv@Base 0
 (optional=templinst)_ZN5SPIRV6createINS_17SPIRVInstTemplateINS_17SPIRVPipeInstBaseELN3spv2OpE284ELb1ELj6ELb0ELj4294967295ELj4294967295ELj4294967295EEEEEPNS_10SPIRVEntryEv@Base 0
 (optional=templinst)_ZN5SPIRV6createINS_17SPIRVInstTemplateINS_18SPIRVGroupInstBaseELN3spv2OpE260ELb0ELj4ELb0ELj4294967295ELj4294967295ELj4294967295EEEEEPNS_10SPIRVEntryEv@Base 0
 (optional=templinst)_ZN5SPIRV6createINS_17SPIRVInstTemplateINS_18SPIRVGroupInstBaseELN3spv2OpE261ELb1ELj5ELb0ELj4294967295ELj4294967295ELj4294967295EEEEEPNS_10SPIRVEntryEv@Base 0
 (optional=templinst)_ZN5SPIRV6createINS_17SPIRVInstTemplateINS_18SPIRVGroupInstBaseELN3spv2OpE262ELb1ELj5ELb0ELj4294967295ELj4294967295ELj4294967295EEEEEPNS_10SPIRVEntryEv@Base 0
 (optional=templinst)_ZN5SPIRV6createINS_17SPIRVInstTemplateINS_18SPIRVGroupInstBaseELN3spv2OpE263ELb1ELj6ELb0ELj4294967295ELj4294967295ELj4294967295EEEEEPNS_10SPIRVEntryEv@Base 0
 (optional=templinst)_ZN5SPIRV6createINS_17SPIRVInstTemplateINS_18SPIRVGroupInstBaseELN3spv2OpE264ELb1ELj6ELb0ELj1ELj4294967295ELj4294967295EEEEEPNS_10SPIRVEntryEv@Base 0
 (optional=templinst)_ZN5SPIRV6createINS_17SPIRVInstTemplateINS_18SPIRVGroupInstBaseELN3spv2OpE265ELb1ELj6ELb0ELj1ELj4294967295ELj4294967295EEEEEPNS_10SPIRVEntryEv@Base 0
 (optional=templinst)_ZN5SPIRV6createINS_17SPIRVInstTemplateINS_18SPIRVGroupInstBaseELN3spv2OpE266ELb1ELj6ELb0ELj1ELj4294967295ELj4294967295EEEEEPNS_10SPIRVEntryEv@Base 0
 (optional=templinst)_ZN5SPIRV6createINS_17SPIRVInstTemplateINS_18SPIRVGroupInstBaseELN3spv2OpE267ELb1ELj6ELb0ELj1ELj4294967295ELj4294967295EEEEEPNS_10SPIRVEntryEv@Base 0
 (optional=templinst)_ZN5SPIRV6createINS_17SPIRVInstTemplateINS_18SPIRVGroupInstBaseELN3spv2OpE268ELb1ELj6ELb0ELj1ELj4294967295ELj4294967295EEEEEPNS_10SPIRVEntryEv@Base 0
 (optional=templinst)_ZN5SPIRV6createINS_17SPIRVInstTemplateINS_18SPIRVGroupInstBaseELN3spv2OpE269ELb1ELj6ELb0ELj1ELj4294967295ELj4294967295EEEEEPNS_10SPIRVEntryEv@Base 0
 (optional=templinst)_ZN5SPIRV6createINS_17SPIRVInstTemplateINS_18SPIRVGroupInstBaseELN3spv2OpE270ELb1ELj6ELb0ELj1ELj4294967295ELj4294967295EEEEEPNS_10SPIRVEntryEv@Base 0
 (optional=templinst)_ZN5SPIRV6createINS_17SPIRVInstTemplateINS_18SPIRVGroupInstBaseELN3spv2OpE271ELb1ELj6ELb0ELj1ELj4294967295ELj4294967295EEEEEPNS_10SPIRVEntryEv@Base 0
 (optional=templinst)_ZN5SPIRV6createINS_17SPIRVInstTemplateINS_18SPIRVGroupInstBaseELN3spv2OpE285ELb1ELj8ELb0ELj4294967295ELj4294967295ELj4294967295EEEEEPNS_10SPIRVEntryEv@Base 0
 (optional=templinst)_ZN5SPIRV6createINS_17SPIRVInstTemplateINS_18SPIRVGroupInstBaseELN3spv2OpE286ELb1ELj8ELb0ELj4294967295ELj4294967295ELj4294967295EEEEEPNS_10SPIRVEntryEv@Base 0
 (optional=templinst)_ZN5SPIRV6createINS_17SPIRVInstTemplateINS_18SPIRVGroupInstBaseELN3spv2OpE287ELb0ELj6ELb0ELj4294967295ELj4294967295ELj4294967295EEEEEPNS_10SPIRVEntryEv@Base 0
 (optional=templinst)_ZN5SPIRV6createINS_17SPIRVInstTemplateINS_18SPIRVGroupInstBaseELN3spv2OpE288ELb0ELj6ELb0ELj4294967295ELj4294967295ELj4294967295EEEEEPNS_10SPIRVEntryEv@Base 0
 (optional=templinst)_ZN5SPIRV6createINS_17SPIRVInstTemplateINS_18SPIRVImageInstBaseELN3spv2OpE101ELb1ELj4ELb0ELj4294967295ELj4294967295ELj4294967295EEEEEPNS_10SPIRVEntryEv@Base 0
 (optional=templinst)_ZN5SPIRV6createINS_17SPIRVInstTemplateINS_18SPIRVImageInstBaseELN3spv2OpE102ELb1ELj4ELb0ELj4294967295ELj4294967295ELj4294967295EEEEEPNS_10SPIRVEntryEv@Base 0
 (optional=templinst)_ZN5SPIRV6createINS_17SPIRVInstTemplateINS_18SPIRVImageInstBaseELN3spv2OpE103ELb1ELj5ELb0ELj4294967295ELj4294967295ELj4294967295EEEEEPNS_10SPIRVEntryEv@Base 0
 (optional=templinst)_ZN5SPIRV6createINS_17SPIRVInstTemplateINS_18SPIRVImageInstBaseELN3spv2OpE104ELb1ELj4ELb0ELj4294967295ELj4294967295ELj4294967295EEEEEPNS_10SPIRVEntryEv@Base 0
 (optional=templinst)_ZN5SPIRV6createINS_17SPIRVInstTemplateINS_18SPIRVImageInstBaseELN3spv2OpE105ELb1ELj5ELb0ELj4294967295ELj4294967295ELj4294967295EEEEEPNS_10SPIRVEntryEv@Base 0
 (optional=templinst)_ZN5SPIRV6createINS_17SPIRVInstTemplateINS_18SPIRVImageInstBaseELN3spv2OpE106ELb1ELj4ELb0ELj4294967295ELj4294967295ELj4294967295EEEEEPNS_10SPIRVEntryEv@Base 0
 (optional=templinst)_ZN5SPIRV6createINS_17SPIRVInstTemplateINS_18SPIRVImageInstBaseELN3spv2OpE107ELb1ELj4ELb0ELj4294967295ELj4294967295ELj4294967295EEEEEPNS_10SPIRVEntryEv@Base 0
 (optional=templinst)_ZN5SPIRV6createINS_17SPIRVInstTemplateINS_18SPIRVImageInstBaseELN3spv2OpE86ELb1ELj5ELb0ELj4294967295ELj4294967295ELj4294967295EEEEEPNS_10SPIRVEntryEv@Base 0
 (optional=templinst)_ZN5SPIRV6createINS_17SPIRVInstTemplateINS_18SPIRVImageInstBaseELN3spv2OpE87ELb1ELj5ELb1ELj4294967295ELj4294967295ELj4294967295EEEEEPNS_10SPIRVEntryEv@Base 0
 (optional=templinst)_ZN5SPIRV6createINS_17SPIRVInstTemplateINS_18SPIRVImageInstBaseELN3spv2OpE88ELb1ELj7ELb1ELj2ELj4294967295ELj4294967295EEEEEPNS_10SPIRVEntryEv@Base 0
 (optional=templinst)_ZN5SPIRV6createINS_17SPIRVInstTemplateINS_18SPIRVImageInstBaseELN3spv2OpE98ELb1ELj5ELb1ELj2ELj4294967295ELj4294967295EEEEEPNS_10SPIRVEntryEv@Base 0
 (optional=templinst)_ZN5SPIRV6createINS_17SPIRVInstTemplateINS_18SPIRVImageInstBaseELN3spv2OpE99ELb0ELj4ELb1ELj3ELj4294967295ELj4294967295EEEEEPNS_10SPIRVEntryEv@Base 0
 (optional=templinst)_ZN5SPIRV6createINS_17SPIRVInstTemplateINS_19SPIRVAtomicInstBaseELN3spv2OpE225ELb0ELj3ELb0ELj4294967295ELj4294967295ELj4294967295EEEEEPNS_10SPIRVEntryEv@Base 0
 (optional=templinst)_ZN5SPIRV6createINS_17SPIRVInstTemplateINS_19SPIRVAtomicInstBaseELN3spv2OpE227ELb1ELj6ELb0ELj4294967295ELj4294967295ELj4294967295EEEEEPNS_10SPIRVEntryEv@Base 0
 (optional=templinst)_ZN5SPIRV6createINS_17SPIRVInstTemplateINS_19SPIRVAtomicInstBaseELN3spv2OpE228ELb0ELj5ELb0ELj4294967295ELj4294967295ELj4294967295EEEEEPNS_10SPIRVEntryEv@Base 0
 (optional=templinst)_ZN5SPIRV6createINS_17SPIRVInstTemplateINS_19SPIRVAtomicInstBaseELN3spv2OpE229ELb1ELj7ELb0ELj4294967295ELj4294967295ELj4294967295EEEEEPNS_10SPIRVEntryEv@Base 0
 (optional=templinst)_ZN5SPIRV6createINS_17SPIRVInstTemplateINS_19SPIRVAtomicInstBaseELN3spv2OpE230ELb1ELj9ELb0ELj4294967295ELj4294967295ELj4294967295EEEEEPNS_10SPIRVEntryEv@Base 0
 (optional=templinst)_ZN5SPIRV6createINS_17SPIRVInstTemplateINS_19SPIRVAtomicInstBaseELN3spv2OpE231ELb1ELj9ELb0ELj4294967295ELj4294967295ELj4294967295EEEEEPNS_10SPIRVEntryEv@Base 0
 (optional=templinst)_ZN5SPIRV6createINS_17SPIRVInstTemplateINS_19SPIRVAtomicInstBaseELN3spv2OpE232ELb1ELj6ELb0ELj4294967295ELj4294967295ELj4294967295EEEEEPNS_10SPIRVEntryEv@Base 0
 (optional=templinst)_ZN5SPIRV6createINS_17SPIRVInstTemplateINS_19SPIRVAtomicInstBaseELN3spv2OpE233ELb1ELj6ELb0ELj4294967295ELj4294967295ELj4294967295EEEEEPNS_10SPIRVEntryEv@Base 0
 (optional=templinst)_ZN5SPIRV6createINS_17SPIRVInstTemplateINS_19SPIRVAtomicInstBaseELN3spv2OpE234ELb1ELj7ELb0ELj4294967295ELj4294967295ELj4294967295EEEEEPNS_10SPIRVEntryEv@Base 0
 (optional=templinst)_ZN5SPIRV6createINS_17SPIRVInstTemplateINS_19SPIRVAtomicInstBaseELN3spv2OpE235ELb1ELj7ELb0ELj4294967295ELj4294967295ELj4294967295EEEEEPNS_10SPIRVEntryEv@Base 0
 (optional=templinst)_ZN5SPIRV6createINS_17SPIRVInstTemplateINS_19SPIRVAtomicInstBaseELN3spv2OpE236ELb1ELj7ELb0ELj4294967295ELj4294967295ELj4294967295EEEEEPNS_10SPIRVEntryEv@Base 0
 (optional=templinst)_ZN5SPIRV6createINS_17SPIRVInstTemplateINS_19SPIRVAtomicInstBaseELN3spv2OpE237ELb1ELj7ELb0ELj4294967295ELj4294967295ELj4294967295EEEEEPNS_10SPIRVEntryEv@Base 0
 (optional=templinst)_ZN5SPIRV6createINS_17SPIRVInstTemplateINS_19SPIRVAtomicInstBaseELN3spv2OpE238ELb1ELj7ELb0ELj4294967295ELj4294967295ELj4294967295EEEEEPNS_10SPIRVEntryEv@Base 0
 (optional=templinst)_ZN5SPIRV6createINS_17SPIRVInstTemplateINS_19SPIRVAtomicInstBaseELN3spv2OpE239ELb1ELj7ELb0ELj4294967295ELj4294967295ELj4294967295EEEEEPNS_10SPIRVEntryEv@Base 0
 (optional=templinst)_ZN5SPIRV6createINS_17SPIRVInstTemplateINS_19SPIRVAtomicInstBaseELN3spv2OpE240ELb1ELj7ELb0ELj4294967295ELj4294967295ELj4294967295EEEEEPNS_10SPIRVEntryEv@Base 0
 (optional=templinst)_ZN5SPIRV6createINS_17SPIRVInstTemplateINS_19SPIRVAtomicInstBaseELN3spv2OpE241ELb1ELj7ELb0ELj4294967295ELj4294967295ELj4294967295EEEEEPNS_10SPIRVEntryEv@Base 0
 (optional=templinst)_ZN5SPIRV6createINS_17SPIRVInstTemplateINS_19SPIRVAtomicInstBaseELN3spv2OpE242ELb1ELj7ELb0ELj4294967295ELj4294967295ELj4294967295EEEEEPNS_10SPIRVEntryEv@Base 0
 (optional=templinst)_ZN5SPIRV6createINS_17SPIRVInstTemplateINS_19SPIRVAtomicInstBaseELN3spv2OpE318ELb1ELj6ELb0ELj4294967295ELj4294967295ELj4294967295EEEEEPNS_10SPIRVEntryEv@Base 0
 (optional=templinst)_ZN5SPIRV6createINS_17SPIRVInstTemplateINS_19SPIRVAtomicInstBaseELN3spv2OpE319ELb0ELj4ELb0ELj4294967295ELj4294967295ELj4294967295EEEEEPNS_10SPIRVEntryEv@Base 0
 (optional=templinst)_ZN5SPIRV6createINS_17SPIRVInstTemplateINS_19SPIRVDevEnqInstBaseELN3spv2OpE291ELb1ELj7ELb0ELj4294967295ELj4294967295ELj4294967295EEEEEPNS_10SPIRVEntryEv@Base 0
 (optional=templinst)_ZN5SPIRV6createINS_17SPIRVInstTemplateINS_19SPIRVDevEnqInstBaseELN3spv2OpE292ELb1ELj13ELb1ELj4294967295ELj4294967295ELj4294967295EEEEEPNS_10SPIRVEntryEv@Base 0
 (optional=templinst)_ZN5SPIRV6createINS_17SPIRVInstTemplateINS_19SPIRVDevEnqInstBaseELN3spv2OpE293ELb1ELj8ELb0ELj4294967295ELj4294967295ELj4294967295EEEEEPNS_10SPIRVEntryEv@Base 0
 (optional=templinst)_ZN5SPIRV6createINS_17SPIRVInstTemplateINS_19SPIRVDevEnqInstBaseELN3spv2OpE294ELb1ELj8ELb0ELj4294967295ELj4294967295ELj4294967295EEEEEPNS_10SPIRVEntryEv@Base 0
 (optional=templinst)_ZN5SPIRV6createINS_17SPIRVInstTemplateINS_19SPIRVDevEnqInstBaseELN3spv2OpE295ELb1ELj7ELb0ELj4294967295ELj4294967295ELj4294967295EEEEEPNS_10SPIRVEntryEv@Base 0
 (optional=templinst)_ZN5SPIRV6createINS_17SPIRVInstTemplateINS_19SPIRVDevEnqInstBaseELN3spv2OpE296ELb1ELj7ELb0ELj4294967295ELj4294967295ELj4294967295EEEEEPNS_10SPIRVEntryEv@Base 0
 (optional=templinst)_ZN5SPIRV6createINS_17SPIRVInstTemplateINS_19SPIRVDevEnqInstBaseELN3spv2OpE297ELb0ELj2ELb0ELj4294967295ELj4294967295ELj4294967295EEEEEPNS_10SPIRVEntryEv@Base 0
 (optional=templinst)_ZN5SPIRV6createINS_17SPIRVInstTemplateINS_19SPIRVDevEnqInstBaseELN3spv2OpE298ELb0ELj2ELb0ELj4294967295ELj4294967295ELj4294967295EEEEEPNS_10SPIRVEntryEv@Base 0
 (optional=templinst)_ZN5SPIRV6createINS_17SPIRVInstTemplateINS_19SPIRVDevEnqInstBaseELN3spv2OpE299ELb1ELj3ELb0ELj4294967295ELj4294967295ELj4294967295EEEEEPNS_10SPIRVEntryEv@Base 0
 (optional=templinst)_ZN5SPIRV6createINS_17SPIRVInstTemplateINS_19SPIRVDevEnqInstBaseELN3spv2OpE300ELb1ELj4ELb0ELj4294967295ELj4294967295ELj4294967295EEEEEPNS_10SPIRVEntryEv@Base 0
 (optional=templinst)_ZN5SPIRV6createINS_17SPIRVInstTemplateINS_19SPIRVDevEnqInstBaseELN3spv2OpE301ELb0ELj3ELb0ELj4294967295ELj4294967295ELj4294967295EEEEEPNS_10SPIRVEntryEv@Base 0
 (optional=templinst)_ZN5SPIRV6createINS_17SPIRVInstTemplateINS_19SPIRVDevEnqInstBaseELN3spv2OpE302ELb0ELj4ELb0ELj4294967295ELj4294967295ELj4294967295EEEEEPNS_10SPIRVEntryEv@Base 0
 (optional=templinst)_ZN5SPIRV6createINS_17SPIRVInstTemplateINS_19SPIRVDevEnqInstBaseELN3spv2OpE303ELb1ELj3ELb0ELj4294967295ELj4294967295ELj4294967295EEEEEPNS_10SPIRVEntryEv@Base 0
 (optional=templinst)_ZN5SPIRV6createINS_17SPIRVInstTemplateINS_19SPIRVDevEnqInstBaseELN3spv2OpE304ELb1ELj6ELb0ELj4294967295ELj4294967295ELj4294967295EEEEEPNS_10SPIRVEntryEv@Base 0
 (optional=templinst)_ZN5SPIRV6createINS_17SPIRVInstTemplateINS_21SPIRVInstTemplateBaseELN3spv2OpE123ELb1ELj5ELb0ELj1ELj4294967295ELj4294967295EEEEEPNS_10SPIRVEntryEv@Base 0
 (optional=templinst)_ZN5SPIRV6createINS_17SPIRVInstTemplateINS_21SPIRVInstTemplateBaseELN3spv2OpE52ELb1ELj4ELb1ELj0ELj4294967295ELj4294967295EEEEEPNS_10SPIRVEntryEv@Base 0
 (optional=templinst)_ZN5SPIRV6createINS_17SPIRVInstTemplateINS_21SPIRVInstTemplateBaseELN3spv2OpE69ELb1ELj4ELb0ELj4294967295ELj4294967295ELj4294967295EEEEEPNS_10SPIRVEntryEv@Base 0
 (optional=templinst)_ZN5SPIRV6createINS_17SPIRVInstTemplateINS_22SPIRVArbFloatIntelInstELN3spv2OpE5840ELb1ELj9ELb0ELj4294967295ELj4294967295ELj4294967295EEEEEPNS_10SPIRVEntryEv@Base 0
 (optional=templinst)_ZN5SPIRV6createINS_17SPIRVInstTemplateINS_22SPIRVArbFloatIntelInstELN3spv2OpE5841ELb1ELj9ELb0ELj4294967295ELj4294967295ELj4294967295EEEEEPNS_10SPIRVEntryEv@Base 0
 (optional=templinst)_ZN5SPIRV6createINS_17SPIRVInstTemplateINS_22SPIRVArbFloatIntelInstELN3spv2OpE5842ELb1ELj8ELb0ELj4294967295ELj4294967295ELj4294967295EEEEEPNS_10SPIRVEntryEv@Base 0
 (optional=templinst)_ZN5SPIRV6createINS_17SPIRVInstTemplateINS_22SPIRVArbFloatIntelInstELN3spv2OpE5843ELb1ELj8ELb0ELj4294967295ELj4294967295ELj4294967295EEEEEPNS_10SPIRVEntryEv@Base 0
 (optional=templinst)_ZN5SPIRV6createINS_17SPIRVInstTemplateINS_22SPIRVArbFloatIntelInstELN3spv2OpE5846ELb1ELj11ELb0ELj4294967295ELj4294967295ELj4294967295EEEEEPNS_10SPIRVEntryEv@Base 0
 (optional=templinst)_ZN5SPIRV6createINS_17SPIRVInstTemplateINS_22SPIRVArbFloatIntelInstELN3spv2OpE5847ELb1ELj11ELb0ELj4294967295ELj4294967295ELj4294967295EEEEEPNS_10SPIRVEntryEv@Base 0
 (optional=templinst)_ZN5SPIRV6createINS_17SPIRVInstTemplateINS_22SPIRVArbFloatIntelInstELN3spv2OpE5848ELb1ELj11ELb0ELj4294967295ELj4294967295ELj4294967295EEEEEPNS_10SPIRVEntryEv@Base 0
 (optional=templinst)_ZN5SPIRV6createINS_17SPIRVInstTemplateINS_22SPIRVArbFloatIntelInstELN3spv2OpE5849ELb1ELj11ELb0ELj4294967295ELj4294967295ELj4294967295EEEEEPNS_10SPIRVEntryEv@Base 0
 (optional=templinst)_ZN5SPIRV6createINS_17SPIRVInstTemplateINS_22SPIRVArbFloatIntelInstELN3spv2OpE5850ELb1ELj7ELb0ELj4294967295ELj4294967295ELj4294967295EEEEEPNS_10SPIRVEntryEv@Base 0
 (optional=templinst)_ZN5SPIRV6createINS_17SPIRVInstTemplateINS_22SPIRVArbFloatIntelInstELN3spv2OpE5851ELb1ELj7ELb0ELj4294967295ELj4294967295ELj4294967295EEEEEPNS_10SPIRVEntryEv@Base 0
 (optional=templinst)_ZN5SPIRV6createINS_17SPIRVInstTemplateINS_22SPIRVArbFloatIntelInstELN3spv2OpE5852ELb1ELj7ELb0ELj4294967295ELj4294967295ELj4294967295EEEEEPNS_10SPIRVEntryEv@Base 0
 (optional=templinst)_ZN5SPIRV6createINS_17SPIRVInstTemplateINS_22SPIRVArbFloatIntelInstELN3spv2OpE5853ELb1ELj7ELb0ELj4294967295ELj4294967295ELj4294967295EEEEEPNS_10SPIRVEntryEv@Base 0
 (optional=templinst)_ZN5SPIRV6createINS_17SPIRVInstTemplateINS_22SPIRVArbFloatIntelInstELN3spv2OpE5854ELb1ELj7ELb0ELj4294967295ELj4294967295ELj4294967295EEEEEPNS_10SPIRVEntryEv@Base 0
 (optional=templinst)_ZN5SPIRV6createINS_17SPIRVInstTemplateINS_22SPIRVArbFloatIntelInstELN3spv2OpE5855ELb1ELj9ELb0ELj4294967295ELj4294967295ELj4294967295EEEEEPNS_10SPIRVEntryEv@Base 0
 (optional=templinst)_ZN5SPIRV6createINS_17SPIRVInstTemplateINS_22SPIRVArbFloatIntelInstELN3spv2OpE5856ELb1ELj9ELb0ELj4294967295ELj4294967295ELj4294967295EEEEEPNS_10SPIRVEntryEv@Base 0
 (optional=templinst)_ZN5SPIRV6createINS_17SPIRVInstTemplateINS_22SPIRVArbFloatIntelInstELN3spv2OpE5857ELb1ELj9ELb0ELj4294967295ELj4294967295ELj4294967295EEEEEPNS_10SPIRVEntryEv@Base 0
 (optional=templinst)_ZN5SPIRV6createINS_17SPIRVInstTemplateINS_22SPIRVArbFloatIntelInstELN3spv2OpE5858ELb1ELj11ELb0ELj4294967295ELj4294967295ELj4294967295EEEEEPNS_10SPIRVEntryEv@Base 0
 (optional=templinst)_ZN5SPIRV6createINS_17SPIRVInstTemplateINS_22SPIRVArbFloatIntelInstELN3spv2OpE5859ELb1ELj9ELb0ELj4294967295ELj4294967295ELj4294967295EEEEEPNS_10SPIRVEntryEv@Base 0
 (optional=templinst)_ZN5SPIRV6createINS_17SPIRVInstTemplateINS_22SPIRVArbFloatIntelInstELN3spv2OpE5860ELb1ELj9ELb0ELj4294967295ELj4294967295ELj4294967295EEEEEPNS_10SPIRVEntryEv@Base 0
 (optional=templinst)_ZN5SPIRV6createINS_17SPIRVInstTemplateINS_22SPIRVArbFloatIntelInstELN3spv2OpE5861ELb1ELj9ELb0ELj4294967295ELj4294967295ELj4294967295EEEEEPNS_10SPIRVEntryEv@Base 0
 (optional=templinst)_ZN5SPIRV6createINS_17SPIRVInstTemplateINS_22SPIRVArbFloatIntelInstELN3spv2OpE5862ELb1ELj9ELb0ELj4294967295ELj4294967295ELj4294967295EEEEEPNS_10SPIRVEntryEv@Base 0
 (optional=templinst)_ZN5SPIRV6createINS_17SPIRVInstTemplateINS_22SPIRVArbFloatIntelInstELN3spv2OpE5863ELb1ELj9ELb0ELj4294967295ELj4294967295ELj4294967295EEEEEPNS_10SPIRVEntryEv@Base 0
 (optional=templinst)_ZN5SPIRV6createINS_17SPIRVInstTemplateINS_22SPIRVArbFloatIntelInstELN3spv2OpE5864ELb1ELj9ELb0ELj4294967295ELj4294967295ELj4294967295EEEEEPNS_10SPIRVEntryEv@Base 0
 (optional=templinst)_ZN5SPIRV6createINS_17SPIRVInstTemplateINS_22SPIRVArbFloatIntelInstELN3spv2OpE5865ELb1ELj9ELb0ELj4294967295ELj4294967295ELj4294967295EEEEEPNS_10SPIRVEntryEv@Base 0
 (optional=templinst)_ZN5SPIRV6createINS_17SPIRVInstTemplateINS_22SPIRVArbFloatIntelInstELN3spv2OpE5866ELb1ELj9ELb0ELj4294967295ELj4294967295ELj4294967295EEEEEPNS_10SPIRVEntryEv@Base 0
 (optional=templinst)_ZN5SPIRV6createINS_17SPIRVInstTemplateINS_22SPIRVArbFloatIntelInstELN3spv2OpE5867ELb1ELj9ELb0ELj4294967295ELj4294967295ELj4294967295EEEEEPNS_10SPIRVEntryEv@Base 0
 (optional=templinst)_ZN5SPIRV6createINS_17SPIRVInstTemplateINS_22SPIRVArbFloatIntelInstELN3spv2OpE5868ELb1ELj9ELb0ELj4294967295ELj4294967295ELj4294967295EEEEEPNS_10SPIRVEntryEv@Base 0
 (optional=templinst)_ZN5SPIRV6createINS_17SPIRVInstTemplateINS_22SPIRVArbFloatIntelInstELN3spv2OpE5869ELb1ELj9ELb0ELj4294967295ELj4294967295ELj4294967295EEEEEPNS_10SPIRVEntryEv@Base 0
 (optional=templinst)_ZN5SPIRV6createINS_17SPIRVInstTemplateINS_22SPIRVArbFloatIntelInstELN3spv2OpE5870ELb1ELj9ELb0ELj4294967295ELj4294967295ELj4294967295EEEEEPNS_10SPIRVEntryEv@Base 0
 (optional=templinst)_ZN5SPIRV6createINS_17SPIRVInstTemplateINS_22SPIRVArbFloatIntelInstELN3spv2OpE5871ELb1ELj9ELb0ELj4294967295ELj4294967295ELj4294967295EEEEEPNS_10SPIRVEntryEv@Base 0
 (optional=templinst)_ZN5SPIRV6createINS_17SPIRVInstTemplateINS_22SPIRVArbFloatIntelInstELN3spv2OpE5872ELb1ELj9ELb0ELj4294967295ELj4294967295ELj4294967295EEEEEPNS_10SPIRVEntryEv@Base 0
 (optional=templinst)_ZN5SPIRV6createINS_17SPIRVInstTemplateINS_22SPIRVArbFloatIntelInstELN3spv2OpE5873ELb1ELj9ELb0ELj4294967295ELj4294967295ELj4294967295EEEEEPNS_10SPIRVEntryEv@Base 0
 (optional=templinst)_ZN5SPIRV6createINS_17SPIRVInstTemplateINS_22SPIRVArbFloatIntelInstELN3spv2OpE5874ELb1ELj9ELb0ELj4294967295ELj4294967295ELj4294967295EEEEEPNS_10SPIRVEntryEv@Base 0
 (optional=templinst)_ZN5SPIRV6createINS_17SPIRVInstTemplateINS_22SPIRVArbFloatIntelInstELN3spv2OpE5875ELb1ELj9ELb0ELj4294967295ELj4294967295ELj4294967295EEEEEPNS_10SPIRVEntryEv@Base 0
 (optional=templinst)_ZN5SPIRV6createINS_17SPIRVInstTemplateINS_22SPIRVArbFloatIntelInstELN3spv2OpE5876ELb1ELj9ELb0ELj4294967295ELj4294967295ELj4294967295EEEEEPNS_10SPIRVEntryEv@Base 0
 (optional=templinst)_ZN5SPIRV6createINS_17SPIRVInstTemplateINS_22SPIRVArbFloatIntelInstELN3spv2OpE5877ELb1ELj9ELb0ELj4294967295ELj4294967295ELj4294967295EEEEEPNS_10SPIRVEntryEv@Base 0
 (optional=templinst)_ZN5SPIRV6createINS_17SPIRVInstTemplateINS_22SPIRVArbFloatIntelInstELN3spv2OpE5878ELb1ELj9ELb0ELj4294967295ELj4294967295ELj4294967295EEEEEPNS_10SPIRVEntryEv@Base 0
 (optional=templinst)_ZN5SPIRV6createINS_17SPIRVInstTemplateINS_22SPIRVArbFloatIntelInstELN3spv2OpE5879ELb1ELj11ELb0ELj4294967295ELj4294967295ELj4294967295EEEEEPNS_10SPIRVEntryEv@Base 0
 (optional=templinst)_ZN5SPIRV6createINS_17SPIRVInstTemplateINS_22SPIRVArbFloatIntelInstELN3spv2OpE5880ELb1ELj11ELb0ELj4294967295ELj4294967295ELj4294967295EEEEEPNS_10SPIRVEntryEv@Base 0
 (optional=templinst)_ZN5SPIRV6createINS_17SPIRVInstTemplateINS_22SPIRVArbFloatIntelInstELN3spv2OpE5881ELb1ELj11ELb0ELj4294967295ELj4294967295ELj4294967295EEEEEPNS_10SPIRVEntryEv@Base 0
 (optional=templinst)_ZN5SPIRV6createINS_17SPIRVInstTemplateINS_22SPIRVArbFloatIntelInstELN3spv2OpE5882ELb1ELj10ELb0ELj4294967295ELj4294967295ELj4294967295EEEEEPNS_10SPIRVEntryEv@Base 0
 (optional=templinst)_ZN5SPIRV6createINS_17SPIRVInstTemplateINS_24SPIRVExpectINTELInstBaseELN3spv2OpE5631ELb1ELj5ELb0ELj4294967295ELj4294967295ELj4294967295EEEEEPNS_10SPIRVEntryEv@Base 0
 (optional=templinst)_ZN5SPIRV6createINS_17SPIRVInstTemplateINS_24SPIRVPipeStorageInstBaseELN3spv2OpE324ELb1ELj4ELb0ELj4294967295ELj4294967295ELj4294967295EEEEEPNS_10SPIRVEntryEv@Base 0
 (optional=templinst)_ZN5SPIRV6createINS_17SPIRVInstTemplateINS_25SPIRVFPGARegINTELInstBaseELN3spv2OpE5949ELb1ELj4ELb0ELj4294967295ELj4294967295ELj4294967295EEEEEPNS_10SPIRVEntryEv@Base 0
 (optional=templinst)_ZN5SPIRV6createINS_17SPIRVInstTemplateINS_27SPIRVBlockingPipesIntelInstELN3spv2OpE5946ELb0ELj5ELb0ELj4294967295ELj4294967295ELj4294967295EEEEEPNS_10SPIRVEntryEv@Base 0
 (optional=templinst)_ZN5SPIRV6createINS_17SPIRVInstTemplateINS_27SPIRVBlockingPipesIntelInstELN3spv2OpE5947ELb0ELj5ELb0ELj4294967295ELj4294967295ELj4294967295EEEEEPNS_10SPIRVEntryEv@Base 0
 (optional=templinst)_ZN5SPIRV6createINS_17SPIRVInstTemplateINS_28SPIRVGroupNonUniformVoteInstELN3spv2OpE334ELb1ELj5ELb0ELj4294967295ELj4294967295ELj4294967295EEEEEPNS_10SPIRVEntryEv@Base 0
 (optional=templinst)_ZN5SPIRV6createINS_17SPIRVInstTemplateINS_28SPIRVGroupNonUniformVoteInstELN3spv2OpE335ELb1ELj5ELb0ELj4294967295ELj4294967295ELj4294967295EEEEEPNS_10SPIRVEntryEv@Base 0
 (optional=templinst)_ZN5SPIRV6createINS_17SPIRVInstTemplateINS_28SPIRVGroupNonUniformVoteInstELN3spv2OpE336ELb1ELj5ELb0ELj4294967295ELj4294967295ELj4294967295EEEEEPNS_10SPIRVEntryEv@Base 0
 (optional=templinst)_ZN5SPIRV6createINS_17SPIRVInstTemplateINS_29SPIRVGroupNonUniformElectInstELN3spv2OpE333ELb1ELj4ELb0ELj4294967295ELj4294967295ELj4294967295EEEEEPNS_10SPIRVEntryEv@Base 0
 (optional=templinst)_ZN5SPIRV6createINS_17SPIRVInstTemplateINS_29SPIRVSubgroupAVCIntelInstBaseELN3spv2OpE5699ELb1ELj5ELb0ELj4294967295ELj4294967295ELj4294967295EEEEEPNS_10SPIRVEntryEv@Base 0
 (optional=templinst)_ZN5SPIRV6createINS_17SPIRVInstTemplateINS_29SPIRVSubgroupAVCIntelInstBaseELN3spv2OpE5713ELb1ELj5ELb0ELj4294967295ELj4294967295ELj4294967295EEEEEPNS_10SPIRVEntryEv@Base 0
 (optional=templinst)_ZN5SPIRV6createINS_17SPIRVInstTemplateINS_29SPIRVSubgroupAVCIntelInstBaseELN3spv2OpE5714ELb1ELj5ELb0ELj4294967295ELj4294967295ELj4294967295EEEEEPNS_10SPIRVEntryEv@Base 0
 (optional=templinst)_ZN5SPIRV6createINS_17SPIRVInstTemplateINS_29SPIRVSubgroupAVCIntelInstBaseELN3spv2OpE5715ELb1ELj5ELb0ELj4294967295ELj4294967295ELj4294967295EEEEEPNS_10SPIRVEntryEv@Base 0
 (optional=templinst)_ZN5SPIRV6createINS_17SPIRVInstTemplateINS_29SPIRVSubgroupAVCIntelInstBaseELN3spv2OpE5716ELb1ELj5ELb0ELj4294967295ELj4294967295ELj4294967295EEEEEPNS_10SPIRVEntryEv@Base 0
 (optional=templinst)_ZN5SPIRV6createINS_17SPIRVInstTemplateINS_29SPIRVSubgroupAVCIntelInstBaseELN3spv2OpE5717ELb1ELj5ELb0ELj4294967295ELj4294967295ELj4294967295EEEEEPNS_10SPIRVEntryEv@Base 0
 (optional=templinst)_ZN5SPIRV6createINS_17SPIRVInstTemplateINS_29SPIRVSubgroupAVCIntelInstBaseELN3spv2OpE5718ELb1ELj5ELb0ELj4294967295ELj4294967295ELj4294967295EEEEEPNS_10SPIRVEntryEv@Base 0
 (optional=templinst)_ZN5SPIRV6createINS_17SPIRVInstTemplateINS_29SPIRVSubgroupAVCIntelInstBaseELN3spv2OpE5720ELb1ELj5ELb0ELj4294967295ELj4294967295ELj4294967295EEEEEPNS_10SPIRVEntryEv@Base 0
 (optional=templinst)_ZN5SPIRV6createINS_17SPIRVInstTemplateINS_29SPIRVSubgroupAVCIntelInstBaseELN3spv2OpE5721ELb1ELj3ELb0ELj4294967295ELj4294967295ELj4294967295EEEEEPNS_10SPIRVEntryEv@Base 0
 (optional=templinst)_ZN5SPIRV6createINS_17SPIRVInstTemplateINS_29SPIRVSubgroupAVCIntelInstBaseELN3spv2OpE5722ELb1ELj3ELb0ELj4294967295ELj4294967295ELj4294967295EEEEEPNS_10SPIRVEntryEv@Base 0
 (optional=templinst)_ZN5SPIRV6createINS_17SPIRVInstTemplateINS_29SPIRVSubgroupAVCIntelInstBaseELN3spv2OpE5723ELb1ELj3ELb0ELj4294967295ELj4294967295ELj4294967295EEEEEPNS_10SPIRVEntryEv@Base 0
 (optional=templinst)_ZN5SPIRV6createINS_17SPIRVInstTemplateINS_29SPIRVSubgroupAVCIntelInstBaseELN3spv2OpE5724ELb1ELj7ELb0ELj4294967295ELj4294967295ELj4294967295EEEEEPNS_10SPIRVEntryEv@Base 0
 (optional=templinst)_ZN5SPIRV6createINS_17SPIRVInstTemplateINS_29SPIRVSubgroupAVCIntelInstBaseELN3spv2OpE5728ELb1ELj4ELb0ELj4294967295ELj4294967295ELj4294967295EEEEEPNS_10SPIRVEntryEv@Base 0
 (optional=templinst)_ZN5SPIRV6createINS_17SPIRVInstTemplateINS_29SPIRVSubgroupAVCIntelInstBaseELN3spv2OpE5729ELb1ELj5ELb0ELj4294967295ELj4294967295ELj4294967295EEEEEPNS_10SPIRVEntryEv@Base 0
 (optional=templinst)_ZN5SPIRV6createINS_17SPIRVInstTemplateINS_29SPIRVSubgroupAVCIntelInstBaseELN3spv2OpE5730ELb1ELj5ELb0ELj4294967295ELj4294967295ELj4294967295EEEEEPNS_10SPIRVEntryEv@Base 0
 (optional=templinst)_ZN5SPIRV6createINS_17SPIRVInstTemplateINS_29SPIRVSubgroupAVCIntelInstBaseELN3spv2OpE5731ELb1ELj6ELb0ELj4294967295ELj4294967295ELj4294967295EEEEEPNS_10SPIRVEntryEv@Base 0
 (optional=templinst)_ZN5SPIRV6createINS_17SPIRVInstTemplateINS_29SPIRVSubgroupAVCIntelInstBaseELN3spv2OpE5732ELb1ELj4ELb0ELj4294967295ELj4294967295ELj4294967295EEEEEPNS_10SPIRVEntryEv@Base 0
 (optional=templinst)_ZN5SPIRV6createINS_17SPIRVInstTemplateINS_29SPIRVSubgroupAVCIntelInstBaseELN3spv2OpE5733ELb1ELj4ELb0ELj4294967295ELj4294967295ELj4294967295EEEEEPNS_10SPIRVEntryEv@Base 0
 (optional=templinst)_ZN5SPIRV6createINS_17SPIRVInstTemplateINS_29SPIRVSubgroupAVCIntelInstBaseELN3spv2OpE5734ELb1ELj4ELb0ELj4294967295ELj4294967295ELj4294967295EEEEEPNS_10SPIRVEntryEv@Base 0
 (optional=templinst)_ZN5SPIRV6createINS_17SPIRVInstTemplateINS_29SPIRVSubgroupAVCIntelInstBaseELN3spv2OpE5735ELb1ELj4ELb0ELj4294967295ELj4294967295ELj4294967295EEEEEPNS_10SPIRVEntryEv@Base 0
 (optional=templinst)_ZN5SPIRV6createINS_17SPIRVInstTemplateINS_29SPIRVSubgroupAVCIntelInstBaseELN3spv2OpE5736ELb1ELj4ELb0ELj4294967295ELj4294967295ELj4294967295EEEEEPNS_10SPIRVEntryEv@Base 0
 (optional=templinst)_ZN5SPIRV6createINS_17SPIRVInstTemplateINS_29SPIRVSubgroupAVCIntelInstBaseELN3spv2OpE5737ELb1ELj4ELb0ELj4294967295ELj4294967295ELj4294967295EEEEEPNS_10SPIRVEntryEv@Base 0
 (optional=templinst)_ZN5SPIRV6createINS_17SPIRVInstTemplateINS_29SPIRVSubgroupAVCIntelInstBaseELN3spv2OpE5738ELb1ELj4ELb0ELj4294967295ELj4294967295ELj4294967295EEEEEPNS_10SPIRVEntryEv@Base 0
 (optional=templinst)_ZN5SPIRV6createINS_17SPIRVInstTemplateINS_29SPIRVSubgroupAVCIntelInstBaseELN3spv2OpE5739ELb1ELj4ELb0ELj4294967295ELj4294967295ELj4294967295EEEEEPNS_10SPIRVEntryEv@Base 0
 (optional=templinst)_ZN5SPIRV6createINS_17SPIRVInstTemplateINS_29SPIRVSubgroupAVCIntelInstBaseELN3spv2OpE5740ELb1ELj4ELb0ELj4294967295ELj4294967295ELj4294967295EEEEEPNS_10SPIRVEntryEv@Base 0
 (optional=templinst)_ZN5SPIRV6createINS_17SPIRVInstTemplateINS_29SPIRVSubgroupAVCIntelInstBaseELN3spv2OpE5741ELb1ELj4ELb0ELj4294967295ELj4294967295ELj4294967295EEEEEPNS_10SPIRVEntryEv@Base 0
 (optional=templinst)_ZN5SPIRV6createINS_17SPIRVInstTemplateINS_29SPIRVSubgroupAVCIntelInstBaseELN3spv2OpE5742ELb1ELj4ELb0ELj4294967295ELj4294967295ELj4294967295EEEEEPNS_10SPIRVEntryEv@Base 0
 (optional=templinst)_ZN5SPIRV6createINS_17SPIRVInstTemplateINS_29SPIRVSubgroupAVCIntelInstBaseELN3spv2OpE5743ELb1ELj4ELb0ELj4294967295ELj4294967295ELj4294967295EEEEEPNS_10SPIRVEntryEv@Base 0
 (optional=templinst)_ZN5SPIRV6createINS_17SPIRVInstTemplateINS_29SPIRVSubgroupAVCIntelInstBaseELN3spv2OpE5744ELb1ELj4ELb0ELj4294967295ELj4294967295ELj4294967295EEEEEPNS_10SPIRVEntryEv@Base 0
 (optional=templinst)_ZN5SPIRV6createINS_17SPIRVInstTemplateINS_29SPIRVSubgroupAVCIntelInstBaseELN3spv2OpE5745ELb1ELj4ELb0ELj4294967295ELj4294967295ELj4294967295EEEEEPNS_10SPIRVEntryEv@Base 0
 (optional=templinst)_ZN5SPIRV6createINS_17SPIRVInstTemplateINS_29SPIRVSubgroupAVCIntelInstBaseELN3spv2OpE5746ELb1ELj6ELb0ELj4294967295ELj4294967295ELj4294967295EEEEEPNS_10SPIRVEntryEv@Base 0
 (optional=templinst)_ZN5SPIRV6createINS_17SPIRVInstTemplateINS_29SPIRVSubgroupAVCIntelInstBaseELN3spv2OpE5747ELb1ELj6ELb0ELj4294967295ELj4294967295ELj4294967295EEEEEPNS_10SPIRVEntryEv@Base 0
 (optional=templinst)_ZN5SPIRV6createINS_17SPIRVInstTemplateINS_29SPIRVSubgroupAVCIntelInstBaseELN3spv2OpE5748ELb1ELj6ELb0ELj4294967295ELj4294967295ELj4294967295EEEEEPNS_10SPIRVEntryEv@Base 0
 (optional=templinst)_ZN5SPIRV6createINS_17SPIRVInstTemplateINS_29SPIRVSubgroupAVCIntelInstBaseELN3spv2OpE5749ELb1ELj7ELb0ELj4294967295ELj4294967295ELj4294967295EEEEEPNS_10SPIRVEntryEv@Base 0
 (optional=templinst)_ZN5SPIRV6createINS_17SPIRVInstTemplateINS_29SPIRVSubgroupAVCIntelInstBaseELN3spv2OpE5750ELb1ELj5ELb0ELj4294967295ELj4294967295ELj4294967295EEEEEPNS_10SPIRVEntryEv@Base 0
 (optional=templinst)_ZN5SPIRV6createINS_17SPIRVInstTemplateINS_29SPIRVSubgroupAVCIntelInstBaseELN3spv2OpE5751ELb1ELj7ELb0ELj4294967295ELj4294967295ELj4294967295EEEEEPNS_10SPIRVEntryEv@Base 0
 (optional=templinst)_ZN5SPIRV6createINS_17SPIRVInstTemplateINS_29SPIRVSubgroupAVCIntelInstBaseELN3spv2OpE5752ELb1ELj4ELb0ELj4294967295ELj4294967295ELj4294967295EEEEEPNS_10SPIRVEntryEv@Base 0
 (optional=templinst)_ZN5SPIRV6createINS_17SPIRVInstTemplateINS_29SPIRVSubgroupAVCIntelInstBaseELN3spv2OpE5753ELb1ELj5ELb0ELj4294967295ELj4294967295ELj4294967295EEEEEPNS_10SPIRVEntryEv@Base 0
 (optional=templinst)_ZN5SPIRV6createINS_17SPIRVInstTemplateINS_29SPIRVSubgroupAVCIntelInstBaseELN3spv2OpE5754ELb1ELj4ELb0ELj4294967295ELj4294967295ELj4294967295EEEEEPNS_10SPIRVEntryEv@Base 0
 (optional=templinst)_ZN5SPIRV6createINS_17SPIRVInstTemplateINS_29SPIRVSubgroupAVCIntelInstBaseELN3spv2OpE5755ELb1ELj5ELb0ELj4294967295ELj4294967295ELj4294967295EEEEEPNS_10SPIRVEntryEv@Base 0
 (optional=templinst)_ZN5SPIRV6createINS_17SPIRVInstTemplateINS_29SPIRVSubgroupAVCIntelInstBaseELN3spv2OpE5756ELb1ELj5ELb0ELj4294967295ELj4294967295ELj4294967295EEEEEPNS_10SPIRVEntryEv@Base 0
 (optional=templinst)_ZN5SPIRV6createINS_17SPIRVInstTemplateINS_29SPIRVSubgroupAVCIntelInstBaseELN3spv2OpE5757ELb1ELj6ELb0ELj4294967295ELj4294967295ELj4294967295EEEEEPNS_10SPIRVEntryEv@Base 0
 (optional=templinst)_ZN5SPIRV6createINS_17SPIRVInstTemplateINS_29SPIRVSubgroupAVCIntelInstBaseELN3spv2OpE5758ELb1ELj7ELb0ELj4294967295ELj4294967295ELj4294967295EEEEEPNS_10SPIRVEntryEv@Base 0
 (optional=templinst)_ZN5SPIRV6createINS_17SPIRVInstTemplateINS_29SPIRVSubgroupAVCIntelInstBaseELN3spv2OpE5759ELb1ELj7ELb0ELj4294967295ELj4294967295ELj4294967295EEEEEPNS_10SPIRVEntryEv@Base 0
 (optional=templinst)_ZN5SPIRV6createINS_17SPIRVInstTemplateINS_29SPIRVSubgroupAVCIntelInstBaseELN3spv2OpE5760ELb1ELj8ELb0ELj4294967295ELj4294967295ELj4294967295EEEEEPNS_10SPIRVEntryEv@Base 0
 (optional=templinst)_ZN5SPIRV6createINS_17SPIRVInstTemplateINS_29SPIRVSubgroupAVCIntelInstBaseELN3spv2OpE5761ELb1ELj6ELb0ELj4294967295ELj4294967295ELj4294967295EEEEEPNS_10SPIRVEntryEv@Base 0
 (optional=templinst)_ZN5SPIRV6createINS_17SPIRVInstTemplateINS_29SPIRVSubgroupAVCIntelInstBaseELN3spv2OpE5762ELb1ELj7ELb0ELj4294967295ELj4294967295ELj4294967295EEEEEPNS_10SPIRVEntryEv@Base 0
 (optional=templinst)_ZN5SPIRV6createINS_17SPIRVInstTemplateINS_29SPIRVSubgroupAVCIntelInstBaseELN3spv2OpE5763ELb1ELj7ELb0ELj4294967295ELj4294967295ELj4294967295EEEEEPNS_10SPIRVEntryEv@Base 0
 (optional=templinst)_ZN5SPIRV6createINS_17SPIRVInstTemplateINS_29SPIRVSubgroupAVCIntelInstBaseELN3spv2OpE5764ELb1ELj8ELb0ELj4294967295ELj4294967295ELj4294967295EEEEEPNS_10SPIRVEntryEv@Base 0
 (optional=templinst)_ZN5SPIRV6createINS_17SPIRVInstTemplateINS_29SPIRVSubgroupAVCIntelInstBaseELN3spv2OpE5765ELb1ELj4ELb0ELj4294967295ELj4294967295ELj4294967295EEEEEPNS_10SPIRVEntryEv@Base 0
 (optional=templinst)_ZN5SPIRV6createINS_17SPIRVInstTemplateINS_29SPIRVSubgroupAVCIntelInstBaseELN3spv2OpE5766ELb1ELj4ELb0ELj4294967295ELj4294967295ELj4294967295EEEEEPNS_10SPIRVEntryEv@Base 0
 (optional=templinst)_ZN5SPIRV6createINS_17SPIRVInstTemplateINS_29SPIRVSubgroupAVCIntelInstBaseELN3spv2OpE5767ELb1ELj4ELb0ELj4294967295ELj4294967295ELj4294967295EEEEEPNS_10SPIRVEntryEv@Base 0
 (optional=templinst)_ZN5SPIRV6createINS_17SPIRVInstTemplateINS_29SPIRVSubgroupAVCIntelInstBaseELN3spv2OpE5768ELb1ELj4ELb0ELj4294967295ELj4294967295ELj4294967295EEEEEPNS_10SPIRVEntryEv@Base 0
 (optional=templinst)_ZN5SPIRV6createINS_17SPIRVInstTemplateINS_29SPIRVSubgroupAVCIntelInstBaseELN3spv2OpE5769ELb1ELj4ELb0ELj4294967295ELj4294967295ELj4294967295EEEEEPNS_10SPIRVEntryEv@Base 0
 (optional=templinst)_ZN5SPIRV6createINS_17SPIRVInstTemplateINS_29SPIRVSubgroupAVCIntelInstBaseELN3spv2OpE5770ELb1ELj5ELb0ELj4294967295ELj4294967295ELj4294967295EEEEEPNS_10SPIRVEntryEv@Base 0
 (optional=templinst)_ZN5SPIRV6createINS_17SPIRVInstTemplateINS_29SPIRVSubgroupAVCIntelInstBaseELN3spv2OpE5771ELb1ELj5ELb0ELj4294967295ELj4294967295ELj4294967295EEEEEPNS_10SPIRVEntryEv@Base 0
 (optional=templinst)_ZN5SPIRV6createINS_17SPIRVInstTemplateINS_29SPIRVSubgroupAVCIntelInstBaseELN3spv2OpE5772ELb1ELj5ELb0ELj4294967295ELj4294967295ELj4294967295EEEEEPNS_10SPIRVEntryEv@Base 0
 (optional=templinst)_ZN5SPIRV6createINS_17SPIRVInstTemplateINS_29SPIRVSubgroupAVCIntelInstBaseELN3spv2OpE5773ELb1ELj6ELb0ELj4294967295ELj4294967295ELj4294967295EEEEEPNS_10SPIRVEntryEv@Base 0
 (optional=templinst)_ZN5SPIRV6createINS_17SPIRVInstTemplateINS_29SPIRVSubgroupAVCIntelInstBaseELN3spv2OpE5774ELb1ELj6ELb0ELj4294967295ELj4294967295ELj4294967295EEEEEPNS_10SPIRVEntryEv@Base 0
 (optional=templinst)_ZN5SPIRV6createINS_17SPIRVInstTemplateINS_29SPIRVSubgroupAVCIntelInstBaseELN3spv2OpE5775ELb1ELj6ELb0ELj4294967295ELj4294967295ELj4294967295EEEEEPNS_10SPIRVEntryEv@Base 0
 (optional=templinst)_ZN5SPIRV6createINS_17SPIRVInstTemplateINS_29SPIRVSubgroupAVCIntelInstBaseELN3spv2OpE5776ELb1ELj5ELb0ELj4294967295ELj4294967295ELj4294967295EEEEEPNS_10SPIRVEntryEv@Base 0
 (optional=templinst)_ZN5SPIRV6createINS_17SPIRVInstTemplateINS_29SPIRVSubgroupAVCIntelInstBaseELN3spv2OpE5777ELb1ELj4ELb0ELj4294967295ELj4294967295ELj4294967295EEEEEPNS_10SPIRVEntryEv@Base 0
 (optional=templinst)_ZN5SPIRV6createINS_17SPIRVInstTemplateINS_29SPIRVSubgroupAVCIntelInstBaseELN3spv2OpE5778ELb1ELj4ELb0ELj4294967295ELj4294967295ELj4294967295EEEEEPNS_10SPIRVEntryEv@Base 0
 (optional=templinst)_ZN5SPIRV6createINS_17SPIRVInstTemplateINS_29SPIRVSubgroupAVCIntelInstBaseELN3spv2OpE5779ELb1ELj4ELb0ELj4294967295ELj4294967295ELj4294967295EEEEEPNS_10SPIRVEntryEv@Base 0
 (optional=templinst)_ZN5SPIRV6createINS_17SPIRVInstTemplateINS_29SPIRVSubgroupAVCIntelInstBaseELN3spv2OpE5780ELb1ELj4ELb0ELj4294967295ELj4294967295ELj4294967295EEEEEPNS_10SPIRVEntryEv@Base 0
 (optional=templinst)_ZN5SPIRV6createINS_17SPIRVInstTemplateINS_29SPIRVSubgroupAVCIntelInstBaseELN3spv2OpE5781ELb1ELj10ELb0ELj4294967295ELj4294967295ELj4294967295EEEEEPNS_10SPIRVEntryEv@Base 0
 (optional=templinst)_ZN5SPIRV6createINS_17SPIRVInstTemplateINS_29SPIRVSubgroupAVCIntelInstBaseELN3spv2OpE5782ELb1ELj11ELb0ELj4294967295ELj4294967295ELj4294967295EEEEEPNS_10SPIRVEntryEv@Base 0
 (optional=templinst)_ZN5SPIRV6createINS_17SPIRVInstTemplateINS_29SPIRVSubgroupAVCIntelInstBaseELN3spv2OpE5783ELb1ELj4ELb0ELj4294967295ELj4294967295ELj4294967295EEEEEPNS_10SPIRVEntryEv@Base 0
 (optional=templinst)_ZN5SPIRV6createINS_17SPIRVInstTemplateINS_29SPIRVSubgroupAVCIntelInstBaseELN3spv2OpE5784ELb1ELj4ELb0ELj4294967295ELj4294967295ELj4294967295EEEEEPNS_10SPIRVEntryEv@Base 0
 (optional=templinst)_ZN5SPIRV6createINS_17SPIRVInstTemplateINS_29SPIRVSubgroupAVCIntelInstBaseELN3spv2OpE5785ELb1ELj4ELb0ELj4294967295ELj4294967295ELj4294967295EEEEEPNS_10SPIRVEntryEv@Base 0
 (optional=templinst)_ZN5SPIRV6createINS_17SPIRVInstTemplateINS_29SPIRVSubgroupAVCIntelInstBaseELN3spv2OpE5786ELb1ELj6ELb0ELj4294967295ELj4294967295ELj4294967295EEEEEPNS_10SPIRVEntryEv@Base 0
 (optional=templinst)_ZN5SPIRV6createINS_17SPIRVInstTemplateINS_29SPIRVSubgroupAVCIntelInstBaseELN3spv2OpE5787ELb1ELj7ELb0ELj4294967295ELj4294967295ELj4294967295EEEEEPNS_10SPIRVEntryEv@Base 0
 (optional=templinst)_ZN5SPIRV6createINS_17SPIRVInstTemplateINS_29SPIRVSubgroupAVCIntelInstBaseELN3spv2OpE5788ELb1ELj6ELb0ELj4294967295ELj4294967295ELj4294967295EEEEEPNS_10SPIRVEntryEv@Base 0
 (optional=templinst)_ZN5SPIRV6createINS_17SPIRVInstTemplateINS_29SPIRVSubgroupAVCIntelInstBaseELN3spv2OpE5789ELb1ELj7ELb0ELj4294967295ELj4294967295ELj4294967295EEEEEPNS_10SPIRVEntryEv@Base 0
 (optional=templinst)_ZN5SPIRV6createINS_17SPIRVInstTemplateINS_29SPIRVSubgroupAVCIntelInstBaseELN3spv2OpE5790ELb1ELj4ELb0ELj4294967295ELj4294967295ELj4294967295EEEEEPNS_10SPIRVEntryEv@Base 0
 (optional=templinst)_ZN5SPIRV6createINS_17SPIRVInstTemplateINS_29SPIRVSubgroupAVCIntelInstBaseELN3spv2OpE5791ELb1ELj4ELb0ELj4294967295ELj4294967295ELj4294967295EEEEEPNS_10SPIRVEntryEv@Base 0
 (optional=templinst)_ZN5SPIRV6createINS_17SPIRVInstTemplateINS_29SPIRVSubgroupAVCIntelInstBaseELN3spv2OpE5792ELb1ELj9ELb0ELj4294967295ELj4294967295ELj4294967295EEEEEPNS_10SPIRVEntryEv@Base 0
 (optional=templinst)_ZN5SPIRV6createINS_17SPIRVInstTemplateINS_29SPIRVSubgroupAVCIntelInstBaseELN3spv2OpE5795ELb1ELj5ELb0ELj4294967295ELj4294967295ELj4294967295EEEEEPNS_10SPIRVEntryEv@Base 0
 (optional=templinst)_ZN5SPIRV6createINS_17SPIRVInstTemplateINS_29SPIRVSubgroupAVCIntelInstBaseELN3spv2OpE5796ELb1ELj4ELb0ELj4294967295ELj4294967295ELj4294967295EEEEEPNS_10SPIRVEntryEv@Base 0
 (optional=templinst)_ZN5SPIRV6createINS_17SPIRVInstTemplateINS_29SPIRVSubgroupAVCIntelInstBaseELN3spv2OpE5797ELb1ELj5ELb0ELj4294967295ELj4294967295ELj4294967295EEEEEPNS_10SPIRVEntryEv@Base 0
 (optional=templinst)_ZN5SPIRV6createINS_17SPIRVInstTemplateINS_29SPIRVSubgroupAVCIntelInstBaseELN3spv2OpE5800ELb1ELj4ELb0ELj4294967295ELj4294967295ELj4294967295EEEEEPNS_10SPIRVEntryEv@Base 0
 (optional=templinst)_ZN5SPIRV6createINS_17SPIRVInstTemplateINS_29SPIRVSubgroupAVCIntelInstBaseELN3spv2OpE5801ELb1ELj5ELb0ELj4294967295ELj4294967295ELj4294967295EEEEEPNS_10SPIRVEntryEv@Base 0
 (optional=templinst)_ZN5SPIRV6createINS_17SPIRVInstTemplateINS_29SPIRVSubgroupAVCIntelInstBaseELN3spv2OpE5802ELb1ELj5ELb0ELj4294967295ELj4294967295ELj4294967295EEEEEPNS_10SPIRVEntryEv@Base 0
 (optional=templinst)_ZN5SPIRV6createINS_17SPIRVInstTemplateINS_29SPIRVSubgroupAVCIntelInstBaseELN3spv2OpE5804ELb1ELj6ELb0ELj4294967295ELj4294967295ELj4294967295EEEEEPNS_10SPIRVEntryEv@Base 0
 (optional=templinst)_ZN5SPIRV6createINS_17SPIRVInstTemplateINS_29SPIRVSubgroupAVCIntelInstBaseELN3spv2OpE5805ELb1ELj7ELb0ELj4294967295ELj4294967295ELj4294967295EEEEEPNS_10SPIRVEntryEv@Base 0
 (optional=templinst)_ZN5SPIRV6createINS_17SPIRVInstTemplateINS_29SPIRVSubgroupAVCIntelInstBaseELN3spv2OpE5806ELb1ELj6ELb0ELj4294967295ELj4294967295ELj4294967295EEEEEPNS_10SPIRVEntryEv@Base 0
 (optional=templinst)_ZN5SPIRV6createINS_17SPIRVInstTemplateINS_29SPIRVSubgroupAVCIntelInstBaseELN3spv2OpE5807ELb1ELj7ELb0ELj4294967295ELj4294967295ELj4294967295EEEEEPNS_10SPIRVEntryEv@Base 0
 (optional=templinst)_ZN5SPIRV6createINS_17SPIRVInstTemplateINS_29SPIRVSubgroupAVCIntelInstBaseELN3spv2OpE5808ELb1ELj4ELb0ELj4294967295ELj4294967295ELj4294967295EEEEEPNS_10SPIRVEntryEv@Base 0
 (optional=templinst)_ZN5SPIRV6createINS_17SPIRVInstTemplateINS_29SPIRVSubgroupAVCIntelInstBaseELN3spv2OpE5816ELb1ELj4ELb0ELj4294967295ELj4294967295ELj4294967295EEEEEPNS_10SPIRVEntryEv@Base 0
 (optional=templinst)_ZN5SPIRV6createINS_17SPIRVInstTemplateINS_30SPIRVGroupNonUniformBallotInstELN3spv2OpE337ELb1ELj6ELb0ELj4294967295ELj4294967295ELj4294967295EEEEEPNS_10SPIRVEntryEv@Base 0
 (optional=templinst)_ZN5SPIRV6createINS_17SPIRVInstTemplateINS_30SPIRVGroupNonUniformBallotInstELN3spv2OpE338ELb1ELj5ELb0ELj4294967295ELj4294967295ELj4294967295EEEEEPNS_10SPIRVEntryEv@Base 0
 (optional=templinst)_ZN5SPIRV6createINS_17SPIRVInstTemplateINS_30SPIRVGroupNonUniformBallotInstELN3spv2OpE339ELb1ELj5ELb0ELj4294967295ELj4294967295ELj4294967295EEEEEPNS_10SPIRVEntryEv@Base 0
 (optional=templinst)_ZN5SPIRV6createINS_17SPIRVInstTemplateINS_30SPIRVGroupNonUniformBallotInstELN3spv2OpE340ELb1ELj5ELb0ELj4294967295ELj4294967295ELj4294967295EEEEEPNS_10SPIRVEntryEv@Base 0
 (optional=templinst)_ZN5SPIRV6createINS_17SPIRVInstTemplateINS_30SPIRVGroupNonUniformBallotInstELN3spv2OpE341ELb1ELj6ELb0ELj4294967295ELj4294967295ELj4294967295EEEEEPNS_10SPIRVEntryEv@Base 0
 (optional=templinst)_ZN5SPIRV6createINS_17SPIRVInstTemplateINS_30SPIRVGroupNonUniformBallotInstELN3spv2OpE342ELb1ELj6ELb0ELj1ELj4294967295ELj4294967295EEEEEPNS_10SPIRVEntryEv@Base 0
 (optional=templinst)_ZN5SPIRV6createINS_17SPIRVInstTemplateINS_30SPIRVGroupNonUniformBallotInstELN3spv2OpE343ELb1ELj5ELb0ELj4294967295ELj4294967295ELj4294967295EEEEEPNS_10SPIRVEntryEv@Base 0
 (optional=templinst)_ZN5SPIRV6createINS_17SPIRVInstTemplateINS_30SPIRVGroupNonUniformBallotInstELN3spv2OpE344ELb1ELj5ELb0ELj4294967295ELj4294967295ELj4294967295EEEEEPNS_10SPIRVEntryEv@Base 0
 (optional=templinst)_ZN5SPIRV6createINS_17SPIRVInstTemplateINS_31SPIRVGroupNonUniformShuffleInstELN3spv2OpE345ELb1ELj6ELb0ELj4294967295ELj4294967295ELj4294967295EEEEEPNS_10SPIRVEntryEv@Base 0
 (optional=templinst)_ZN5SPIRV6createINS_17SPIRVInstTemplateINS_31SPIRVGroupNonUniformShuffleInstELN3spv2OpE346ELb1ELj6ELb0ELj4294967295ELj4294967295ELj4294967295EEEEEPNS_10SPIRVEntryEv@Base 0
 (optional=templinst)_ZN5SPIRV6createINS_17SPIRVInstTemplateINS_33SPIRVSubgroupShuffleINTELInstBaseELN3spv2OpE5571ELb1ELj5ELb0ELj4294967295ELj4294967295ELj4294967295EEEEEPNS_10SPIRVEntryEv@Base 0
 (optional=templinst)_ZN5SPIRV6createINS_17SPIRVInstTemplateINS_33SPIRVSubgroupShuffleINTELInstBaseELN3spv2OpE5572ELb1ELj6ELb0ELj4294967295ELj4294967295ELj4294967295EEEEEPNS_10SPIRVEntryEv@Base 0
 (optional=templinst)_ZN5SPIRV6createINS_17SPIRVInstTemplateINS_33SPIRVSubgroupShuffleINTELInstBaseELN3spv2OpE5573ELb1ELj6ELb0ELj4294967295ELj4294967295ELj4294967295EEEEEPNS_10SPIRVEntryEv@Base 0
 (optional=templinst)_ZN5SPIRV6createINS_17SPIRVInstTemplateINS_33SPIRVSubgroupShuffleINTELInstBaseELN3spv2OpE5574ELb1ELj5ELb0ELj4294967295ELj4294967295ELj4294967295EEEEEPNS_10SPIRVEntryEv@Base 0
 (optional=templinst)_ZN5SPIRV6createINS_17SPIRVInstTemplateINS_34SPIRVGroupNonUniformArithmeticInstELN3spv2OpE349ELb1ELj6ELb1ELj1ELj4294967295ELj4294967295EEEEEPNS_10SPIRVEntryEv@Base 0
 (optional=templinst)_ZN5SPIRV6createINS_17SPIRVInstTemplateINS_34SPIRVGroupNonUniformArithmeticInstELN3spv2OpE350ELb1ELj6ELb1ELj1ELj4294967295ELj4294967295EEEEEPNS_10SPIRVEntryEv@Base 0
 (optional=templinst)_ZN5SPIRV6createINS_17SPIRVInstTemplateINS_34SPIRVGroupNonUniformArithmeticInstELN3spv2OpE351ELb1ELj6ELb1ELj1ELj4294967295ELj4294967295EEEEEPNS_10SPIRVEntryEv@Base 0
 (optional=templinst)_ZN5SPIRV6createINS_17SPIRVInstTemplateINS_34SPIRVGroupNonUniformArithmeticInstELN3spv2OpE352ELb1ELj6ELb1ELj1ELj4294967295ELj4294967295EEEEEPNS_10SPIRVEntryEv@Base 0
 (optional=templinst)_ZN5SPIRV6createINS_17SPIRVInstTemplateINS_34SPIRVGroupNonUniformArithmeticInstELN3spv2OpE353ELb1ELj6ELb1ELj1ELj4294967295ELj4294967295EEEEEPNS_10SPIRVEntryEv@Base 0
 (optional=templinst)_ZN5SPIRV6createINS_17SPIRVInstTemplateINS_34SPIRVGroupNonUniformArithmeticInstELN3spv2OpE354ELb1ELj6ELb1ELj1ELj4294967295ELj4294967295EEEEEPNS_10SPIRVEntryEv@Base 0
 (optional=templinst)_ZN5SPIRV6createINS_17SPIRVInstTemplateINS_34SPIRVGroupNonUniformArithmeticInstELN3spv2OpE355ELb1ELj6ELb1ELj1ELj4294967295ELj4294967295EEEEEPNS_10SPIRVEntryEv@Base 0
 (optional=templinst)_ZN5SPIRV6createINS_17SPIRVInstTemplateINS_34SPIRVGroupNonUniformArithmeticInstELN3spv2OpE356ELb1ELj6ELb1ELj1ELj4294967295ELj4294967295EEEEEPNS_10SPIRVEntryEv@Base 0
 (optional=templinst)_ZN5SPIRV6createINS_17SPIRVInstTemplateINS_34SPIRVGroupNonUniformArithmeticInstELN3spv2OpE357ELb1ELj6ELb1ELj1ELj4294967295ELj4294967295EEEEEPNS_10SPIRVEntryEv@Base 0
 (optional=templinst)_ZN5SPIRV6createINS_17SPIRVInstTemplateINS_34SPIRVGroupNonUniformArithmeticInstELN3spv2OpE358ELb1ELj6ELb1ELj1ELj4294967295ELj4294967295EEEEEPNS_10SPIRVEntryEv@Base 0
 (optional=templinst)_ZN5SPIRV6createINS_17SPIRVInstTemplateINS_34SPIRVGroupNonUniformArithmeticInstELN3spv2OpE359ELb1ELj6ELb1ELj1ELj4294967295ELj4294967295EEEEEPNS_10SPIRVEntryEv@Base 0
 (optional=templinst)_ZN5SPIRV6createINS_17SPIRVInstTemplateINS_34SPIRVGroupNonUniformArithmeticInstELN3spv2OpE360ELb1ELj6ELb1ELj1ELj4294967295ELj4294967295EEEEEPNS_10SPIRVEntryEv@Base 0
 (optional=templinst)_ZN5SPIRV6createINS_17SPIRVInstTemplateINS_34SPIRVGroupNonUniformArithmeticInstELN3spv2OpE361ELb1ELj6ELb1ELj1ELj4294967295ELj4294967295EEEEEPNS_10SPIRVEntryEv@Base 0
 (optional=templinst)_ZN5SPIRV6createINS_17SPIRVInstTemplateINS_34SPIRVGroupNonUniformArithmeticInstELN3spv2OpE362ELb1ELj6ELb1ELj1ELj4294967295ELj4294967295EEEEEPNS_10SPIRVEntryEv@Base 0
 (optional=templinst)_ZN5SPIRV6createINS_17SPIRVInstTemplateINS_34SPIRVGroupNonUniformArithmeticInstELN3spv2OpE363ELb1ELj6ELb1ELj1ELj4294967295ELj4294967295EEEEEPNS_10SPIRVEntryEv@Base 0
 (optional=templinst)_ZN5SPIRV6createINS_17SPIRVInstTemplateINS_34SPIRVGroupNonUniformArithmeticInstELN3spv2OpE364ELb1ELj6ELb1ELj1ELj4294967295ELj4294967295EEEEEPNS_10SPIRVEntryEv@Base 0
 (optional=templinst)_ZN5SPIRV6createINS_17SPIRVInstTemplateINS_34SPIRVSubgroupAVCIntelInstBaseIntraELN3spv2OpE5719ELb1ELj5ELb0ELj4294967295ELj4294967295ELj4294967295EEEEEPNS_10SPIRVEntryEv@Base 0
 (optional=templinst)_ZN5SPIRV6createINS_17SPIRVInstTemplateINS_34SPIRVSubgroupAVCIntelInstBaseIntraELN3spv2OpE5725ELb1ELj5ELb0ELj4294967295ELj4294967295ELj4294967295EEEEEPNS_10SPIRVEntryEv@Base 0
 (optional=templinst)_ZN5SPIRV6createINS_17SPIRVInstTemplateINS_34SPIRVSubgroupAVCIntelInstBaseIntraELN3spv2OpE5726ELb1ELj3ELb0ELj4294967295ELj4294967295ELj4294967295EEEEEPNS_10SPIRVEntryEv@Base 0
 (optional=templinst)_ZN5SPIRV6createINS_17SPIRVInstTemplateINS_34SPIRVSubgroupAVCIntelInstBaseIntraELN3spv2OpE5793ELb1ELj11ELb0ELj4294967295ELj4294967295ELj4294967295EEEEEPNS_10SPIRVEntryEv@Base 0
 (optional=templinst)_ZN5SPIRV6createINS_17SPIRVInstTemplateINS_34SPIRVSubgroupAVCIntelInstBaseIntraELN3spv2OpE5798ELb1ELj7ELb0ELj4294967295ELj4294967295ELj4294967295EEEEEPNS_10SPIRVEntryEv@Base 0
 (optional=templinst)_ZN5SPIRV6createINS_17SPIRVInstTemplateINS_34SPIRVSubgroupAVCIntelInstBaseIntraELN3spv2OpE5803ELb1ELj5ELb0ELj4294967295ELj4294967295ELj4294967295EEEEEPNS_10SPIRVEntryEv@Base 0
 (optional=templinst)_ZN5SPIRV6createINS_17SPIRVInstTemplateINS_34SPIRVSubgroupAVCIntelInstBaseIntraELN3spv2OpE5809ELb1ELj4ELb0ELj4294967295ELj4294967295ELj4294967295EEEEEPNS_10SPIRVEntryEv@Base 0
 (optional=templinst)_ZN5SPIRV6createINS_17SPIRVInstTemplateINS_34SPIRVSubgroupAVCIntelInstBaseIntraELN3spv2OpE5810ELb1ELj4ELb0ELj4294967295ELj4294967295ELj4294967295EEEEEPNS_10SPIRVEntryEv@Base 0
 (optional=templinst)_ZN5SPIRV6createINS_17SPIRVInstTemplateINS_34SPIRVSubgroupAVCIntelInstBaseIntraELN3spv2OpE5812ELb1ELj4ELb0ELj4294967295ELj4294967295ELj4294967295EEEEEPNS_10SPIRVEntryEv@Base 0
 (optional=templinst)_ZN5SPIRV6createINS_17SPIRVInstTemplateINS_34SPIRVSubgroupAVCIntelInstBaseIntraELN3spv2OpE5814ELb1ELj4ELb0ELj4294967295ELj4294967295ELj4294967295EEEEEPNS_10SPIRVEntryEv@Base 0
 (optional=templinst)_ZN5SPIRV6createINS_17SPIRVInstTemplateINS_34SPIRVSubgroupAVCIntelInstBaseIntraELN3spv2OpE5815ELb1ELj4ELb0ELj4294967295ELj4294967295ELj4294967295EEEEEPNS_10SPIRVEntryEv@Base 0
 (optional=templinst)_ZN5SPIRV6createINS_17SPIRVInstTemplateINS_35SPIRVSubgroupAVCIntelInstBaseChromaELN3spv2OpE5727ELb1ELj3ELb0ELj4294967295ELj4294967295ELj4294967295EEEEEPNS_10SPIRVEntryEv@Base 0
 (optional=templinst)_ZN5SPIRV6createINS_17SPIRVInstTemplateINS_35SPIRVSubgroupAVCIntelInstBaseChromaELN3spv2OpE5794ELb1ELj14ELb0ELj4294967295ELj4294967295ELj4294967295EEEEEPNS_10SPIRVEntryEv@Base 0
 (optional=templinst)_ZN5SPIRV6createINS_17SPIRVInstTemplateINS_35SPIRVSubgroupAVCIntelInstBaseChromaELN3spv2OpE5799ELb1ELj5ELb0ELj4294967295ELj4294967295ELj4294967295EEEEEPNS_10SPIRVEntryEv@Base 0
 (optional=templinst)_ZN5SPIRV6createINS_17SPIRVInstTemplateINS_35SPIRVSubgroupAVCIntelInstBaseChromaELN3spv2OpE5811ELb1ELj4ELb0ELj4294967295ELj4294967295ELj4294967295EEEEEPNS_10SPIRVEntryEv@Base 0
 (optional=templinst)_ZN5SPIRV6createINS_17SPIRVInstTemplateINS_35SPIRVSubgroupAVCIntelInstBaseChromaELN3spv2OpE5813ELb1ELj4ELb0ELj4294967295ELj4294967295ELj4294967295EEEEEPNS_10SPIRVEntryEv@Base 0
 (optional=templinst)_ZN5SPIRV6createINS_17SPIRVInstTemplateINS_38SPIRVSubgroupImageBlockIOINTELInstBaseELN3spv2OpE5577ELb1ELj5ELb0ELj4294967295ELj4294967295ELj4294967295EEEEEPNS_10SPIRVEntryEv@Base 0
 (optional=templinst)_ZN5SPIRV6createINS_17SPIRVInstTemplateINS_38SPIRVSubgroupImageBlockIOINTELInstBaseELN3spv2OpE5578ELb0ELj4ELb0ELj4294967295ELj4294967295ELj4294967295EEEEEPNS_10SPIRVEntryEv@Base 0
 (optional=templinst)_ZN5SPIRV6createINS_17SPIRVInstTemplateINS_39SPIRVGroupNonUniformShuffleRelativeInstELN3spv2OpE347ELb1ELj6ELb0ELj4294967295ELj4294967295ELj4294967295EEEEEPNS_10SPIRVEntryEv@Base 0
 (optional=templinst)_ZN5SPIRV6createINS_17SPIRVInstTemplateINS_39SPIRVGroupNonUniformShuffleRelativeInstELN3spv2OpE348ELb1ELj6ELb0ELj4294967295ELj4294967295ELj4294967295EEEEEPNS_10SPIRVEntryEv@Base 0
 (optional=templinst)_ZN5SPIRV6createINS_17SPIRVInstTemplateINS_39SPIRVSubgroupBufferBlockIOINTELInstBaseELN3spv2OpE5575ELb1ELj4ELb0ELj4294967295ELj4294967295ELj4294967295EEEEEPNS_10SPIRVEntryEv@Base 0
 (optional=templinst)_ZN5SPIRV6createINS_17SPIRVInstTemplateINS_39SPIRVSubgroupBufferBlockIOINTELInstBaseELN3spv2OpE5576ELb0ELj3ELb0ELj4294967295ELj4294967295ELj4294967295EEEEEPNS_10SPIRVEntryEv@Base 0
 (optional=templinst)_ZN5SPIRV6createINS_17SPIRVInstTemplateINS_43SPIRVSubgroupImageMediaBlockIOINTELInstBaseELN3spv2OpE5580ELb1ELj7ELb0ELj4294967295ELj4294967295ELj4294967295EEEEEPNS_10SPIRVEntryEv@Base 0
 (optional=templinst)_ZN5SPIRV6createINS_17SPIRVInstTemplateINS_43SPIRVSubgroupImageMediaBlockIOINTELInstBaseELN3spv2OpE5581ELb0ELj6ELb0ELj4294967295ELj4294967295ELj4294967295EEEEEPNS_10SPIRVEntryEv@Base 0
 (optional=templinst)_ZN5SPIRV6createINS_17SPIRVTypeFunctionEEEPNS_10SPIRVEntryEv@Base 0
 (optional=templinst)_ZN5SPIRV6createINS_18SPIRVExecutionModeEEEPNS_10SPIRVEntryEv@Base 0
 (optional=templinst)_ZN5SPIRV6createINS_18SPIRVExtInstImportEEEPNS_10SPIRVEntryEv@Base 0
 (optional=templinst)_ZN5SPIRV6createINS_18SPIRVGroupDecorateEEEPNS_10SPIRVEntryEv@Base 0
 (optional=templinst)_ZN5SPIRV6createINS_18SPIRVInstNoOperandILN3spv2OpE253EEEEEPNS_10SPIRVEntryEv@Base 0
 (optional=templinst)_ZN5SPIRV6createINS_18SPIRVInstNoOperandILN3spv2OpE255EEEEEPNS_10SPIRVEntryEv@Base 0
 (optional=templinst)_ZN5SPIRV6createINS_18SPIRVVectorShuffleEEEPNS_10SPIRVEntryEv@Base 0
 (optional=templinst)_ZN5SPIRV6createINS_19SPIRVAsmTargetINTELEEEPNS_10SPIRVEntryEv@Base 0
 (optional=templinst)_ZN5SPIRV6createINS_19SPIRVControlBarrierEEEPNS_10SPIRVEntryEv@Base 0
 (optional=templinst)_ZN5SPIRV6createINS_19SPIRVGroupAsyncCopyEEEPNS_10SPIRVEntryEv@Base 0
 (optional=templinst)_ZN5SPIRV6createINS_19SPIRVMemberDecorateEEEPNS_10SPIRVEntryEv@Base 0
 (optional=templinst)_ZN5SPIRV6createINS_19SPIRVSelectionMergeEEEPNS_10SPIRVEntryEv@Base 0
 (optional=templinst)_ZN5SPIRV6createINS_20SPIRVAssumeTrueINTELEEEPNS_10SPIRVEntryEv@Base 0
 (optional=templinst)_ZN5SPIRV6createINS_20SPIRVCompositeInsertEEEPNS_10SPIRVEntryEv@Base 0
 (optional=templinst)_ZN5SPIRV6createINS_20SPIRVConstantSamplerEEEPNS_10SPIRVEntryEv@Base 0
 (optional=templinst)_ZN5SPIRV6createINS_20SPIRVCopyMemorySizedEEEPNS_10SPIRVEntryEv@Base 0
 (optional=templinst)_ZN5SPIRV6createINS_20SPIRVDecorationGroupEEEPNS_10SPIRVEntryEv@Base 0
 (optional=templinst)_ZN5SPIRV6createINS_20SPIRVEntryOpCodeOnlyILN3spv2OpE56EEEEEPNS_10SPIRVEntryEv@Base 0
 (optional=templinst)_ZN5SPIRV6createINS_20SPIRVSourceExtensionEEEPNS_10SPIRVEntryEv@Base 0
 (optional=templinst)_ZN5SPIRV6createINS_20SPIRVTypeDeviceEventEEEPNS_10SPIRVEntryEv@Base 0
 (optional=templinst)_ZN5SPIRV6createINS_20SPIRVTypePipeStorageEEEPNS_10SPIRVEntryEv@Base 0
 (optional=templinst)_ZN5SPIRV6createINS_21SPIRVCompositeExtractEEEPNS_10SPIRVEntryEv@Base 0
 (optional=templinst)_ZN5SPIRV6createINS_21SPIRVLoopControlINTELEEEPNS_10SPIRVEntryEv@Base 0
 (optional=templinst)_ZN5SPIRV6createINS_21SPIRVTypeSampledImageEEEPNS_10SPIRVEntryEv@Base 0
 (optional=templinst)_ZN5SPIRV6createINS_22SPIRVBranchConditionalEEEPNS_10SPIRVEntryEv@Base 0
 (optional=templinst)_ZN5SPIRV6createINS_22SPIRVFunctionParameterEEEPNS_10SPIRVEntryEv@Base 0
 (optional=templinst)_ZN5SPIRV6createINS_22SPIRVMatrixTimesMatrixEEEPNS_10SPIRVEntryEv@Base 0
 (optional=templinst)_ZN5SPIRV6createINS_22SPIRVMatrixTimesScalarEEEPNS_10SPIRVEntryEv@Base 0
 (optional=templinst)_ZN5SPIRV6createINS_22SPIRVMatrixTimesVectorEEEPNS_10SPIRVEntryEv@Base 0
 (optional=templinst)_ZN5SPIRV6createINS_22SPIRVOpaqueGenericTypeILN3spv2OpE34EEEEEPNS_10SPIRVEntryEv@Base 0
 (optional=templinst)_ZN5SPIRV6createINS_22SPIRVOpaqueGenericTypeILN3spv2OpE36EEEEEPNS_10SPIRVEntryEv@Base 0
 (optional=templinst)_ZN5SPIRV6createINS_22SPIRVTypeVmeImageINTELEEEPNS_10SPIRVEntryEv@Base 0
 (optional=templinst)_ZN5SPIRV6createINS_22SPIRVVectorTimesMatrixEEEPNS_10SPIRVEntryEv@Base 0
 (optional=templinst)_ZN5SPIRV6createINS_22SPIRVVectorTimesScalarEEEPNS_10SPIRVEntryEv@Base 0
 (optional=templinst)_ZN5SPIRV6createINS_23SPIRVAccessChainGenericILN3spv2OpE65ELj4EEEEEPNS_10SPIRVEntryEv@Base 0
 (optional=templinst)_ZN5SPIRV6createINS_23SPIRVAccessChainGenericILN3spv2OpE66ELj4EEEEEPNS_10SPIRVEntryEv@Base 0
 (optional=templinst)_ZN5SPIRV6createINS_23SPIRVAccessChainGenericILN3spv2OpE67ELj5EEEEEPNS_10SPIRVEntryEv@Base 0
 (optional=templinst)_ZN5SPIRV6createINS_23SPIRVAccessChainGenericILN3spv2OpE70ELj5EEEEEPNS_10SPIRVEntryEv@Base 0
 (optional=templinst)_ZN5SPIRV6createINS_23SPIRVCompositeConstructEEEPNS_10SPIRVEntryEv@Base 0
 (optional=templinst)_ZN5SPIRV6createINS_23SPIRVEntryUnimplementedILN3spv2OpE0EEEEEPNS_10SPIRVEntryEv@Base 0
 (optional=templinst)_ZN5SPIRV6createINS_23SPIRVEntryUnimplementedILN3spv2OpE100EEEEEPNS_10SPIRVEntryEv@Base 0
 (optional=templinst)_ZN5SPIRV6createINS_23SPIRVEntryUnimplementedILN3spv2OpE116EEEEEPNS_10SPIRVEntryEv@Base 0
 (optional=templinst)_ZN5SPIRV6createINS_23SPIRVEntryUnimplementedILN3spv2OpE147EEEEEPNS_10SPIRVEntryEv@Base 0
 (optional=templinst)_ZN5SPIRV6createINS_23SPIRVEntryUnimplementedILN3spv2OpE149EEEEEPNS_10SPIRVEntryEv@Base 0
 (optional=templinst)_ZN5SPIRV6createINS_23SPIRVEntryUnimplementedILN3spv2OpE150EEEEEPNS_10SPIRVEntryEv@Base 0
 (optional=templinst)_ZN5SPIRV6createINS_23SPIRVEntryUnimplementedILN3spv2OpE151EEEEEPNS_10SPIRVEntryEv@Base 0
 (optional=templinst)_ZN5SPIRV6createINS_23SPIRVEntryUnimplementedILN3spv2OpE152EEEEEPNS_10SPIRVEntryEv@Base 0
 (optional=templinst)_ZN5SPIRV6createINS_23SPIRVEntryUnimplementedILN3spv2OpE201EEEEEPNS_10SPIRVEntryEv@Base 0
 (optional=templinst)_ZN5SPIRV6createINS_23SPIRVEntryUnimplementedILN3spv2OpE202EEEEEPNS_10SPIRVEntryEv@Base 0
 (optional=templinst)_ZN5SPIRV6createINS_23SPIRVEntryUnimplementedILN3spv2OpE203EEEEEPNS_10SPIRVEntryEv@Base 0
 (optional=templinst)_ZN5SPIRV6createINS_23SPIRVEntryUnimplementedILN3spv2OpE207EEEEEPNS_10SPIRVEntryEv@Base 0
 (optional=templinst)_ZN5SPIRV6createINS_23SPIRVEntryUnimplementedILN3spv2OpE208EEEEEPNS_10SPIRVEntryEv@Base 0
 (optional=templinst)_ZN5SPIRV6createINS_23SPIRVEntryUnimplementedILN3spv2OpE209EEEEEPNS_10SPIRVEntryEv@Base 0
 (optional=templinst)_ZN5SPIRV6createINS_23SPIRVEntryUnimplementedILN3spv2OpE210EEEEEPNS_10SPIRVEntryEv@Base 0
 (optional=templinst)_ZN5SPIRV6createINS_23SPIRVEntryUnimplementedILN3spv2OpE211EEEEEPNS_10SPIRVEntryEv@Base 0
 (optional=templinst)_ZN5SPIRV6createINS_23SPIRVEntryUnimplementedILN3spv2OpE212EEEEEPNS_10SPIRVEntryEv@Base 0
 (optional=templinst)_ZN5SPIRV6createINS_23SPIRVEntryUnimplementedILN3spv2OpE213EEEEEPNS_10SPIRVEntryEv@Base 0
 (optional=templinst)_ZN5SPIRV6createINS_23SPIRVEntryUnimplementedILN3spv2OpE214EEEEEPNS_10SPIRVEntryEv@Base 0
 (optional=templinst)_ZN5SPIRV6createINS_23SPIRVEntryUnimplementedILN3spv2OpE215EEEEEPNS_10SPIRVEntryEv@Base 0
 (optional=templinst)_ZN5SPIRV6createINS_23SPIRVEntryUnimplementedILN3spv2OpE218EEEEEPNS_10SPIRVEntryEv@Base 0
 (optional=templinst)_ZN5SPIRV6createINS_23SPIRVEntryUnimplementedILN3spv2OpE219EEEEEPNS_10SPIRVEntryEv@Base 0
 (optional=templinst)_ZN5SPIRV6createINS_23SPIRVEntryUnimplementedILN3spv2OpE220EEEEEPNS_10SPIRVEntryEv@Base 0
 (optional=templinst)_ZN5SPIRV6createINS_23SPIRVEntryUnimplementedILN3spv2OpE221EEEEEPNS_10SPIRVEntryEv@Base 0
 (optional=templinst)_ZN5SPIRV6createINS_23SPIRVEntryUnimplementedILN3spv2OpE252EEEEEPNS_10SPIRVEntryEv@Base 0
 (optional=templinst)_ZN5SPIRV6createINS_23SPIRVEntryUnimplementedILN3spv2OpE29EEEEEPNS_10SPIRVEntryEv@Base 0
 (optional=templinst)_ZN5SPIRV6createINS_23SPIRVEntryUnimplementedILN3spv2OpE2EEEEEPNS_10SPIRVEntryEv@Base 0
 (optional=templinst)_ZN5SPIRV6createINS_23SPIRVEntryUnimplementedILN3spv2OpE305EEEEEPNS_10SPIRVEntryEv@Base 0
 (optional=templinst)_ZN5SPIRV6createINS_23SPIRVEntryUnimplementedILN3spv2OpE306EEEEEPNS_10SPIRVEntryEv@Base 0
 (optional=templinst)_ZN5SPIRV6createINS_23SPIRVEntryUnimplementedILN3spv2OpE307EEEEEPNS_10SPIRVEntryEv@Base 0
 (optional=templinst)_ZN5SPIRV6createINS_23SPIRVEntryUnimplementedILN3spv2OpE308EEEEEPNS_10SPIRVEntryEv@Base 0
 (optional=templinst)_ZN5SPIRV6createINS_23SPIRVEntryUnimplementedILN3spv2OpE309EEEEEPNS_10SPIRVEntryEv@Base 0
 (optional=templinst)_ZN5SPIRV6createINS_23SPIRVEntryUnimplementedILN3spv2OpE310EEEEEPNS_10SPIRVEntryEv@Base 0
 (optional=templinst)_ZN5SPIRV6createINS_23SPIRVEntryUnimplementedILN3spv2OpE311EEEEEPNS_10SPIRVEntryEv@Base 0
 (optional=templinst)_ZN5SPIRV6createINS_23SPIRVEntryUnimplementedILN3spv2OpE312EEEEEPNS_10SPIRVEntryEv@Base 0
 (optional=templinst)_ZN5SPIRV6createINS_23SPIRVEntryUnimplementedILN3spv2OpE313EEEEEPNS_10SPIRVEntryEv@Base 0
 (optional=templinst)_ZN5SPIRV6createINS_23SPIRVEntryUnimplementedILN3spv2OpE314EEEEEPNS_10SPIRVEntryEv@Base 0
 (optional=templinst)_ZN5SPIRV6createINS_23SPIRVEntryUnimplementedILN3spv2OpE315EEEEEPNS_10SPIRVEntryEv@Base 0
 (optional=templinst)_ZN5SPIRV6createINS_23SPIRVEntryUnimplementedILN3spv2OpE316EEEEEPNS_10SPIRVEntryEv@Base 0
 (optional=templinst)_ZN5SPIRV6createINS_23SPIRVEntryUnimplementedILN3spv2OpE317EEEEEPNS_10SPIRVEntryEv@Base 0
 (optional=templinst)_ZN5SPIRV6createINS_23SPIRVEntryUnimplementedILN3spv2OpE60EEEEEPNS_10SPIRVEntryEv@Base 0
 (optional=templinst)_ZN5SPIRV6createINS_23SPIRVEntryUnimplementedILN3spv2OpE68EEEEEPNS_10SPIRVEntryEv@Base 0
 (optional=templinst)_ZN5SPIRV6createINS_23SPIRVEntryUnimplementedILN3spv2OpE89EEEEEPNS_10SPIRVEntryEv@Base 0
 (optional=templinst)_ZN5SPIRV6createINS_23SPIRVEntryUnimplementedILN3spv2OpE90EEEEEPNS_10SPIRVEntryEv@Base 0
 (optional=templinst)_ZN5SPIRV6createINS_23SPIRVEntryUnimplementedILN3spv2OpE91EEEEEPNS_10SPIRVEntryEv@Base 0
 (optional=templinst)_ZN5SPIRV6createINS_23SPIRVEntryUnimplementedILN3spv2OpE92EEEEEPNS_10SPIRVEntryEv@Base 0
 (optional=templinst)_ZN5SPIRV6createINS_23SPIRVEntryUnimplementedILN3spv2OpE93EEEEEPNS_10SPIRVEntryEv@Base 0
 (optional=templinst)_ZN5SPIRV6createINS_23SPIRVEntryUnimplementedILN3spv2OpE94EEEEEPNS_10SPIRVEntryEv@Base 0
 (optional=templinst)_ZN5SPIRV6createINS_23SPIRVEntryUnimplementedILN3spv2OpE95EEEEEPNS_10SPIRVEntryEv@Base 0
 (optional=templinst)_ZN5SPIRV6createINS_23SPIRVEntryUnimplementedILN3spv2OpE96EEEEEPNS_10SPIRVEntryEv@Base 0
 (optional=templinst)_ZN5SPIRV6createINS_23SPIRVEntryUnimplementedILN3spv2OpE97EEEEEPNS_10SPIRVEntryEv@Base 0
 (optional=templinst)_ZN5SPIRV6createINS_23SPIRVTypeForwardPointerEEEPNS_10SPIRVEntryEv@Base 0
 (optional=templinst)_ZN5SPIRV6createINS_24SPIRVConstantPipeStorageEEEPNS_10SPIRVEntryEv@Base 0
 (optional=templinst)_ZN5SPIRV6createINS_24SPIRVGroupMemberDecorateEEEPNS_10SPIRVEntryEv@Base 0
 (optional=templinst)_ZN5SPIRV6createINS_24SPIRVVectorInsertDynamicEEEPNS_10SPIRVEntryEv@Base 0
 (optional=templinst)_ZN5SPIRV6createINS_25SPIRVSubgroupAvcINTELTypeILN3spv2OpE5701EEEEEPNS_10SPIRVEntryEv@Base 0
 (optional=templinst)_ZN5SPIRV6createINS_25SPIRVSubgroupAvcINTELTypeILN3spv2OpE5702EEEEEPNS_10SPIRVEntryEv@Base 0
 (optional=templinst)_ZN5SPIRV6createINS_25SPIRVSubgroupAvcINTELTypeILN3spv2OpE5703EEEEEPNS_10SPIRVEntryEv@Base 0
 (optional=templinst)_ZN5SPIRV6createINS_25SPIRVSubgroupAvcINTELTypeILN3spv2OpE5704EEEEEPNS_10SPIRVEntryEv@Base 0
 (optional=templinst)_ZN5SPIRV6createINS_25SPIRVSubgroupAvcINTELTypeILN3spv2OpE5705EEEEEPNS_10SPIRVEntryEv@Base 0
 (optional=templinst)_ZN5SPIRV6createINS_25SPIRVSubgroupAvcINTELTypeILN3spv2OpE5706EEEEEPNS_10SPIRVEntryEv@Base 0
 (optional=templinst)_ZN5SPIRV6createINS_25SPIRVSubgroupAvcINTELTypeILN3spv2OpE5707EEEEEPNS_10SPIRVEntryEv@Base 0
 (optional=templinst)_ZN5SPIRV6createINS_25SPIRVSubgroupAvcINTELTypeILN3spv2OpE5708EEEEEPNS_10SPIRVEntryEv@Base 0
 (optional=templinst)_ZN5SPIRV6createINS_25SPIRVSubgroupAvcINTELTypeILN3spv2OpE5709EEEEEPNS_10SPIRVEntryEv@Base 0
 (optional=templinst)_ZN5SPIRV6createINS_25SPIRVSubgroupAvcINTELTypeILN3spv2OpE5710EEEEEPNS_10SPIRVEntryEv@Base 0
 (optional=templinst)_ZN5SPIRV6createINS_25SPIRVSubgroupAvcINTELTypeILN3spv2OpE5711EEEEEPNS_10SPIRVEntryEv@Base 0
 (optional=templinst)_ZN5SPIRV6createINS_25SPIRVSubgroupAvcINTELTypeILN3spv2OpE5712EEEEEPNS_10SPIRVEntryEv@Base 0
 (optional=templinst)_ZN5SPIRV6createINS_25SPIRVVectorExtractDynamicEEEPNS_10SPIRVEntryEv@Base 0
 (optional=templinst)_ZN5SPIRV6createINS_26SPIRVConstantCompositeBaseILN3spv2OpE44EEEEEPNS_10SPIRVEntryEv@Base 0
 (optional=templinst)_ZN5SPIRV6createINS_26SPIRVConstantCompositeBaseILN3spv2OpE51EEEEEPNS_10SPIRVEntryEv@Base 0
 (optional=templinst)_ZN5SPIRV6createINS_27SPIRVTypeBufferSurfaceINTELEEEPNS_10SPIRVEntryEv@Base 0
 (optional=templinst)_ZN5SPIRV6createINS_29SPIRVFunctionPointerCallINTELEEEPNS_10SPIRVEntryEv@Base 0
 (optional=templinst)_ZN5SPIRV6createINS_30SPIRVConstFunctionPointerINTELEEEPNS_10SPIRVEntryEv@Base 0
 (optional=templinst)_ZN5SPIRV6createINS_8SPIRVPhiEEEPNS_10SPIRVEntryEv@Base 0
 (optional=templinst)_ZN5SPIRV6createINS_9SPIRVFModEEEPNS_10SPIRVEntryEv@Base 0
 (optional=templinst)_ZN5SPIRV6createINS_9SPIRVLineEEEPNS_10SPIRVEntryEv@Base 0
 (optional=templinst)_ZN5SPIRV6createINS_9SPIRVLoadEEEPNS_10SPIRVEntryEv@Base 0
 (optional=templinst)_ZN5SPIRV6createINS_9SPIRVNameEEEPNS_10SPIRVEntryEv@Base 0
 (optional=templinst)_ZN5SPIRV6createINS_9SPIRVSModEEEPNS_10SPIRVEntryEv@Base 0
 (optional=templinst)_ZN5SPIRV6decodeIN10SPIRVDebug11InstructionEEERKNS_12SPIRVDecoderES5_RT_@Base 0
 (optional=templinst)_ZN5SPIRV6decodeIN3spv10CapabilityEEERKNS_12SPIRVDecoderES5_RT_@Base 0
 (optional=templinst)_ZN5SPIRV6decodeIN3spv10DecorationEEERKNS_12SPIRVDecoderES5_RT_@Base 0
 (optional=templinst)_ZN5SPIRV6decodeIN3spv11LinkageTypeEEERKNS_12SPIRVDecoderES5_RT_@Base 0
 (optional=templinst)_ZN5SPIRV6decodeIN3spv2OpEEERKNS_12SPIRVDecoderES5_RT_@Base 0
 (optional=templinst)_ZN5SPIRV6decodeIN9OpenCLLIB11EntrypointsEEERKNS_12SPIRVDecoderES5_RT_@Base 0
 (optional=templinst)_ZN5SPIRV6encodeIN10SPIRVDebug11InstructionEEERKNS_12SPIRVEncoderES5_T_@Base 0
 (optional=templinst)_ZN5SPIRV6encodeIN3spv10CapabilityEEERKNS_12SPIRVEncoderES5_T_@Base 0
 (optional=templinst)_ZN5SPIRV6encodeIN3spv10DecorationEEERKNS_12SPIRVEncoderES5_T_@Base 0
 (optional=templinst)_ZN5SPIRV6encodeIN3spv11LinkageTypeEEERKNS_12SPIRVEncoderES5_T_@Base 0
 (optional=templinst)_ZN5SPIRV6encodeIN3spv2OpEEERKNS_12SPIRVEncoderES5_T_@Base 0
 (optional=templinst)_ZN5SPIRV6encodeIN9OpenCLLIB11EntrypointsEEERKNS_12SPIRVEncoderES5_T_@Base 0
 (subst)_ZN5SPIRV6getIntEPN4llvm6ModuleE{int64_t}@Base 0
 _ZN5SPIRV6getVecERKNSt7__cxx1112basic_stringIcSt11char_traitsIcESaIcEEE@Base 0
 (optional=templinst)_ZN5SPIRV7getNameIN3spv2OpEEENSt7__cxx1112basic_stringIcSt11char_traitsIcESaIcEEET_@Base 0
 (optional=templinst)_ZN5SPIRV7getNameIN9OpenCLLIB11EntrypointsEEENSt7__cxx1112basic_stringIcSt11char_traitsIcESaIcEEET_@Base 0
 (subst)_ZN5SPIRV7getUIntEPN4llvm6ModuleE{uint64_t}@Base 0
 _ZN5SPIRV7mapSIntEPN4llvm6ModuleEPNS0_11ConstantIntESt8functionIFiiEE@Base 0
 _ZN5SPIRV7mapUIntEPN4llvm6ModuleEPNS0_11ConstantIntESt8functionIFjjEE@Base 0
 (optional=templinst)_ZN5SPIRV8SPIRVMapIN10SPIRVDebug11InstructionENSt7__cxx1112basic_stringIcSt11char_traitsIcESaIcEEEvE3addES2_S8_@Base 0
 (optional=templinst)_ZN5SPIRV8SPIRVMapIN10SPIRVDebug11InstructionENSt7__cxx1112basic_stringIcSt11char_traitsIcESaIcEEEvE4initEv@Base 0
 (optional=templinst)_ZN5SPIRV8SPIRVMapIN10SPIRVDebug11InstructionENSt7__cxx1112basic_stringIcSt11char_traitsIcESaIcEEEvED1Ev@Base 0
 (optional=templinst)_ZN5SPIRV8SPIRVMapIN10SPIRVDebug11InstructionENSt7__cxx1112basic_stringIcSt11char_traitsIcESaIcEEEvED2Ev@Base 0
 (optional=templinst|arch=amd64 arm64 mips64el ppc64el riscv64 sparc64)_ZN5SPIRV8SPIRVMapIN17VectorComputeUtil11VCFloatTypeE14VCFloatControlvE3addES2_S3_@Base 0
 (optional=templinst)_ZN5SPIRV8SPIRVMapIN17VectorComputeUtil11VCFloatTypeE14VCFloatControlvED1Ev@Base 0
 (optional=templinst)_ZN5SPIRV8SPIRVMapIN17VectorComputeUtil11VCFloatTypeE14VCFloatControlvED2Ev@Base 0
 (optional=templinst)_ZN5SPIRV8SPIRVMapIN17VectorComputeUtil11VCFloatTypeEjvE3addES2_j@Base 0
 (optional=templinst)_ZN5SPIRV8SPIRVMapIN17VectorComputeUtil11VCFloatTypeEjvED1Ev@Base 0
 (optional=templinst)_ZN5SPIRV8SPIRVMapIN17VectorComputeUtil11VCFloatTypeEjvED2Ev@Base 0
 (optional=templinst)_ZN5SPIRV8SPIRVMapIN3spv10CapabilityENSt7__cxx1112basic_stringIcSt11char_traitsIcESaIcEEEvE3addES2_S8_@Base 0
 (optional=templinst)_ZN5SPIRV8SPIRVMapIN3spv10CapabilityENSt7__cxx1112basic_stringIcSt11char_traitsIcESaIcEEEvE4initEv@Base 0
 (optional=templinst)_ZN5SPIRV8SPIRVMapIN3spv10CapabilityENSt7__cxx1112basic_stringIcSt11char_traitsIcESaIcEEEvED1Ev@Base 0
 (optional=templinst)_ZN5SPIRV8SPIRVMapIN3spv10CapabilityENSt7__cxx1112basic_stringIcSt11char_traitsIcESaIcEEEvED2Ev@Base 0
 (optional=templinst)_ZN5SPIRV8SPIRVMapIN3spv10CapabilityESt6vectorIS2_SaIS2_EEvE3addES2_S5_@Base 0
 (optional=templinst)_ZN5SPIRV8SPIRVMapIN3spv10CapabilityESt6vectorIS2_SaIS2_EEvE4initEv@Base 0
 (optional=templinst)_ZN5SPIRV8SPIRVMapIN3spv10CapabilityESt6vectorIS2_SaIS2_EEvED1Ev@Base 0
 (optional=templinst)_ZN5SPIRV8SPIRVMapIN3spv10CapabilityESt6vectorIS2_SaIS2_EEvED2Ev@Base 0
 (optional=templinst)_ZN5SPIRV8SPIRVMapIN3spv10DecorationENSt7__cxx1112basic_stringIcSt11char_traitsIcESaIcEEEvE3addES2_S8_@Base 0
 (optional=templinst)_ZN5SPIRV8SPIRVMapIN3spv10DecorationENSt7__cxx1112basic_stringIcSt11char_traitsIcESaIcEEEvE4initEv@Base 0
 (optional=templinst)_ZN5SPIRV8SPIRVMapIN3spv10DecorationENSt7__cxx1112basic_stringIcSt11char_traitsIcESaIcEEEvED1Ev@Base 0
 (optional=templinst)_ZN5SPIRV8SPIRVMapIN3spv10DecorationENSt7__cxx1112basic_stringIcSt11char_traitsIcESaIcEEEvED2Ev@Base 0
 (optional=templinst)_ZN5SPIRV8SPIRVMapIN3spv10DecorationESt6vectorINS1_10CapabilityESaIS4_EEvE3addES2_S6_@Base 0
 (optional=templinst)_ZN5SPIRV8SPIRVMapIN3spv10DecorationESt6vectorINS1_10CapabilityESaIS4_EEvE4initEv@Base 0
 (optional=templinst)_ZN5SPIRV8SPIRVMapIN3spv10DecorationESt6vectorINS1_10CapabilityESaIS4_EEvED1Ev@Base 0
 (optional=templinst)_ZN5SPIRV8SPIRVMapIN3spv10DecorationESt6vectorINS1_10CapabilityESaIS4_EEvED2Ev@Base 0
 (optional=templinst)_ZN5SPIRV8SPIRVMapIN3spv11LinkageTypeENSt7__cxx1112basic_stringIcSt11char_traitsIcESaIcEEEvE3addES2_S8_@Base 0
 (optional=templinst)_ZN5SPIRV8SPIRVMapIN3spv11LinkageTypeENSt7__cxx1112basic_stringIcSt11char_traitsIcESaIcEEEvED1Ev@Base 0
 (optional=templinst)_ZN5SPIRV8SPIRVMapIN3spv11LinkageTypeENSt7__cxx1112basic_stringIcSt11char_traitsIcESaIcEEEvED2Ev@Base 0
 (optional=templinst|arch=amd64 arm64 mips64el ppc64el riscv64 sparc64)_ZN5SPIRV8SPIRVMapIN3spv12FPDenormModeENS1_13ExecutionModeEvE3addES2_S3_@Base 0
 (optional=templinst)_ZN5SPIRV8SPIRVMapIN3spv12FPDenormModeENS1_13ExecutionModeEvED1Ev@Base 0
 (optional=templinst)_ZN5SPIRV8SPIRVMapIN3spv12FPDenormModeENS1_13ExecutionModeEvED2Ev@Base 0
 (optional=templinst)_ZN5SPIRV8SPIRVMapIN3spv12StorageClassESt6vectorINS1_10CapabilityESaIS4_EEvE3addES2_S6_@Base 0
 (optional=templinst)_ZN5SPIRV8SPIRVMapIN3spv12StorageClassESt6vectorINS1_10CapabilityESaIS4_EEvE4initEv@Base 0
 (optional=templinst)_ZN5SPIRV8SPIRVMapIN3spv12StorageClassESt6vectorINS1_10CapabilityESaIS4_EEvED1Ev@Base 0
 (optional=templinst)_ZN5SPIRV8SPIRVMapIN3spv12StorageClassESt6vectorINS1_10CapabilityESaIS4_EEvED2Ev@Base 0
 (optional=templinst)_ZN5SPIRV8SPIRVMapIN3spv13ExecutionModeESt6vectorINS1_10CapabilityESaIS4_EEvE3addES2_S6_@Base 0
 (optional=templinst)_ZN5SPIRV8SPIRVMapIN3spv13ExecutionModeESt6vectorINS1_10CapabilityESaIS4_EEvE4initEv@Base 0
 (optional=templinst)_ZN5SPIRV8SPIRVMapIN3spv13ExecutionModeESt6vectorINS1_10CapabilityESaIS4_EEvED1Ev@Base 0
 (optional=templinst)_ZN5SPIRV8SPIRVMapIN3spv13ExecutionModeESt6vectorINS1_10CapabilityESaIS4_EEvED2Ev@Base 0
 (optional=templinst)_ZN5SPIRV8SPIRVMapIN3spv14ExecutionModelESt6vectorINS1_10CapabilityESaIS4_EEvE3addES2_S6_@Base 0
 (optional=templinst)_ZN5SPIRV8SPIRVMapIN3spv14ExecutionModelESt6vectorINS1_10CapabilityESaIS4_EEvE4initEv@Base 0
 (optional=templinst)_ZN5SPIRV8SPIRVMapIN3spv14ExecutionModelESt6vectorINS1_10CapabilityESaIS4_EEvED1Ev@Base 0
 (optional=templinst)_ZN5SPIRV8SPIRVMapIN3spv14ExecutionModelESt6vectorINS1_10CapabilityESaIS4_EEvED2Ev@Base 0
 (optional=templinst|arch=amd64 arm64 mips64el ppc64el riscv64 sparc64)_ZN5SPIRV8SPIRVMapIN3spv14FPRoundingModeE14VCFloatControlvE3addES2_S3_@Base 0
 (optional=templinst)_ZN5SPIRV8SPIRVMapIN3spv14FPRoundingModeE14VCFloatControlvED1Ev@Base 0
 (optional=templinst)_ZN5SPIRV8SPIRVMapIN3spv14FPRoundingModeE14VCFloatControlvED2Ev@Base 0
 (optional=templinst)_ZN5SPIRV8SPIRVMapIN3spv14FPRoundingModeENS1_13ExecutionModeEvE3addES2_S3_@Base 0
 (optional=templinst)_ZN5SPIRV8SPIRVMapIN3spv14FPRoundingModeENS1_13ExecutionModeEvED1Ev@Base 0
 (optional=templinst)_ZN5SPIRV8SPIRVMapIN3spv14FPRoundingModeENS1_13ExecutionModeEvED2Ev@Base 0
 (optional=templinst|arch=amd64 arm64 mips64el ppc64el riscv64 sparc64)_ZN5SPIRV8SPIRVMapIN3spv15FPOperationModeE14VCFloatControlvE3addES2_S3_@Base 0
 (optional=templinst)_ZN5SPIRV8SPIRVMapIN3spv15FPOperationModeE14VCFloatControlvED1Ev@Base 0
 (optional=templinst)_ZN5SPIRV8SPIRVMapIN3spv15FPOperationModeE14VCFloatControlvED2Ev@Base 0
 (optional=templinst|arch=amd64 arm64 mips64el ppc64el riscv64 sparc64)_ZN5SPIRV8SPIRVMapIN3spv15FPOperationModeENS1_13ExecutionModeEvE3addES2_S3_@Base 0
 (optional=templinst)_ZN5SPIRV8SPIRVMapIN3spv15FPOperationModeENS1_13ExecutionModeEvED1Ev@Base 0
 (optional=templinst)_ZN5SPIRV8SPIRVMapIN3spv15FPOperationModeENS1_13ExecutionModeEvED2Ev@Base 0
 (optional=templinst)_ZN5SPIRV8SPIRVMapIN3spv2OpENSt7__cxx1112basic_stringIcSt11char_traitsIcESaIcEEEvE3addES2_S8_@Base 0
 (optional=templinst)_ZN5SPIRV8SPIRVMapIN3spv2OpENSt7__cxx1112basic_stringIcSt11char_traitsIcESaIcEEEvE4initEv@Base 0
 (optional=templinst)_ZN5SPIRV8SPIRVMapIN3spv2OpENSt7__cxx1112basic_stringIcSt11char_traitsIcESaIcEEEvED1Ev@Base 0
 (optional=templinst)_ZN5SPIRV8SPIRVMapIN3spv2OpENSt7__cxx1112basic_stringIcSt11char_traitsIcESaIcEEEvED2Ev@Base 0
 (optional=templinst)_ZN5SPIRV8SPIRVMapIN3spv2OpES2_NS_14IntBoolOpMapIdEE3addES2_S2_@Base 0
 (optional=templinst)_ZN5SPIRV8SPIRVMapIN3spv2OpES2_NS_14IntBoolOpMapIdEED1Ev@Base 0
 (optional=templinst)_ZN5SPIRV8SPIRVMapIN3spv2OpES2_NS_14IntBoolOpMapIdEED2Ev@Base 0
 (optional=templinst)_ZN5SPIRV8SPIRVMapIN3spv7BuiltInENSt7__cxx1112basic_stringIcSt11char_traitsIcESaIcEEEvE3addES2_S8_@Base 0
 (optional=templinst)_ZN5SPIRV8SPIRVMapIN3spv7BuiltInENSt7__cxx1112basic_stringIcSt11char_traitsIcESaIcEEEvE4initEv@Base 0
 (optional=templinst)_ZN5SPIRV8SPIRVMapIN3spv7BuiltInENSt7__cxx1112basic_stringIcSt11char_traitsIcESaIcEEEvED1Ev@Base 0
 (optional=templinst)_ZN5SPIRV8SPIRVMapIN3spv7BuiltInENSt7__cxx1112basic_stringIcSt11char_traitsIcESaIcEEEvED2Ev@Base 0
 (optional=templinst|arch=!armel !armhf !hurd-i386 !i386 !mipsel !powerpc)_ZN5SPIRV8SPIRVMapIN4llvm13AtomicRMWInst5BinOpEN3spv2OpEvE3addES3_S5_@Base 0
 (optional=templinst)_ZN5SPIRV8SPIRVMapIN4llvm13AtomicRMWInst5BinOpEN3spv2OpEvE3mapES3_@Base 0
 (optional=templinst)_ZN5SPIRV8SPIRVMapIN4llvm13AtomicRMWInst5BinOpEN3spv2OpEvE4initEv@Base 0
 (optional=templinst)_ZN5SPIRV8SPIRVMapIN4llvm13AtomicRMWInst5BinOpEN3spv2OpEvED1Ev@Base 0
 (optional=templinst)_ZN5SPIRV8SPIRVMapIN4llvm13AtomicRMWInst5BinOpEN3spv2OpEvED2Ev@Base 0
 (optional=templinst)_ZN5SPIRV8SPIRVMapIN4llvm5dwarf12LocationAtomEN10SPIRVDebug16ExpressionOpCodeEvE3addES3_S5_@Base 0
 (optional=templinst)_ZN5SPIRV8SPIRVMapIN4llvm5dwarf12LocationAtomEN10SPIRVDebug16ExpressionOpCodeEvE4initEv@Base 0
 (optional=templinst)_ZN5SPIRV8SPIRVMapIN4llvm5dwarf12LocationAtomEN10SPIRVDebug16ExpressionOpCodeEvED1Ev@Base 0
 (optional=templinst)_ZN5SPIRV8SPIRVMapIN4llvm5dwarf12LocationAtomEN10SPIRVDebug16ExpressionOpCodeEvED2Ev@Base 0
 (optional=templinst|arch=amd64 arm64 mips64el ppc64el riscv64 sparc64)_ZN5SPIRV8SPIRVMapIN4llvm5dwarf3TagEN10SPIRVDebug16CompositeTypeTagEvE3addES3_S5_@Base 0
 (optional=templinst)_ZN5SPIRV8SPIRVMapIN4llvm5dwarf3TagEN10SPIRVDebug16CompositeTypeTagEvED1Ev@Base 0
 (optional=templinst)_ZN5SPIRV8SPIRVMapIN4llvm5dwarf3TagEN10SPIRVDebug16CompositeTypeTagEvED2Ev@Base 0
 (optional=templinst|arch=amd64 arm64 mips64el ppc64el riscv64 sparc64)_ZN5SPIRV8SPIRVMapIN4llvm5dwarf3TagEN10SPIRVDebug16TypeQualifierTagEvE3addES3_S5_@Base 0
 (optional=templinst)_ZN5SPIRV8SPIRVMapIN4llvm5dwarf3TagEN10SPIRVDebug16TypeQualifierTagEvED1Ev@Base 0
 (optional=templinst)_ZN5SPIRV8SPIRVMapIN4llvm5dwarf3TagEN10SPIRVDebug16TypeQualifierTagEvED2Ev@Base 0
 (optional=templinst|arch=amd64 arm64 mips64el ppc64el riscv64 sparc64)_ZN5SPIRV8SPIRVMapIN4llvm5dwarf3TagEN10SPIRVDebug17ImportedEntityTagEvE3addES3_S5_@Base 0
 (optional=templinst)_ZN5SPIRV8SPIRVMapIN4llvm5dwarf3TagEN10SPIRVDebug17ImportedEntityTagEvED1Ev@Base 0
 (optional=templinst)_ZN5SPIRV8SPIRVMapIN4llvm5dwarf3TagEN10SPIRVDebug17ImportedEntityTagEvED2Ev@Base 0
 (optional=templinst|arch=!armel !mipsel)_ZN5SPIRV8SPIRVMapIN4llvm5dwarf8TypeKindEN10SPIRVDebug11EncodingTagEvE3addES3_S5_@Base 0
 (optional=templinst)_ZN5SPIRV8SPIRVMapIN4llvm5dwarf8TypeKindEN10SPIRVDebug11EncodingTagEvED1Ev@Base 0
 (optional=templinst)_ZN5SPIRV8SPIRVMapIN4llvm5dwarf8TypeKindEN10SPIRVDebug11EncodingTagEvED2Ev@Base 0
 (optional=templinst)_ZN5SPIRV8SPIRVMapIN4llvm7CmpInst9PredicateEN3spv2OpEvE3addES3_S5_@Base 0
 (optional=templinst)_ZN5SPIRV8SPIRVMapIN4llvm7CmpInst9PredicateEN3spv2OpEvE4initEv@Base 0
 (optional=templinst)_ZN5SPIRV8SPIRVMapIN4llvm7CmpInst9PredicateEN3spv2OpEvED1Ev@Base 0
 (optional=templinst)_ZN5SPIRV8SPIRVMapIN4llvm7CmpInst9PredicateEN3spv2OpEvED2Ev@Base 0
 (optional=templinst|arch=amd64 arm64 mips64el ppc64el riscv64 sparc64)_ZN5SPIRV8SPIRVMapIN4llvm9Attribute8AttrKindEN3spv19FunctionControlMaskEvE3addES3_S5_@Base 0
 (optional=templinst)_ZN5SPIRV8SPIRVMapIN4llvm9Attribute8AttrKindEN3spv19FunctionControlMaskEvED1Ev@Base 0
 (optional=templinst)_ZN5SPIRV8SPIRVMapIN4llvm9Attribute8AttrKindEN3spv19FunctionControlMaskEvED2Ev@Base 0
 (optional=templinst|arch=amd64 arm64 mips64el ppc64el riscv64 sparc64)_ZN5SPIRV8SPIRVMapIN4llvm9Attribute8AttrKindEN3spv26FunctionParameterAttributeEvE3addES3_S5_@Base 0
 (optional=templinst)_ZN5SPIRV8SPIRVMapIN4llvm9Attribute8AttrKindEN3spv26FunctionParameterAttributeEvED1Ev@Base 0
 (optional=templinst)_ZN5SPIRV8SPIRVMapIN4llvm9Attribute8AttrKindEN3spv26FunctionParameterAttributeEvED2Ev@Base 0
 (optional=templinst|arch=amd64 arm64 mips64el ppc64el riscv64 sparc64)_ZN5SPIRV8SPIRVMapIN7OCLUtil12OCLScopeKindEN3spv5ScopeEvE3addES2_S4_@Base 0
 (optional=templinst)_ZN5SPIRV8SPIRVMapIN7OCLUtil12OCLScopeKindEN3spv5ScopeEvE4initEv@Base 0
 (optional=templinst)_ZN5SPIRV8SPIRVMapIN7OCLUtil12OCLScopeKindEN3spv5ScopeEvED1Ev@Base 0
 (optional=templinst)_ZN5SPIRV8SPIRVMapIN7OCLUtil12OCLScopeKindEN3spv5ScopeEvED2Ev@Base 0
 (optional=templinst|arch=amd64 arm64 mips64el ppc64el riscv64 sparc64)_ZN5SPIRV8SPIRVMapIN7OCLUtil15OCLMemFenceKindEN3spv19MemorySemanticsMaskEvE3addES2_S4_@Base 0
 (optional=templinst)_ZN5SPIRV8SPIRVMapIN7OCLUtil15OCLMemFenceKindEN3spv19MemorySemanticsMaskEvE4initEv@Base 0
 (optional=templinst)_ZN5SPIRV8SPIRVMapIN7OCLUtil15OCLMemFenceKindEN3spv19MemorySemanticsMaskEvED1Ev@Base 0
 (optional=templinst)_ZN5SPIRV8SPIRVMapIN7OCLUtil15OCLMemFenceKindEN3spv19MemorySemanticsMaskEvED2Ev@Base 0
 (optional=templinst|arch=amd64 arm64 mips64el ppc64el riscv64 sparc64)_ZN5SPIRV8SPIRVMapIN7OCLUtil15OCLMemOrderKindEjN3spv19MemorySemanticsMaskEE3addES2_j@Base 0
 (optional=templinst)_ZN5SPIRV8SPIRVMapIN7OCLUtil15OCLMemOrderKindEjN3spv19MemorySemanticsMaskEE3mapES2_@Base 0
 (optional=templinst)_ZN5SPIRV8SPIRVMapIN7OCLUtil15OCLMemOrderKindEjN3spv19MemorySemanticsMaskEE4initEv@Base 0
 (optional=templinst)_ZN5SPIRV8SPIRVMapIN7OCLUtil15OCLMemOrderKindEjN3spv19MemorySemanticsMaskEED1Ev@Base 0
 (optional=templinst)_ZN5SPIRV8SPIRVMapIN7OCLUtil15OCLMemOrderKindEjN3spv19MemorySemanticsMaskEED2Ev@Base 0
 (optional=templinst|arch=amd64 arm64 mips64el ppc64el riscv64 sparc64)_ZN5SPIRV8SPIRVMapIN7OCLUtil23OCLMemFenceExtendedKindEN3spv19MemorySemanticsMaskEvE3addES2_S4_@Base 0
 (optional=templinst)_ZN5SPIRV8SPIRVMapIN7OCLUtil23OCLMemFenceExtendedKindEN3spv19MemorySemanticsMaskEvE4initEv@Base 0
 (optional=templinst)_ZN5SPIRV8SPIRVMapIN7OCLUtil23OCLMemFenceExtendedKindEN3spv19MemorySemanticsMaskEvED1Ev@Base 0
 (optional=templinst)_ZN5SPIRV8SPIRVMapIN7OCLUtil23OCLMemFenceExtendedKindEN3spv19MemorySemanticsMaskEvED2Ev@Base 0
 (optional=templinst|arch=amd64 arm64 mips64el ppc64el riscv64 sparc64)_ZN5SPIRV8SPIRVMapIN7OCLUtil6OclExt4KindEN3spv10CapabilityEvE3addES3_S5_@Base 0
 (optional=templinst)_ZN5SPIRV8SPIRVMapIN7OCLUtil6OclExt4KindEN3spv10CapabilityEvE4initEv@Base 0
 (optional=templinst)_ZN5SPIRV8SPIRVMapIN7OCLUtil6OclExt4KindEN3spv10CapabilityEvED1Ev@Base 0
 (optional=templinst)_ZN5SPIRV8SPIRVMapIN7OCLUtil6OclExt4KindEN3spv10CapabilityEvED2Ev@Base 0
 (optional=templinst)_ZN5SPIRV8SPIRVMapIN7OCLUtil6OclExt4KindENSt7__cxx1112basic_stringIcSt11char_traitsIcESaIcEEEvE3addES3_S9_@Base 0
 (optional=templinst)_ZN5SPIRV8SPIRVMapIN7OCLUtil6OclExt4KindENSt7__cxx1112basic_stringIcSt11char_traitsIcESaIcEEEvE4initEv@Base 0
 (optional=templinst)_ZN5SPIRV8SPIRVMapIN7OCLUtil6OclExt4KindENSt7__cxx1112basic_stringIcSt11char_traitsIcESaIcEEEvED1Ev@Base 0
 (optional=templinst)_ZN5SPIRV8SPIRVMapIN7OCLUtil6OclExt4KindENSt7__cxx1112basic_stringIcSt11char_traitsIcESaIcEEEvED2Ev@Base 0
 (optional=templinst)_ZN5SPIRV8SPIRVMapIN9OpenCLLIB11EntrypointsENSt7__cxx1112basic_stringIcSt11char_traitsIcESaIcEEEvE3addES2_S8_@Base 0
 (optional=templinst)_ZN5SPIRV8SPIRVMapIN9OpenCLLIB11EntrypointsENSt7__cxx1112basic_stringIcSt11char_traitsIcESaIcEEEvE4initEv@Base 0
 (optional=templinst)_ZN5SPIRV8SPIRVMapIN9OpenCLLIB11EntrypointsENSt7__cxx1112basic_stringIcSt11char_traitsIcESaIcEEEvED1Ev@Base 0
 (optional=templinst)_ZN5SPIRV8SPIRVMapIN9OpenCLLIB11EntrypointsENSt7__cxx1112basic_stringIcSt11char_traitsIcESaIcEEEvED2Ev@Base 0
 (optional=templinst)_ZN5SPIRV8SPIRVMapINS_11ExtensionIDENSt7__cxx1112basic_stringIcSt11char_traitsIcESaIcEEEvE3addES1_S7_@Base 0
 (optional=templinst)_ZN5SPIRV8SPIRVMapINS_11ExtensionIDENSt7__cxx1112basic_stringIcSt11char_traitsIcESaIcEEEvE4initEv@Base 0
 (optional=templinst)_ZN5SPIRV8SPIRVMapINS_11ExtensionIDENSt7__cxx1112basic_stringIcSt11char_traitsIcESaIcEEEvED1Ev@Base 0
 (optional=templinst)_ZN5SPIRV8SPIRVMapINS_11ExtensionIDENSt7__cxx1112basic_stringIcSt11char_traitsIcESaIcEEEvED2Ev@Base 0
 (optional=templinst)_ZN5SPIRV8SPIRVMapINS_14SPIRVErrorCodeENSt7__cxx1112basic_stringIcSt11char_traitsIcESaIcEEEvE3addES1_S7_@Base 0
 (optional=templinst)_ZN5SPIRV8SPIRVMapINS_14SPIRVErrorCodeENSt7__cxx1112basic_stringIcSt11char_traitsIcESaIcEEEvE4initEv@Base 0
 (optional=templinst)_ZN5SPIRV8SPIRVMapINS_14SPIRVErrorCodeENSt7__cxx1112basic_stringIcSt11char_traitsIcESaIcEEEvED1Ev@Base 0
 (optional=templinst)_ZN5SPIRV8SPIRVMapINS_14SPIRVErrorCodeENSt7__cxx1112basic_stringIcSt11char_traitsIcESaIcEEEvED2Ev@Base 0
 (optional=templinst)_ZN5SPIRV8SPIRVMapINS_16SPIRAddressSpaceEN3spv12StorageClassEvE3addES1_S3_@Base 0
 (optional=templinst)_ZN5SPIRV8SPIRVMapINS_16SPIRAddressSpaceEN3spv12StorageClassEvE3mapES1_@Base 0
 (optional=templinst)_ZN5SPIRV8SPIRVMapINS_16SPIRAddressSpaceEN3spv12StorageClassEvE4rmapES3_@Base 0
 (optional=templinst)_ZN5SPIRV8SPIRVMapINS_16SPIRAddressSpaceEN3spv12StorageClassEvED1Ev@Base 0
 (optional=templinst)_ZN5SPIRV8SPIRVMapINS_16SPIRAddressSpaceEN3spv12StorageClassEvED2Ev@Base 0
 (optional=templinst)_ZN5SPIRV8SPIRVMapINS_19SPIRVExtInstSetKindENSt7__cxx1112basic_stringIcSt11char_traitsIcESaIcEEENS_20SPIRVExtSetShortNameEED1Ev@Base 0
 (optional=templinst)_ZN5SPIRV8SPIRVMapINS_19SPIRVExtInstSetKindENSt7__cxx1112basic_stringIcSt11char_traitsIcESaIcEEENS_20SPIRVExtSetShortNameEED2Ev@Base 0
 (optional=templinst)_ZN5SPIRV8SPIRVMapINS_19SPIRVExtInstSetKindENSt7__cxx1112basic_stringIcSt11char_traitsIcESaIcEEEvE3addES1_S7_@Base 0
 (optional=templinst|arch=!armel !riscv64)_ZN5SPIRV8SPIRVMapINS_19SPIRVExtInstSetKindENSt7__cxx1112basic_stringIcSt11char_traitsIcESaIcEEEvE4initEv@Base 0
 (optional=templinst)_ZN5SPIRV8SPIRVMapINS_19SPIRVExtInstSetKindENSt7__cxx1112basic_stringIcSt11char_traitsIcESaIcEEEvED1Ev@Base 0
 (optional=templinst)_ZN5SPIRV8SPIRVMapINS_19SPIRVExtInstSetKindENSt7__cxx1112basic_stringIcSt11char_traitsIcESaIcEEEvED2Ev@Base 0
 (optional=templinst)_ZN5SPIRV8SPIRVMapINSt7__cxx1112basic_stringIcSt11char_traitsIcESaIcEEEN3spv14FPRoundingModeEvE3addES6_S8_@Base 0
 (optional=templinst)_ZN5SPIRV8SPIRVMapINSt7__cxx1112basic_stringIcSt11char_traitsIcESaIcEEEN3spv14FPRoundingModeEvE4initEv@Base 0
 (optional=templinst)_ZN5SPIRV8SPIRVMapINSt7__cxx1112basic_stringIcSt11char_traitsIcESaIcEEEN3spv14FPRoundingModeEvED1Ev@Base 0
 (optional=templinst)_ZN5SPIRV8SPIRVMapINSt7__cxx1112basic_stringIcSt11char_traitsIcESaIcEEEN3spv14FPRoundingModeEvED2Ev@Base 0
 (optional=templinst)_ZN5SPIRV8SPIRVMapINSt7__cxx1112basic_stringIcSt11char_traitsIcESaIcEEEN3spv14GroupOperationEvE3addES6_S8_@Base 0
 (optional=templinst)_ZN5SPIRV8SPIRVMapINSt7__cxx1112basic_stringIcSt11char_traitsIcESaIcEEEN3spv14GroupOperationEvE4initEv@Base 0
 (optional=templinst)_ZN5SPIRV8SPIRVMapINSt7__cxx1112basic_stringIcSt11char_traitsIcESaIcEEEN3spv14GroupOperationEvED1Ev@Base 0
 (optional=templinst)_ZN5SPIRV8SPIRVMapINSt7__cxx1112basic_stringIcSt11char_traitsIcESaIcEEEN3spv14GroupOperationEvED2Ev@Base 0
 (optional=templinst)_ZN5SPIRV8SPIRVMapINSt7__cxx1112basic_stringIcSt11char_traitsIcESaIcEEEN3spv15AccessQualifierEvE3addES6_S8_@Base 0
 (optional=templinst)_ZN5SPIRV8SPIRVMapINSt7__cxx1112basic_stringIcSt11char_traitsIcESaIcEEEN3spv15AccessQualifierEvE3mapES6_@Base 0
 (optional=templinst|arch=!mipsel)_ZN5SPIRV8SPIRVMapINSt7__cxx1112basic_stringIcSt11char_traitsIcESaIcEEEN3spv15AccessQualifierEvE4rmapES8_@Base 0
 (optional=templinst)_ZN5SPIRV8SPIRVMapINSt7__cxx1112basic_stringIcSt11char_traitsIcESaIcEEEN3spv15AccessQualifierEvED1Ev@Base 0
 (optional=templinst)_ZN5SPIRV8SPIRVMapINSt7__cxx1112basic_stringIcSt11char_traitsIcESaIcEEEN3spv15AccessQualifierEvED2Ev@Base 0
 (optional=templinst)_ZN5SPIRV8SPIRVMapINSt7__cxx1112basic_stringIcSt11char_traitsIcESaIcEEEN3spv2OpEN7OCLUtil12OCL12BuiltinEE3addES6_S8_@Base 0
 (optional=templinst)_ZN5SPIRV8SPIRVMapINSt7__cxx1112basic_stringIcSt11char_traitsIcESaIcEEEN3spv2OpEN7OCLUtil12OCL12BuiltinEE4initEv@Base 0
 (optional=templinst)_ZN5SPIRV8SPIRVMapINSt7__cxx1112basic_stringIcSt11char_traitsIcESaIcEEEN3spv2OpEN7OCLUtil12OCL12BuiltinEED1Ev@Base 0
 (optional=templinst)_ZN5SPIRV8SPIRVMapINSt7__cxx1112basic_stringIcSt11char_traitsIcESaIcEEEN3spv2OpEN7OCLUtil12OCL12BuiltinEED2Ev@Base 0
 (optional=templinst)_ZN5SPIRV8SPIRVMapINSt7__cxx1112basic_stringIcSt11char_traitsIcESaIcEEEN3spv2OpEN7OCLUtil13OCLOpaqueTypeEE4initEv@Base 0
 (optional=templinst)_ZN5SPIRV8SPIRVMapINSt7__cxx1112basic_stringIcSt11char_traitsIcESaIcEEEN3spv2OpEN7OCLUtil13OCLOpaqueTypeEED1Ev@Base 0
 (optional=templinst)_ZN5SPIRV8SPIRVMapINSt7__cxx1112basic_stringIcSt11char_traitsIcESaIcEEEN3spv2OpEN7OCLUtil13OCLOpaqueTypeEED2Ev@Base 0
 (optional=templinst)_ZN5SPIRV8SPIRVMapINSt7__cxx1112basic_stringIcSt11char_traitsIcESaIcEEEN3spv2OpENS_15SPIRVOpaqueTypeEE3addES6_S8_@Base 0
 (optional=templinst)_ZN5SPIRV8SPIRVMapINSt7__cxx1112basic_stringIcSt11char_traitsIcESaIcEEEN3spv2OpENS_15SPIRVOpaqueTypeEE3mapES6_@Base 0
 (optional=templinst)_ZN5SPIRV8SPIRVMapINSt7__cxx1112basic_stringIcSt11char_traitsIcESaIcEEEN3spv2OpENS_15SPIRVOpaqueTypeEE4initEv@Base 0
 (optional=templinst)_ZN5SPIRV8SPIRVMapINSt7__cxx1112basic_stringIcSt11char_traitsIcESaIcEEEN3spv2OpENS_15SPIRVOpaqueTypeEED1Ev@Base 0
 (optional=templinst)_ZN5SPIRV8SPIRVMapINSt7__cxx1112basic_stringIcSt11char_traitsIcESaIcEEEN3spv2OpENS_15SPIRVOpaqueTypeEED2Ev@Base 0
 (optional=templinst)_ZN5SPIRV8SPIRVMapINSt7__cxx1112basic_stringIcSt11char_traitsIcESaIcEEEN3spv2OpENS_16SPIRVInstructionEE3addES6_S8_@Base 0
 (optional=templinst)_ZN5SPIRV8SPIRVMapINSt7__cxx1112basic_stringIcSt11char_traitsIcESaIcEEEN3spv2OpENS_16SPIRVInstructionEE4initEv@Base 0
 (optional=templinst)_ZN5SPIRV8SPIRVMapINSt7__cxx1112basic_stringIcSt11char_traitsIcESaIcEEEN3spv2OpENS_16SPIRVInstructionEED1Ev@Base 0
 (optional=templinst)_ZN5SPIRV8SPIRVMapINSt7__cxx1112basic_stringIcSt11char_traitsIcESaIcEEEN3spv2OpENS_16SPIRVInstructionEED2Ev@Base 0
 (optional=templinst)_ZN5SPIRV8SPIRVMapINSt7__cxx1112basic_stringIcSt11char_traitsIcESaIcEEEN3spv2OpENS_22SPIRVArbFloatIntelInstEE3addES6_S8_@Base 0
 (optional=templinst)_ZN5SPIRV8SPIRVMapINSt7__cxx1112basic_stringIcSt11char_traitsIcESaIcEEEN3spv2OpENS_22SPIRVArbFloatIntelInstEE4initEv@Base 0
 (optional=templinst)_ZN5SPIRV8SPIRVMapINSt7__cxx1112basic_stringIcSt11char_traitsIcESaIcEEEN3spv2OpENS_22SPIRVArbFloatIntelInstEED1Ev@Base 0
 (optional=templinst)_ZN5SPIRV8SPIRVMapINSt7__cxx1112basic_stringIcSt11char_traitsIcESaIcEEEN3spv2OpENS_22SPIRVArbFloatIntelInstEED2Ev@Base 0
 (optional=templinst)_ZN5SPIRV8SPIRVMapINSt7__cxx1112basic_stringIcSt11char_traitsIcESaIcEEEN3spv2OpENS_22SPIRVTypeSubgroupINTELEE3addES6_S8_@Base 0
 (optional=templinst)_ZN5SPIRV8SPIRVMapINSt7__cxx1112basic_stringIcSt11char_traitsIcESaIcEEEN3spv2OpENS_22SPIRVTypeSubgroupINTELEE4initEv@Base 0
 (optional=templinst)_ZN5SPIRV8SPIRVMapINSt7__cxx1112basic_stringIcSt11char_traitsIcESaIcEEEN3spv2OpENS_22SPIRVTypeSubgroupINTELEED1Ev@Base 0
 (optional=templinst)_ZN5SPIRV8SPIRVMapINSt7__cxx1112basic_stringIcSt11char_traitsIcESaIcEEEN3spv2OpENS_22SPIRVTypeSubgroupINTELEED2Ev@Base 0
 (optional=templinst)_ZN5SPIRV8SPIRVMapINSt7__cxx1112basic_stringIcSt11char_traitsIcESaIcEEEN3spv2OpENS_26SPIRVSubgroupsAVCIntelInstEE3addES6_S8_@Base 0
 (optional=templinst)_ZN5SPIRV8SPIRVMapINSt7__cxx1112basic_stringIcSt11char_traitsIcESaIcEEEN3spv2OpENS_26SPIRVSubgroupsAVCIntelInstEE4initEv@Base 0
 (optional=templinst)_ZN5SPIRV8SPIRVMapINSt7__cxx1112basic_stringIcSt11char_traitsIcESaIcEEEN3spv2OpENS_26SPIRVSubgroupsAVCIntelInstEED1Ev@Base 0
 (optional=templinst)_ZN5SPIRV8SPIRVMapINSt7__cxx1112basic_stringIcSt11char_traitsIcESaIcEEEN3spv2OpENS_26SPIRVSubgroupsAVCIntelInstEED2Ev@Base 0
 (optional=templinst)_ZN5SPIRV8SPIRVMapINSt7__cxx1112basic_stringIcSt11char_traitsIcESaIcEEEN3spv7BuiltInEvE3addES6_S8_@Base 0
 (optional=templinst)_ZN5SPIRV8SPIRVMapINSt7__cxx1112basic_stringIcSt11char_traitsIcESaIcEEEN3spv7BuiltInEvE4initEv@Base 0
 (optional=templinst)_ZN5SPIRV8SPIRVMapINSt7__cxx1112basic_stringIcSt11char_traitsIcESaIcEEEN3spv7BuiltInEvED1Ev@Base 0
 (optional=templinst)_ZN5SPIRV8SPIRVMapINSt7__cxx1112basic_stringIcSt11char_traitsIcESaIcEEEN3spv7BuiltInEvED2Ev@Base 0
